   1               		.file	"core.c"
   2               	__SREG__ = 0x3f
   3               	__SP_H__ = 0x3e
   4               	__SP_L__ = 0x3d
   5               	__CCP__  = 0x34
   6               	__tmp_reg__ = 0
   7               	__zero_reg__ = 1
   8               		.global __do_copy_data
   9               		.global __do_clear_bss
  17               	.Ltext0:
  18               	.global	queue_is_empty
  20               	queue_is_empty:
  21               	.LFB22:
  22               	.LM1:
  23               	.LVL0:
  24               	/* prologue: function */
  25               	/* frame size = 0 */
  26 0000 FC01      		movw r30,r24
  27               	.LM2:
  28 0002 20E0      		ldi r18,lo8(0)
  29 0004 8081      		ld r24,Z
  30 0006 9181      		ldd r25,Z+1
  31               	.LVL1:
  32 0008 892B      		or r24,r25
  33 000a 01F4      		brne .L2
  34 000c 21E0      		ldi r18,lo8(1)
  35               	.L2:
  36               	.LM3:
  37 000e 822F      		mov r24,r18
  38               	/* epilogue start */
  39 0010 0895      		ret
  40               	.LFE22:
  42               	.global	queue_push_tuple
  44               	queue_push_tuple:
  45               	.LFB23:
  46               	.LM4:
  47               	.LVL2:
  48               	/* prologue: function */
  49               	/* frame size = 0 */
  50 0012 DC01      		movw r26,r24
  51               	.LM5:
  52 0014 8D91      		ld r24,X+
  53 0016 9C91      		ld r25,X
  54 0018 1197      		sbiw r26,1
  55               	.LVL3:
  56 001a 892B      		or r24,r25
  57 001c 01F0      		breq .L9
  58               	.LM6:
  59 001e 1296      		adiw r26,2
  60 0020 ED91      		ld r30,X+
  61 0022 FC91      		ld r31,X
  62 0024 1397      		sbiw r26,2+1
  63 0026 6083      		st Z,r22
  64 0028 7183      		std Z+1,r23
  65               	.LM7:
  66 002a 1296      		adiw r26,2
  67 002c 6D93      		st X+,r22
  68 002e 7C93      		st X,r23
  69 0030 1397      		sbiw r26,2+1
  70 0032 0895      		ret
  71               	.L9:
  72               	.LM8:
  73 0034 1296      		adiw r26,2
  74 0036 6D93      		st X+,r22
  75 0038 7C93      		st X,r23
  76 003a 1397      		sbiw r26,2+1
  77 003c 6D93      		st X+,r22
  78 003e 7C93      		st X,r23
  79 0040 0895      		ret
  80               	.LFE23:
  82               	.global	queue_pop_tuple
  84               	queue_pop_tuple:
  85               	.LFB24:
  86               	.LM9:
  87               	.LVL4:
  88               	/* prologue: function */
  89               	/* frame size = 0 */
  90 0042 DC01      		movw r26,r24
  91               	.LM10:
  92 0044 ED91      		ld r30,X+
  93 0046 FC91      		ld r31,X
  94 0048 1197      		sbiw r26,1
  95               	.LVL5:
  96 004a 3097      		sbiw r30,0
  97 004c 01F0      		breq .L11
  98               	.LVL6:
  99               	.LM11:
 100 004e 8081      		ld r24,Z
 101 0050 9181      		ldd r25,Z+1
 102 0052 8D93      		st X+,r24
 103 0054 9C93      		st X,r25
 104 0056 1197      		sbiw r26,1
 105               	.LM12:
 106 0058 892B      		or r24,r25
 107 005a 01F0      		breq .L13
 108               	.LVL7:
 109               	.L11:
 110               	.LM13:
 111 005c CF01      		movw r24,r30
 112               	.LVL8:
 113               	/* epilogue start */
 114 005e 0895      		ret
 115               	.LVL9:
 116               	.L13:
 117               	.LM14:
 118 0060 1296      		adiw r26,2
 119 0062 1D92      		st X+,__zero_reg__
 120 0064 1C92      		st X,__zero_reg__
 121 0066 1397      		sbiw r26,2+1
 122               	.LM15:
 123 0068 CF01      		movw r24,r30
 124               	.LVL10:
 125 006a 0895      		ret
 126               	.LFE24:
 128               	.global	p_dequeue
 130               	p_dequeue:
 131               	.LFB28:
 132               	.LM16:
 133               	.LVL11:
 134               	/* prologue: function */
 135               	/* frame size = 0 */
 136 006c DC01      		movw r26,r24
 137               	.LM17:
 138 006e ED91      		ld r30,X+
 139 0070 FC91      		ld r31,X
 140 0072 1197      		sbiw r26,1
 141               	.LVL12:
 142               	.LM18:
 143 0074 3097      		sbiw r30,0
 144 0076 01F0      		breq .L15
 145               	.LVL13:
 146               	.LM19:
 147 0078 8481      		ldd r24,Z+4
 148 007a 9581      		ldd r25,Z+5
 149 007c 8D93      		st X+,r24
 150 007e 9C93      		st X,r25
 151               	.LVL14:
 152               	.L15:
 153               	.LM20:
 154 0080 CF01      		movw r24,r30
 155               	.LVL15:
 156               	/* epilogue start */
 157 0082 0895      		ret
 158               	.LFE28:
 160               	.global	queue_length
 162               	queue_length:
 163               	.LFB44:
 164               	.LM21:
 165               	.LVL16:
 166               	/* prologue: function */
 167               	/* frame size = 0 */
 168 0084 FC01      		movw r30,r24
 169               	.LM22:
 170 0086 0190      		ld __tmp_reg__,Z+
 171 0088 F081      		ld r31,Z
 172 008a E02D      		mov r30,__tmp_reg__
 173               	.LVL17:
 174               	.LM23:
 175 008c 3097      		sbiw r30,0
 176 008e 01F0      		breq .L23
 177 0090 20E0      		ldi r18,lo8(0)
 178 0092 30E0      		ldi r19,hi8(0)
 179               	.LVL18:
 180               	.L20:
 181 0094 0190      		ld __tmp_reg__,Z+
 182 0096 F081      		ld r31,Z
 183 0098 E02D      		mov r30,__tmp_reg__
 184 009a 2F5F      		subi r18,lo8(-(1))
 185 009c 3F4F      		sbci r19,hi8(-(1))
 186 009e 3097      		sbiw r30,0
 187 00a0 01F4      		brne .L20
 188               	.L19:
 189               	.LM24:
 190 00a2 C901      		movw r24,r18
 191               	.LVL19:
 192               	/* epilogue start */
 193 00a4 0895      		ret
 194               	.LVL20:
 195               	.L23:
 196               	.LM25:
 197 00a6 20E0      		ldi r18,lo8(0)
 198 00a8 30E0      		ldi r19,hi8(0)
 199               	.LVL21:
 200 00aa 00C0      		rjmp .L19
 201               	.LFE44:
 203               		.data
 204               	.LC0:
 205 0000 5475 706C 		.string	"Tuple (%s:%d:%d) "
 205      6520 2825 
 205      733A 2564 
 205      3A25 6429 
 205      2000 
 206               	.LC1:
 207 0012 6167 6700 		.string	"agg"
 208               	.LC2:
 209 0016 7065 7200 		.string	"per"
 210               	.LC3:
 211 001a 6C69 6E65 		.string	"linear"
 211      6172 00
 212               	.LC4:
 213 0021 726F 7574 		.string	"route"
 213      6500 
 214               	.LC5:
 215 0027 7072 6F76 		.string	"proved"
 215      6564 00
 216               	.LC6:
 217 002e 5D20 00   		.string	"] "
 218               	.LC7:
 219 0031 6E75 6D5F 		.string	"num_args:%d deltas:%d off:%d ; args(offset, arg_size): "
 219      6172 6773 
 219      3A25 6420 
 219      6465 6C74 
 219      6173 3A25 
 220               	.LC8:
 221 0069 2025 643A 		.string	" %d:%d"
 221      2564 00
 222               		.text
 223               	.global	print_program_info
 225               	print_program_info:
 226               	.LFB48:
 227               	.LM26:
 228 00ac 2F92      		push r2
 229 00ae 3F92      		push r3
 230 00b0 4F92      		push r4
 231 00b2 5F92      		push r5
 232 00b4 6F92      		push r6
 233 00b6 7F92      		push r7
 234 00b8 8F92      		push r8
 235 00ba 9F92      		push r9
 236 00bc AF92      		push r10
 237 00be BF92      		push r11
 238 00c0 CF92      		push r12
 239 00c2 DF92      		push r13
 240 00c4 EF92      		push r14
 241 00c6 FF92      		push r15
 242 00c8 0F93      		push r16
 243 00ca 1F93      		push r17
 244 00cc CF93      		push r28
 245 00ce DF93      		push r29
 246               	/* prologue: function */
 247               	/* frame size = 0 */
 248               	.LM27:
 249 00d0 8091 0000 		lds r24,meld_prog
 250 00d4 482E      		mov r4,r24
 251 00d6 5524      		clr r5
 252 00d8 4114      		cp r4,__zero_reg__
 253 00da 5104      		cpc r5,__zero_reg__
 254 00dc 01F4      		brne .+2
 255 00de 00C0      		rjmp .L34
 256 00e0 CC24      		clr r12
 257 00e2 DD24      		clr r13
 258 00e4 41E0      		ldi r20,lo8(1)
 259 00e6 A42E      		mov r10,r20
 260 00e8 B12C      		mov r11,__zero_reg__
 261 00ea 30E0      		ldi r19,lo8(.LC0)
 262 00ec 232E      		mov r2,r19
 263 00ee 30E0      		ldi r19,hi8(.LC0)
 264 00f0 332E      		mov r3,r19
 265 00f2 20E0      		ldi r18,lo8(.LC8)
 266 00f4 822E      		mov r8,r18
 267 00f6 20E0      		ldi r18,hi8(.LC8)
 268 00f8 922E      		mov r9,r18
 269               	.L33:
 270 00fa 7601      		movw r14,r12
 271 00fc EE0C      		lsl r14
 272 00fe FF1C      		rol r15
 273               	.LBB199:
 274               	.LM28:
 275 0100 2DB7      		in r18,__SP_L__
 276 0102 3EB7      		in r19,__SP_H__
 277 0104 2850      		subi r18,lo8(-(-8))
 278 0106 3040      		sbci r19,hi8(-(-8))
 279 0108 2DBF      		out __SP_L__,r18
 280 010a 3EBF      		out __SP_H__,r19
 281 010c ADB7      		in r26,__SP_L__
 282 010e BEB7      		in r27,__SP_H__
 283 0110 1196      		adiw r26,1
 284 0112 CDB7      		in r28,__SP_L__
 285 0114 DEB7      		in r29,__SP_H__
 286 0116 2982      		std Y+1,r2
 287 0118 3A82      		std Y+2,r3
 288 011a F501      		movw r30,r10
 289 011c E050      		subi r30,lo8(-(tuple_names-1))
 290 011e F040      		sbci r31,hi8(-(tuple_names-1))
 291 0120 8081      		ld r24,Z
 292 0122 9181      		ldd r25,Z+1
 293 0124 1296      		adiw r26,2
 294 0126 8D93      		st X+,r24
 295 0128 9C93      		st X,r25
 296 012a 1397      		sbiw r26,2+1
 297 012c 1496      		adiw r26,4
 298 012e CD92      		st X+,r12
 299 0130 DC92      		st X,r13
 300 0132 1597      		sbiw r26,4+1
 301 0134 E091 0000 		lds r30,arguments
 302 0138 F091 0000 		lds r31,(arguments)+1
 303 013c EA0D      		add r30,r10
 304 013e FB1D      		adc r31,r11
 305 0140 8081      		ld r24,Z
 306 0142 1696      		adiw r26,6
 307 0144 8C93      		st X,r24
 308 0146 1697      		sbiw r26,6
 309 0148 1796      		adiw r26,7
 310 014a 1C92      		st X,__zero_reg__
 311 014c 0E94 0000 		call printf
 312               	.LM29:
 313 0150 EDB7      		in r30,__SP_L__
 314 0152 FEB7      		in r31,__SP_H__
 315 0154 3896      		adiw r30,8
 316 0156 EDBF      		out __SP_L__,r30
 317 0158 FEBF      		out __SP_H__,r31
 318 015a 8BE5      		ldi r24,lo8(91)
 319 015c 90E0      		ldi r25,hi8(91)
 320 015e 0E94 0000 		call putchar
 321               	.LM30:
 322 0162 0894      		sec
 323 0164 C11C      		adc r12,__zero_reg__
 324 0166 D11C      		adc r13,__zero_reg__
 325 0168 F601      		movw r30,r12
 326 016a E050      		subi r30,lo8(-(meld_prog))
 327 016c F040      		sbci r31,hi8(-(meld_prog))
 328 016e 7080      		ld r7,Z
 329 0170 C72D      		mov r28,r7
 330 0172 D0E0      		ldi r29,lo8(0)
 331 0174 8E01      		movw r16,r28
 332 0176 0050      		subi r16,lo8(-(meld_prog+2))
 333 0178 1040      		sbci r17,hi8(-(meld_prog+2))
 334 017a D801      		movw r26,r16
 335 017c 8C91      		ld r24,X
 336 017e 80FD      		sbrc r24,0
 337 0180 00C0      		rjmp .L37
 338               	.LM31:
 339 0182 81FD      		sbrc r24,1
 340 0184 00C0      		rjmp .L38
 341               	.L27:
 342               	.LM32:
 343 0186 82FD      		sbrc r24,2
 344 0188 00C0      		rjmp .L39
 345               	.L28:
 346               	.LM33:
 347 018a 85FD      		sbrc r24,5
 348 018c 00C0      		rjmp .L40
 349               	.L29:
 350               	.LM34:
 351 018e 86FD      		sbrc r24,6
 352 0190 00C0      		rjmp .L41
 353               	.L30:
 354               	.LM35:
 355 0192 0F92      		push __tmp_reg__
 356 0194 0F92      		push __tmp_reg__
 357 0196 E0E0      		ldi r30,lo8(.LC6)
 358 0198 F0E0      		ldi r31,hi8(.LC6)
 359 019a ADB7      		in r26,__SP_L__
 360 019c BEB7      		in r27,__SP_H__
 361 019e 1196      		adiw r26,1
 362 01a0 ED93      		st X+,r30
 363 01a2 FC93      		st X,r31
 364 01a4 1297      		sbiw r26,1+1
 365 01a6 0E94 0000 		call printf
 366               	.LM36:
 367 01aa 8E01      		movw r16,r28
 368 01ac 0050      		subi r16,lo8(-(meld_prog+5))
 369 01ae 1040      		sbci r17,hi8(-(meld_prog+5))
 370 01b0 00D0      		rcall .
 371 01b2 00D0      		rcall .
 372 01b4 EDB7      		in r30,__SP_L__
 373 01b6 FEB7      		in r31,__SP_H__
 374 01b8 3196      		adiw r30,1
 375 01ba 20E0      		ldi r18,lo8(.LC7)
 376 01bc 30E0      		ldi r19,hi8(.LC7)
 377 01be ADB7      		in r26,__SP_L__
 378 01c0 BEB7      		in r27,__SP_H__
 379 01c2 1196      		adiw r26,1
 380 01c4 2D93      		st X+,r18
 381 01c6 3C93      		st X,r19
 382 01c8 1297      		sbiw r26,1+1
 383 01ca D801      		movw r26,r16
 384 01cc 8C91      		ld r24,X
 385 01ce 8283      		std Z+2,r24
 386 01d0 1382      		std Z+3,__zero_reg__
 387 01d2 C050      		subi r28,lo8(-(meld_prog))
 388 01d4 D040      		sbci r29,hi8(-(meld_prog))
 389 01d6 8E81      		ldd r24,Y+6
 390 01d8 8483      		std Z+4,r24
 391 01da 1582      		std Z+5,__zero_reg__
 392 01dc 7682      		std Z+6,r7
 393 01de 1782      		std Z+7,__zero_reg__
 394 01e0 0E94 0000 		call printf
 395               	.LM37:
 396 01e4 CDB7      		in r28,__SP_L__
 397 01e6 DEB7      		in r29,__SP_H__
 398 01e8 2896      		adiw r28,8
 399 01ea CDBF      		out __SP_L__,r28
 400 01ec DEBF      		out __SP_H__,r29
 401 01ee F801      		movw r30,r16
 402 01f0 8081      		ld r24,Z
 403 01f2 8823      		tst r24
 404 01f4 01F0      		breq .L31
 405 01f6 6624      		clr r6
 406 01f8 7724      		clr r7
 407               	.L32:
 408               	.LM38:
 409 01fa 2091 0000 		lds r18,arguments
 410 01fe 3091 0000 		lds r19,(arguments)+1
 411 0202 D301      		movw r26,r6
 412 0204 AA0F      		lsl r26
 413 0206 BB1F      		rol r27
 414 0208 F901      		movw r30,r18
 415 020a EE0D      		add r30,r14
 416 020c FF1D      		adc r31,r15
 417 020e 8081      		ld r24,Z
 418 0210 A80F      		add r26,r24
 419 0212 B11D      		adc r27,__zero_reg__
 420 0214 00D0      		rcall .
 421 0216 00D0      		rcall .
 422 0218 EDB7      		in r30,__SP_L__
 423 021a FEB7      		in r31,__SP_H__
 424 021c 3196      		adiw r30,1
 425 021e CDB7      		in r28,__SP_L__
 426 0220 DEB7      		in r29,__SP_H__
 427 0222 8982      		std Y+1,r8
 428 0224 9A82      		std Y+2,r9
 429 0226 A20F      		add r26,r18
 430 0228 B31F      		adc r27,r19
 431 022a 1196      		adiw r26,1
 432 022c 8C91      		ld r24,X
 433 022e 1197      		sbiw r26,1
 434 0230 8283      		std Z+2,r24
 435 0232 1382      		std Z+3,__zero_reg__
 436 0234 8C91      		ld r24,X
 437 0236 8483      		std Z+4,r24
 438 0238 1582      		std Z+5,__zero_reg__
 439 023a 0E94 0000 		call printf
 440               	.LM39:
 441 023e 0894      		sec
 442 0240 611C      		adc r6,__zero_reg__
 443 0242 711C      		adc r7,__zero_reg__
 444 0244 F801      		movw r30,r16
 445 0246 8081      		ld r24,Z
 446 0248 90E0      		ldi r25,lo8(0)
 447 024a 2DB7      		in r18,__SP_L__
 448 024c 3EB7      		in r19,__SP_H__
 449 024e 2A5F      		subi r18,lo8(-(6))
 450 0250 3F4F      		sbci r19,hi8(-(6))
 451 0252 2DBF      		out __SP_L__,r18
 452 0254 3EBF      		out __SP_H__,r19
 453 0256 6816      		cp r6,r24
 454 0258 7906      		cpc r7,r25
 455 025a 04F0      		brlt .L32
 456               	.L31:
 457               	.LM40:
 458 025c 8AE0      		ldi r24,lo8(10)
 459 025e 90E0      		ldi r25,hi8(10)
 460 0260 0E94 0000 		call putchar
 461 0264 82E0      		ldi r24,lo8(2)
 462 0266 90E0      		ldi r25,hi8(2)
 463 0268 A80E      		add r10,r24
 464 026a B91E      		adc r11,r25
 465               	.LBE199:
 466               	.LM41:
 467 026c C414      		cp r12,r4
 468 026e D504      		cpc r13,r5
 469 0270 04F4      		brge .+2
 470 0272 00C0      		rjmp .L33
 471               	.L34:
 472               	/* epilogue start */
 473               	.LM42:
 474 0274 DF91      		pop r29
 475 0276 CF91      		pop r28
 476 0278 1F91      		pop r17
 477 027a 0F91      		pop r16
 478 027c FF90      		pop r15
 479 027e EF90      		pop r14
 480 0280 DF90      		pop r13
 481 0282 CF90      		pop r12
 482 0284 BF90      		pop r11
 483 0286 AF90      		pop r10
 484 0288 9F90      		pop r9
 485 028a 8F90      		pop r8
 486 028c 7F90      		pop r7
 487 028e 6F90      		pop r6
 488 0290 5F90      		pop r5
 489 0292 4F90      		pop r4
 490 0294 3F90      		pop r3
 491 0296 2F90      		pop r2
 492 0298 0895      		ret
 493               	.L41:
 494               	.LBB200:
 495               	.LM43:
 496 029a 0F92      		push __tmp_reg__
 497 029c 0F92      		push __tmp_reg__
 498 029e 20E0      		ldi r18,lo8(.LC5)
 499 02a0 30E0      		ldi r19,hi8(.LC5)
 500 02a2 EDB7      		in r30,__SP_L__
 501 02a4 FEB7      		in r31,__SP_H__
 502 02a6 2183      		std Z+1,r18
 503 02a8 3283      		std Z+2,r19
 504 02aa 0E94 0000 		call printf
 505 02ae 0F90      		pop __tmp_reg__
 506 02b0 0F90      		pop __tmp_reg__
 507 02b2 00C0      		rjmp .L30
 508               	.L40:
 509               	.LM44:
 510 02b4 0F92      		push __tmp_reg__
 511 02b6 0F92      		push __tmp_reg__
 512 02b8 20E0      		ldi r18,lo8(.LC4)
 513 02ba 30E0      		ldi r19,hi8(.LC4)
 514 02bc EDB7      		in r30,__SP_L__
 515 02be FEB7      		in r31,__SP_H__
 516 02c0 2183      		std Z+1,r18
 517 02c2 3283      		std Z+2,r19
 518 02c4 0E94 0000 		call printf
 519 02c8 D801      		movw r26,r16
 520 02ca 8C91      		ld r24,X
 521 02cc 0F90      		pop __tmp_reg__
 522 02ce 0F90      		pop __tmp_reg__
 523 02d0 00C0      		rjmp .L29
 524               	.L39:
 525               	.LM45:
 526 02d2 0F92      		push __tmp_reg__
 527 02d4 0F92      		push __tmp_reg__
 528 02d6 20E0      		ldi r18,lo8(.LC3)
 529 02d8 30E0      		ldi r19,hi8(.LC3)
 530 02da EDB7      		in r30,__SP_L__
 531 02dc FEB7      		in r31,__SP_H__
 532 02de 2183      		std Z+1,r18
 533 02e0 3283      		std Z+2,r19
 534 02e2 0E94 0000 		call printf
 535 02e6 D801      		movw r26,r16
 536 02e8 8C91      		ld r24,X
 537 02ea 0F90      		pop __tmp_reg__
 538 02ec 0F90      		pop __tmp_reg__
 539 02ee 00C0      		rjmp .L28
 540               	.L37:
 541               	.LM46:
 542 02f0 0F92      		push __tmp_reg__
 543 02f2 0F92      		push __tmp_reg__
 544 02f4 20E0      		ldi r18,lo8(.LC1)
 545 02f6 30E0      		ldi r19,hi8(.LC1)
 546 02f8 EDB7      		in r30,__SP_L__
 547 02fa FEB7      		in r31,__SP_H__
 548 02fc 2183      		std Z+1,r18
 549 02fe 3283      		std Z+2,r19
 550 0300 0E94 0000 		call printf
 551 0304 D801      		movw r26,r16
 552 0306 8C91      		ld r24,X
 553 0308 0F90      		pop __tmp_reg__
 554 030a 0F90      		pop __tmp_reg__
 555               	.LM47:
 556 030c 81FF      		sbrs r24,1
 557 030e 00C0      		rjmp .L27
 558               	.L38:
 559               	.LM48:
 560 0310 0F92      		push __tmp_reg__
 561 0312 0F92      		push __tmp_reg__
 562 0314 20E0      		ldi r18,lo8(.LC2)
 563 0316 30E0      		ldi r19,hi8(.LC2)
 564 0318 EDB7      		in r30,__SP_L__
 565 031a FEB7      		in r31,__SP_H__
 566 031c 2183      		std Z+1,r18
 567 031e 3283      		std Z+2,r19
 568 0320 0E94 0000 		call printf
 569 0324 D801      		movw r26,r16
 570 0326 8C91      		ld r24,X
 571 0328 0F90      		pop __tmp_reg__
 572 032a 0F90      		pop __tmp_reg__
 573 032c 00C0      		rjmp .L27
 574               	.LBE200:
 575               	.LFE48:
 577               		.data
 578               	.LC9:
 579 0070 2573 2800 		.string	"%s("
 580               	.LC10:
 581 0074 2C20 00   		.string	", "
 582               	.LC11:
 583 0077 256C 6400 		.string	"%ld"
 584               	.LC12:
 585 007b 2566 00   		.string	"%f"
 586               	.LC13:
 587 007e 2570 00   		.string	"%p"
 588               	.LC14:
 589 0081 6C69 7374 		.string	"list_int[%d][%p]"
 589      5F69 6E74 
 589      5B25 645D 
 589      5B25 705D 
 589      00
 590               	.LC15:
 591 0092 6C69 7374 		.string	"list_float[%d][%p]"
 591      5F66 6C6F 
 591      6174 5B25 
 591      645D 5B25 
 591      705D 00
 592               	.LC16:
 593 00a5 6C69 7374 		.string	"list_addr[%p]"
 593      5F61 6464 
 593      725B 2570 
 593      5D00 
 594               	.LC17:
 595 00b3 7365 745F 		.string	"set_int[%d][%p]"
 595      696E 745B 
 595      2564 5D5B 
 595      2570 5D00 
 596               	.LC18:
 597 00c3 7365 745F 		.string	"set_float[%d][%p]"
 597      666C 6F61 
 597      745B 2564 
 597      5D5B 2570 
 597      5D00 
 598               	.LC19:
 599 00d5 2F68 6F6D 		.string	"/home/rbigeard/BB/build/src-bobby/meldinterp-runtime/core.c"
 599      652F 7262 
 599      6967 6561 
 599      7264 2F42 
 599      422F 6275 
 600               	.LC20:
 601 0111 3000      		.string	"0"
 602               		.text
 603               	.global	tuple_print
 605               	tuple_print:
 606               	.LFB46:
 607               	.LM49:
 608 032e 2F92      		push r2
 609 0330 3F92      		push r3
 610 0332 4F92      		push r4
 611 0334 5F92      		push r5
 612 0336 6F92      		push r6
 613 0338 7F92      		push r7
 614 033a 8F92      		push r8
 615 033c 9F92      		push r9
 616 033e AF92      		push r10
 617 0340 BF92      		push r11
 618 0342 CF92      		push r12
 619 0344 DF92      		push r13
 620 0346 EF92      		push r14
 621 0348 FF92      		push r15
 622 034a 0F93      		push r16
 623 034c 1F93      		push r17
 624 034e CF93      		push r28
 625 0350 DF93      		push r29
 626               	/* prologue: function */
 627               	/* frame size = 0 */
 628 0352 5C01      		movw r10,r24
 629 0354 6B01      		movw r12,r22
 630               	.LM50:
 631 0356 DC01      		movw r26,r24
 632 0358 EC91      		ld r30,X
 633 035a CE2F      		mov r28,r30
 634 035c D0E0      		ldi r29,lo8(0)
 635 035e 00D0      		rcall .
 636 0360 00D0      		rcall .
 637 0362 ADB7      		in r26,__SP_L__
 638 0364 BEB7      		in r27,__SP_H__
 639 0366 1196      		adiw r26,1
 640 0368 EDB7      		in r30,__SP_L__
 641 036a FEB7      		in r31,__SP_H__
 642 036c 6183      		std Z+1,r22
 643 036e 7283      		std Z+2,r23
 644 0370 80E0      		ldi r24,lo8(.LC9)
 645 0372 90E0      		ldi r25,hi8(.LC9)
 646 0374 1296      		adiw r26,2
 647 0376 8D93      		st X+,r24
 648 0378 9C93      		st X,r25
 649 037a 1397      		sbiw r26,2+1
 650 037c FE01      		movw r30,r28
 651 037e EE0F      		lsl r30
 652 0380 FF1F      		rol r31
 653 0382 E050      		subi r30,lo8(-(tuple_names))
 654 0384 F040      		sbci r31,hi8(-(tuple_names))
 655 0386 8081      		ld r24,Z
 656 0388 9181      		ldd r25,Z+1
 657 038a 1496      		adiw r26,4
 658 038c 8D93      		st X+,r24
 659 038e 9C93      		st X,r25
 660 0390 1597      		sbiw r26,4+1
 661 0392 0E94 0000 		call fprintf
 662               	.LM51:
 663 0396 C050      		subi r28,lo8(-(meld_prog))
 664 0398 D040      		sbci r29,hi8(-(meld_prog))
 665 039a 8981      		ldd r24,Y+1
 666 039c E82F      		mov r30,r24
 667 039e F0E0      		ldi r31,lo8(0)
 668 03a0 10E0      		ldi r17,lo8(meld_prog+5)
 669 03a2 812E      		mov r8,r17
 670 03a4 10E0      		ldi r17,hi8(meld_prog+5)
 671 03a6 912E      		mov r9,r17
 672 03a8 8E0E      		add r8,r30
 673 03aa 9F1E      		adc r9,r31
 674 03ac 8DB7      		in r24,__SP_L__
 675 03ae 9EB7      		in r25,__SP_H__
 676 03b0 0696      		adiw r24,6
 677 03b2 8DBF      		out __SP_L__,r24
 678 03b4 9EBF      		out __SP_H__,r25
 679 03b6 D401      		movw r26,r8
 680 03b8 8C91      		ld r24,X
 681 03ba 8823      		tst r24
 682 03bc 01F4      		brne .+2
 683 03be 00C0      		rjmp .L43
 684 03c0 B0E0      		ldi r27,lo8(meld_prog+7)
 685 03c2 EB2E      		mov r14,r27
 686 03c4 B0E0      		ldi r27,hi8(meld_prog+7)
 687 03c6 FB2E      		mov r15,r27
 688 03c8 EE0E      		add r14,r30
 689 03ca FF1E      		adc r15,r31
 690 03cc 00E0      		ldi r16,lo8(0)
 691 03ce 10E0      		ldi r17,hi8(0)
 692               	.LBB201:
 693               	.LM52:
 694 03d0 A0E0      		ldi r26,lo8(.LC11)
 695 03d2 6A2E      		mov r6,r26
 696 03d4 A0E0      		ldi r26,hi8(.LC11)
 697 03d6 7A2E      		mov r7,r26
 698               	.LM53:
 699 03d8 F0E0      		ldi r31,lo8(.LC13)
 700 03da 4F2E      		mov r4,r31
 701 03dc F0E0      		ldi r31,hi8(.LC13)
 702 03de 5F2E      		mov r5,r31
 703               	.LM54:
 704 03e0 E0E0      		ldi r30,lo8(.LC14)
 705 03e2 2E2E      		mov r2,r30
 706 03e4 E0E0      		ldi r30,hi8(.LC14)
 707 03e6 3E2E      		mov r3,r30
 708 03e8 00C0      		rjmp .L57
 709               	.L62:
 710               	.LM55:
 711 03ea 8130      		cpi r24,lo8(1)
 712 03ec 01F4      		brne .+2
 713 03ee 00C0      		rjmp .L47
 714 03f0 8130      		cpi r24,lo8(1)
 715 03f2 00F0      		brlo .+2
 716 03f4 00C0      		rjmp .L61
 717               	.LM56:
 718 03f6 8DB7      		in r24,__SP_L__
 719 03f8 9EB7      		in r25,__SP_H__
 720 03fa 0897      		sbiw r24,8
 721 03fc 8DBF      		out __SP_L__,r24
 722 03fe 9EBF      		out __SP_H__,r25
 723 0400 EDB7      		in r30,__SP_L__
 724 0402 FEB7      		in r31,__SP_H__
 725 0404 3196      		adiw r30,1
 726 0406 ADB7      		in r26,__SP_L__
 727 0408 BEB7      		in r27,__SP_H__
 728 040a 1196      		adiw r26,1
 729 040c CD92      		st X+,r12
 730 040e DC92      		st X,r13
 731 0410 1297      		sbiw r26,1+1
 732 0412 6282      		std Z+2,r6
 733 0414 7382      		std Z+3,r7
 734 0416 8881      		ld r24,Y
 735 0418 9981      		ldd r25,Y+1
 736 041a AA81      		ldd r26,Y+2
 737 041c BB81      		ldd r27,Y+3
 738 041e 8483      		std Z+4,r24
 739 0420 9583      		std Z+5,r25
 740 0422 A683      		std Z+6,r26
 741 0424 B783      		std Z+7,r27
 742 0426 0E94 0000 		call fprintf
 743 042a CDB7      		in r28,__SP_L__
 744 042c DEB7      		in r29,__SP_H__
 745 042e 2896      		adiw r28,8
 746 0430 CDBF      		out __SP_L__,r28
 747 0432 DEBF      		out __SP_H__,r29
 748               	.L56:
 749               	.LBE201:
 750               	.LM57:
 751 0434 0F5F      		subi r16,lo8(-(1))
 752 0436 1F4F      		sbci r17,hi8(-(1))
 753 0438 0894      		sec
 754 043a E11C      		adc r14,__zero_reg__
 755 043c F11C      		adc r15,__zero_reg__
 756 043e E401      		movw r28,r8
 757 0440 8881      		ld r24,Y
 758 0442 90E0      		ldi r25,lo8(0)
 759 0444 0817      		cp r16,r24
 760 0446 1907      		cpc r17,r25
 761 0448 04F0      		brlt .+2
 762 044a 00C0      		rjmp .L43
 763               	.L57:
 764               	.LBB202:
 765               	.LM58:
 766 044c A091 0000 		lds r26,arguments
 767 0450 B091 0000 		lds r27,(arguments)+1
 768 0454 E501      		movw r28,r10
 769 0456 E881      		ld r30,Y
 770 0458 F0E0      		ldi r31,lo8(0)
 771 045a EE0F      		lsl r30
 772 045c FF1F      		rol r31
 773 045e EA0F      		add r30,r26
 774 0460 FB1F      		adc r31,r27
 775 0462 2081      		ld r18,Z
 776 0464 C801      		movw r24,r16
 777 0466 880F      		lsl r24
 778 0468 991F      		rol r25
 779 046a A80F      		add r26,r24
 780 046c B91F      		adc r27,r25
 781 046e A20F      		add r26,r18
 782 0470 B11D      		adc r27,__zero_reg__
 783 0472 1196      		adiw r26,1
 784 0474 8C91      		ld r24,X
 785 0476 C82F      		mov r28,r24
 786 0478 D0E0      		ldi r29,lo8(0)
 787 047a 2196      		adiw r28,1
 788 047c CA0D      		add r28,r10
 789 047e DB1D      		adc r29,r11
 790               	.LM59:
 791 0480 0115      		cp r16,__zero_reg__
 792 0482 1105      		cpc r17,__zero_reg__
 793 0484 01F0      		breq .L44
 794               	.LM60:
 795 0486 80E0      		ldi r24,lo8(.LC10)
 796 0488 90E0      		ldi r25,hi8(.LC10)
 797 048a 61E0      		ldi r22,lo8(1)
 798 048c 70E0      		ldi r23,hi8(1)
 799 048e 42E0      		ldi r20,lo8(2)
 800 0490 50E0      		ldi r21,hi8(2)
 801 0492 9601      		movw r18,r12
 802 0494 0E94 0000 		call fwrite
 803               	.L44:
 804               	.LM61:
 805 0498 F701      		movw r30,r14
 806 049a 8081      		ld r24,Z
 807 049c 8430      		cpi r24,lo8(4)
 808 049e 01F4      		brne .+2
 809 04a0 00C0      		rjmp .L50
 810 04a2 8530      		cpi r24,lo8(5)
 811 04a4 00F4      		brsh .+2
 812 04a6 00C0      		rjmp .L62
 813 04a8 8630      		cpi r24,lo8(6)
 814 04aa 01F4      		brne .+2
 815 04ac 00C0      		rjmp .L52
 816 04ae 8630      		cpi r24,lo8(6)
 817 04b0 00F4      		brsh .L63
 818               	.LM62:
 819 04b2 00D0      		rcall .
 820 04b4 00D0      		rcall .
 821 04b6 EDB7      		in r30,__SP_L__
 822 04b8 FEB7      		in r31,__SP_H__
 823 04ba 3196      		adiw r30,1
 824 04bc ADB7      		in r26,__SP_L__
 825 04be BEB7      		in r27,__SP_H__
 826 04c0 1196      		adiw r26,1
 827 04c2 CD92      		st X+,r12
 828 04c4 DC92      		st X,r13
 829 04c6 1297      		sbiw r26,1+1
 830 04c8 80E0      		ldi r24,lo8(.LC16)
 831 04ca 90E0      		ldi r25,hi8(.LC16)
 832 04cc 8283      		std Z+2,r24
 833 04ce 9383      		std Z+3,r25
 834 04d0 8881      		ld r24,Y
 835 04d2 9981      		ldd r25,Y+1
 836 04d4 8483      		std Z+4,r24
 837 04d6 9583      		std Z+5,r25
 838 04d8 0E94 0000 		call fprintf
 839 04dc ADB7      		in r26,__SP_L__
 840 04de BEB7      		in r27,__SP_H__
 841 04e0 1696      		adiw r26,6
 842 04e2 ADBF      		out __SP_L__,r26
 843 04e4 BEBF      		out __SP_H__,r27
 844 04e6 00C0      		rjmp .L56
 845               	.L61:
 846               	.LM63:
 847 04e8 8230      		cpi r24,lo8(2)
 848 04ea 01F4      		brne .+2
 849 04ec 00C0      		rjmp .L48
 850 04ee 8330      		cpi r24,lo8(3)
 851 04f0 01F4      		brne .+2
 852 04f2 00C0      		rjmp .L64
 853               	.L45:
 854               	.LM64:
 855 04f4 80E0      		ldi r24,lo8(.LC19)
 856 04f6 90E0      		ldi r25,hi8(.LC19)
 857 04f8 6BEC      		ldi r22,lo8(1483)
 858 04fa 75E0      		ldi r23,hi8(1483)
 859 04fc 40E0      		ldi r20,lo8(.LC20)
 860 04fe 50E0      		ldi r21,hi8(.LC20)
 861 0500 0E94 0000 		call __myassert
 862 0504 00C0      		rjmp .L56
 863               	.L63:
 864               	.LM65:
 865 0506 8730      		cpi r24,lo8(7)
 866 0508 01F0      		breq .L53
 867 050a 8830      		cpi r24,lo8(8)
 868 050c 01F4      		brne .L45
 869               	.LM66:
 870 050e E881      		ld r30,Y
 871 0510 F981      		ldd r31,Y+1
 872 0512 EE0F      		lsl r30
 873 0514 FF1F      		rol r31
 874 0516 E050      		subi r30,lo8(-(tuple_names))
 875 0518 F040      		sbci r31,hi8(-(tuple_names))
 876 051a 8081      		ld r24,Z
 877 051c 9181      		ldd r25,Z+1
 878 051e B601      		movw r22,r12
 879 0520 0E94 0000 		call fputs
 880 0524 00C0      		rjmp .L56
 881               	.L53:
 882               	.LM67:
 883 0526 A881      		ld r26,Y
 884 0528 B981      		ldd r27,Y+1
 885 052a CDB7      		in r28,__SP_L__
 886 052c DEB7      		in r29,__SP_H__
 887 052e 2897      		sbiw r28,8
 888 0530 CDBF      		out __SP_L__,r28
 889 0532 DEBF      		out __SP_H__,r29
 890 0534 EDB7      		in r30,__SP_L__
 891 0536 FEB7      		in r31,__SP_H__
 892 0538 3196      		adiw r30,1
 893 053a C982      		std Y+1,r12
 894 053c DA82      		std Y+2,r13
 895 053e 80E0      		ldi r24,lo8(.LC18)
 896 0540 90E0      		ldi r25,hi8(.LC18)
 897 0542 8283      		std Z+2,r24
 898 0544 9383      		std Z+3,r25
 899 0546 1296      		adiw r26,2
 900 0548 8D91      		ld r24,X+
 901 054a 9C91      		ld r25,X
 902 054c 1397      		sbiw r26,2+1
 903               	.L60:
 904               	.LM68:
 905 054e 8483      		std Z+4,r24
 906 0550 9583      		std Z+5,r25
 907 0552 A683      		std Z+6,r26
 908 0554 B783      		std Z+7,r27
 909 0556 0E94 0000 		call fprintf
 910 055a ADB7      		in r26,__SP_L__
 911 055c BEB7      		in r27,__SP_H__
 912 055e 1896      		adiw r26,8
 913 0560 ADBF      		out __SP_L__,r26
 914 0562 BEBF      		out __SP_H__,r27
 915 0564 00C0      		rjmp .L56
 916               	.L47:
 917               	.LM69:
 918 0566 EDB7      		in r30,__SP_L__
 919 0568 FEB7      		in r31,__SP_H__
 920 056a 3897      		sbiw r30,8
 921 056c EDBF      		out __SP_L__,r30
 922 056e FEBF      		out __SP_H__,r31
 923 0570 3196      		adiw r30,1
 924 0572 ADB7      		in r26,__SP_L__
 925 0574 BEB7      		in r27,__SP_H__
 926 0576 1196      		adiw r26,1
 927 0578 CD92      		st X+,r12
 928 057a DC92      		st X,r13
 929 057c 1297      		sbiw r26,1+1
 930 057e 80E0      		ldi r24,lo8(.LC12)
 931 0580 90E0      		ldi r25,hi8(.LC12)
 932 0582 8283      		std Z+2,r24
 933 0584 9383      		std Z+3,r25
 934 0586 8881      		ld r24,Y
 935 0588 9981      		ldd r25,Y+1
 936 058a AA81      		ldd r26,Y+2
 937 058c BB81      		ldd r27,Y+3
 938 058e 8483      		std Z+4,r24
 939 0590 9583      		std Z+5,r25
 940 0592 A683      		std Z+6,r26
 941 0594 B783      		std Z+7,r27
 942 0596 0E94 0000 		call fprintf
 943 059a ADB7      		in r26,__SP_L__
 944 059c BEB7      		in r27,__SP_H__
 945 059e 1896      		adiw r26,8
 946 05a0 ADBF      		out __SP_L__,r26
 947 05a2 BEBF      		out __SP_H__,r27
 948 05a4 00C0      		rjmp .L56
 949               	.L52:
 950               	.LM70:
 951 05a6 A881      		ld r26,Y
 952 05a8 B981      		ldd r27,Y+1
 953 05aa CDB7      		in r28,__SP_L__
 954 05ac DEB7      		in r29,__SP_H__
 955 05ae 2897      		sbiw r28,8
 956 05b0 CDBF      		out __SP_L__,r28
 957 05b2 DEBF      		out __SP_H__,r29
 958 05b4 EDB7      		in r30,__SP_L__
 959 05b6 FEB7      		in r31,__SP_H__
 960 05b8 3196      		adiw r30,1
 961 05ba C982      		std Y+1,r12
 962 05bc DA82      		std Y+2,r13
 963 05be 80E0      		ldi r24,lo8(.LC17)
 964 05c0 90E0      		ldi r25,hi8(.LC17)
 965 05c2 8283      		std Z+2,r24
 966 05c4 9383      		std Z+3,r25
 967 05c6 1296      		adiw r26,2
 968 05c8 8D91      		ld r24,X+
 969 05ca 9C91      		ld r25,X
 970 05cc 1397      		sbiw r26,2+1
 971 05ce 00C0      		rjmp .L60
 972               	.L50:
 973               	.LM71:
 974 05d0 A881      		ld r26,Y
 975 05d2 B981      		ldd r27,Y+1
 976 05d4 8DB7      		in r24,__SP_L__
 977 05d6 9EB7      		in r25,__SP_H__
 978 05d8 0897      		sbiw r24,8
 979 05da 8DBF      		out __SP_L__,r24
 980 05dc 9EBF      		out __SP_H__,r25
 981 05de EDB7      		in r30,__SP_L__
 982 05e0 FEB7      		in r31,__SP_H__
 983 05e2 3196      		adiw r30,1
 984 05e4 CDB7      		in r28,__SP_L__
 985 05e6 DEB7      		in r29,__SP_H__
 986 05e8 C982      		std Y+1,r12
 987 05ea DA82      		std Y+2,r13
 988 05ec 80E0      		ldi r24,lo8(.LC15)
 989 05ee 90E0      		ldi r25,hi8(.LC15)
 990 05f0 8283      		std Z+2,r24
 991 05f2 9383      		std Z+3,r25
 992 05f4 1496      		adiw r26,4
 993 05f6 8D91      		ld r24,X+
 994 05f8 9C91      		ld r25,X
 995 05fa 1597      		sbiw r26,4+1
 996 05fc 00C0      		rjmp .L60
 997               	.L64:
 998               	.LM72:
 999 05fe A881      		ld r26,Y
 1000 0600 B981      		ldd r27,Y+1
 1001 0602 EDB7      		in r30,__SP_L__
 1002 0604 FEB7      		in r31,__SP_H__
 1003 0606 3897      		sbiw r30,8
 1004 0608 EDBF      		out __SP_L__,r30
 1005 060a FEBF      		out __SP_H__,r31
 1006 060c 3196      		adiw r30,1
 1007 060e CDB7      		in r28,__SP_L__
 1008 0610 DEB7      		in r29,__SP_H__
 1009 0612 C982      		std Y+1,r12
 1010 0614 DA82      		std Y+2,r13
 1011 0616 2282      		std Z+2,r2
 1012 0618 3382      		std Z+3,r3
 1013 061a 1496      		adiw r26,4
 1014 061c 8D91      		ld r24,X+
 1015 061e 9C91      		ld r25,X
 1016 0620 1597      		sbiw r26,4+1
 1017 0622 8483      		std Z+4,r24
 1018 0624 9583      		std Z+5,r25
 1019 0626 A683      		std Z+6,r26
 1020 0628 B783      		std Z+7,r27
 1021 062a 0E94 0000 		call fprintf
 1022 062e EDB7      		in r30,__SP_L__
 1023 0630 FEB7      		in r31,__SP_H__
 1024 0632 3896      		adiw r30,8
 1025 0634 EDBF      		out __SP_L__,r30
 1026 0636 FEBF      		out __SP_H__,r31
 1027 0638 00C0      		rjmp .L56
 1028               	.L48:
 1029               	.LM73:
 1030 063a 00D0      		rcall .
 1031 063c 00D0      		rcall .
 1032 063e EDB7      		in r30,__SP_L__
 1033 0640 FEB7      		in r31,__SP_H__
 1034 0642 3196      		adiw r30,1
 1035 0644 ADB7      		in r26,__SP_L__
 1036 0646 BEB7      		in r27,__SP_H__
 1037 0648 1196      		adiw r26,1
 1038 064a CD92      		st X+,r12
 1039 064c DC92      		st X,r13
 1040 064e 1297      		sbiw r26,1+1
 1041 0650 4282      		std Z+2,r4
 1042 0652 5382      		std Z+3,r5
 1043 0654 8881      		ld r24,Y
 1044 0656 9981      		ldd r25,Y+1
 1045 0658 8483      		std Z+4,r24
 1046 065a 9583      		std Z+5,r25
 1047 065c 0E94 0000 		call fprintf
 1048 0660 CDB7      		in r28,__SP_L__
 1049 0662 DEB7      		in r29,__SP_H__
 1050 0664 2696      		adiw r28,6
 1051 0666 CDBF      		out __SP_L__,r28
 1052 0668 DEBF      		out __SP_H__,r29
 1053 066a 00C0      		rjmp .L56
 1054               	.L43:
 1055               	.LBE202:
 1056               	.LM74:
 1057 066c 89E2      		ldi r24,lo8(41)
 1058 066e 90E0      		ldi r25,hi8(41)
 1059 0670 B601      		movw r22,r12
 1060 0672 0E94 0000 		call fputc
 1061               	/* epilogue start */
 1062               	.LM75:
 1063 0676 DF91      		pop r29
 1064 0678 CF91      		pop r28
 1065 067a 1F91      		pop r17
 1066 067c 0F91      		pop r16
 1067 067e FF90      		pop r15
 1068 0680 EF90      		pop r14
 1069 0682 DF90      		pop r13
 1070 0684 CF90      		pop r12
 1071 0686 BF90      		pop r11
 1072 0688 AF90      		pop r10
 1073 068a 9F90      		pop r9
 1074 068c 8F90      		pop r8
 1075 068e 7F90      		pop r7
 1076 0690 6F90      		pop r6
 1077 0692 5F90      		pop r5
 1078 0694 4F90      		pop r4
 1079 0696 3F90      		pop r3
 1080 0698 2F90      		pop r2
 1081 069a 0895      		ret
 1082               	.LFE46:
 1084               		.data
 1085               	.LC21:
 1086 0113 7475 706C 		.string	"tuple %s (type %d)\n"
 1086      6520 2573 
 1086      2028 7479 
 1086      7065 2025 
 1086      6429 0A00 
 1087               	.LC22:
 1088 0127 2020 00   		.string	"  "
 1089               	.LC23:
 1090 012a 7825 640A 		.string	"x%d\n"
 1090      00
 1091               		.text
 1092               	.global	facts_dump
 1094               	facts_dump:
 1095               	.LFB47:
 1096               	.LM76:
 1097 069c 6F92      		push r6
 1098 069e 7F92      		push r7
 1099 06a0 8F92      		push r8
 1100 06a2 9F92      		push r9
 1101 06a4 AF92      		push r10
 1102 06a6 BF92      		push r11
 1103 06a8 CF92      		push r12
 1104 06aa DF92      		push r13
 1105 06ac EF92      		push r14
 1106 06ae FF92      		push r15
 1107 06b0 0F93      		push r16
 1108 06b2 1F93      		push r17
 1109 06b4 CF93      		push r28
 1110 06b6 DF93      		push r29
 1111               	/* prologue: function */
 1112               	/* frame size = 0 */
 1113               	.LM77:
 1114 06b8 8091 0000 		lds r24,meld_prog
 1115 06bc 882E      		mov r8,r24
 1116 06be 9924      		clr r9
 1117 06c0 8114      		cp r8,__zero_reg__
 1118 06c2 9104      		cpc r9,__zero_reg__
 1119 06c4 01F4      		brne .+2
 1120 06c6 00C0      		rjmp .L70
 1121 06c8 20E0      		ldi r18,lo8(tuple_names)
 1122 06ca C22E      		mov r12,r18
 1123 06cc 20E0      		ldi r18,hi8(tuple_names)
 1124 06ce D22E      		mov r13,r18
 1125 06d0 EE24      		clr r14
 1126 06d2 FF24      		clr r15
 1127 06d4 00E0      		ldi r16,lo8(0)
 1128 06d6 10E0      		ldi r17,hi8(0)
 1129               	.LBB203:
 1130               	.LM78:
 1131 06d8 90E0      		ldi r25,lo8(.LC21)
 1132 06da 692E      		mov r6,r25
 1133 06dc 90E0      		ldi r25,hi8(.LC21)
 1134 06de 792E      		mov r7,r25
 1135 06e0 80E0      		ldi r24,lo8(.LC23)
 1136 06e2 A82E      		mov r10,r24
 1137 06e4 80E0      		ldi r24,hi8(.LC23)
 1138 06e6 B82E      		mov r11,r24
 1139               	.L69:
 1140               	.LM79:
 1141 06e8 E091 0000 		lds r30,tuples
 1142 06ec F091 0000 		lds r31,(tuples)+1
 1143 06f0 E00F      		add r30,r16
 1144 06f2 F11F      		adc r31,r17
 1145 06f4 8081      		ld r24,Z
 1146 06f6 9181      		ldd r25,Z+1
 1147 06f8 892B      		or r24,r25
 1148 06fa 01F4      		brne .+2
 1149 06fc 00C0      		rjmp .L67
 1150               	.LM80:
 1151 06fe 8DB7      		in r24,__SP_L__
 1152 0700 9EB7      		in r25,__SP_H__
 1153 0702 0897      		sbiw r24,8
 1154 0704 8DBF      		out __SP_L__,r24
 1155 0706 9EBF      		out __SP_H__,r25
 1156 0708 EDB7      		in r30,__SP_L__
 1157 070a FEB7      		in r31,__SP_H__
 1158 070c 3196      		adiw r30,1
 1159 070e 8091 0000 		lds r24,__iob+4
 1160 0712 9091 0000 		lds r25,(__iob+4)+1
 1161 0716 ADB7      		in r26,__SP_L__
 1162 0718 BEB7      		in r27,__SP_H__
 1163 071a 1196      		adiw r26,1
 1164 071c 8D93      		st X+,r24
 1165 071e 9C93      		st X,r25
 1166 0720 1297      		sbiw r26,1+1
 1167 0722 6282      		std Z+2,r6
 1168 0724 7382      		std Z+3,r7
 1169 0726 D601      		movw r26,r12
 1170 0728 8D91      		ld r24,X+
 1171 072a 9C91      		ld r25,X
 1172 072c 8483      		std Z+4,r24
 1173 072e 9583      		std Z+5,r25
 1174 0730 E682      		std Z+6,r14
 1175 0732 F782      		std Z+7,r15
 1176 0734 0E94 0000 		call fprintf
 1177               	.LM81:
 1178 0738 E091 0000 		lds r30,tuples
 1179 073c F091 0000 		lds r31,(tuples)+1
 1180 0740 E00F      		add r30,r16
 1181 0742 F11F      		adc r31,r17
 1182 0744 C081      		ld r28,Z
 1183 0746 D181      		ldd r29,Z+1
 1184 0748 8DB7      		in r24,__SP_L__
 1185 074a 9EB7      		in r25,__SP_H__
 1186 074c 0896      		adiw r24,8
 1187 074e 8DBF      		out __SP_L__,r24
 1188 0750 9EBF      		out __SP_H__,r25
 1189 0752 2097      		sbiw r28,0
 1190 0754 01F0      		breq .L67
 1191               	.L68:
 1192               	.LM82:
 1193 0756 2091 0000 		lds r18,__iob+4
 1194 075a 3091 0000 		lds r19,(__iob+4)+1
 1195 075e 80E0      		ldi r24,lo8(.LC22)
 1196 0760 90E0      		ldi r25,hi8(.LC22)
 1197 0762 61E0      		ldi r22,lo8(1)
 1198 0764 70E0      		ldi r23,hi8(1)
 1199 0766 42E0      		ldi r20,lo8(2)
 1200 0768 50E0      		ldi r21,hi8(2)
 1201 076a 0E94 0000 		call fwrite
 1202               	.LM83:
 1203 076e 6091 0000 		lds r22,__iob+4
 1204 0772 7091 0000 		lds r23,(__iob+4)+1
 1205 0776 8C81      		ldd r24,Y+4
 1206 0778 9D81      		ldd r25,Y+5
 1207 077a 0E94 0000 		call tuple_print
 1208               	.LM84:
 1209 077e 00D0      		rcall .
 1210 0780 00D0      		rcall .
 1211 0782 EDB7      		in r30,__SP_L__
 1212 0784 FEB7      		in r31,__SP_H__
 1213 0786 3196      		adiw r30,1
 1214 0788 8091 0000 		lds r24,__iob+4
 1215 078c 9091 0000 		lds r25,(__iob+4)+1
 1216 0790 ADB7      		in r26,__SP_L__
 1217 0792 BEB7      		in r27,__SP_H__
 1218 0794 1196      		adiw r26,1
 1219 0796 8D93      		st X+,r24
 1220 0798 9C93      		st X,r25
 1221 079a 1297      		sbiw r26,1+1
 1222 079c A282      		std Z+2,r10
 1223 079e B382      		std Z+3,r11
 1224 07a0 8A81      		ldd r24,Y+2
 1225 07a2 9B81      		ldd r25,Y+3
 1226 07a4 8483      		std Z+4,r24
 1227 07a6 9583      		std Z+5,r25
 1228 07a8 0E94 0000 		call fprintf
 1229               	.LM85:
 1230 07ac 0990      		ld __tmp_reg__,Y+
 1231 07ae D881      		ld r29,Y
 1232 07b0 C02D      		mov r28,__tmp_reg__
 1233 07b2 8DB7      		in r24,__SP_L__
 1234 07b4 9EB7      		in r25,__SP_H__
 1235 07b6 0696      		adiw r24,6
 1236 07b8 8DBF      		out __SP_L__,r24
 1237 07ba 9EBF      		out __SP_H__,r25
 1238 07bc 2097      		sbiw r28,0
 1239 07be 01F4      		brne .L68
 1240               	.L67:
 1241               	.LBE203:
 1242               	.LM86:
 1243 07c0 0894      		sec
 1244 07c2 E11C      		adc r14,__zero_reg__
 1245 07c4 F11C      		adc r15,__zero_reg__
 1246 07c6 0C5F      		subi r16,lo8(-(4))
 1247 07c8 1F4F      		sbci r17,hi8(-(4))
 1248 07ca A2E0      		ldi r26,lo8(2)
 1249 07cc B0E0      		ldi r27,hi8(2)
 1250 07ce CA0E      		add r12,r26
 1251 07d0 DB1E      		adc r13,r27
 1252 07d2 E814      		cp r14,r8
 1253 07d4 F904      		cpc r15,r9
 1254 07d6 04F4      		brge .+2
 1255 07d8 00C0      		rjmp .L69
 1256               	.L70:
 1257               	/* epilogue start */
 1258               	.LM87:
 1259 07da DF91      		pop r29
 1260 07dc CF91      		pop r28
 1261 07de 1F91      		pop r17
 1262 07e0 0F91      		pop r16
 1263 07e2 FF90      		pop r15
 1264 07e4 EF90      		pop r14
 1265 07e6 DF90      		pop r13
 1266 07e8 CF90      		pop r12
 1267 07ea BF90      		pop r11
 1268 07ec AF90      		pop r10
 1269 07ee 9F90      		pop r9
 1270 07f0 8F90      		pop r8
 1271 07f2 7F90      		pop r7
 1272 07f4 6F90      		pop r6
 1273 07f6 0895      		ret
 1274               	.LFE47:
 1276               	.global	init_fields
 1278               	init_fields:
 1279               	.LFB31:
 1280               	.LM88:
 1281 07f8 2F92      		push r2
 1282 07fa 3F92      		push r3
 1283 07fc 4F92      		push r4
 1284 07fe 5F92      		push r5
 1285 0800 6F92      		push r6
 1286 0802 7F92      		push r7
 1287 0804 8F92      		push r8
 1288 0806 9F92      		push r9
 1289 0808 BF92      		push r11
 1290 080a CF92      		push r12
 1291 080c DF92      		push r13
 1292 080e EF92      		push r14
 1293 0810 FF92      		push r15
 1294 0812 0F93      		push r16
 1295 0814 1F93      		push r17
 1296 0816 CF93      		push r28
 1297 0818 DF93      		push r29
 1298               	/* prologue: function */
 1299               	/* frame size = 0 */
 1300               	.LM89:
 1301 081a 8091 0000 		lds r24,meld_prog
 1302 081e 90E0      		ldi r25,lo8(0)
 1303 0820 EC01      		movw r28,r24
 1304               	.LVL22:
 1305 0822 CC0F      		lsl r28
 1306 0824 DD1F      		rol r29
 1307               	.LM90:
 1308 0826 0097      		sbiw r24,0
 1309 0828 01F4      		brne .+2
 1310 082a 00C0      		rjmp .L74
 1311 082c 70E0      		ldi r23,lo8(meld_prog+1)
 1312 082e 472E      		mov r4,r23
 1313 0830 70E0      		ldi r23,hi8(meld_prog+1)
 1314 0832 572E      		mov r5,r23
 1315 0834 9E01      		movw r18,r28
 1316 0836 D201      		movw r26,r4
 1317 0838 AC01      		movw r20,r24
 1318 083a 440D      		add r20,r4
 1319 083c 551D      		adc r21,r5
 1320               	.LVL23:
 1321               	.L75:
 1322               	.LM91:
 1323 083e ED91      		ld r30,X+
 1324 0840 F0E0      		ldi r31,lo8(0)
 1325 0842 E050      		subi r30,lo8(-(meld_prog))
 1326 0844 F040      		sbci r31,hi8(-(meld_prog))
 1327 0846 8581      		ldd r24,Z+5
 1328 0848 90E0      		ldi r25,lo8(0)
 1329 084a 880F      		lsl r24
 1330 084c 991F      		rol r25
 1331 084e 280F      		add r18,r24
 1332 0850 391F      		adc r19,r25
 1333               	.LM92:
 1334 0852 A417      		cp r26,r20
 1335 0854 B507      		cpc r27,r21
 1336 0856 01F4      		brne .L75
 1337               	.LM93:
 1338 0858 C901      		movw r24,r18
 1339 085a 0E94 0000 		call malloc
 1340               	.LVL24:
 1341 085e 8093 0000 		sts arguments,r24
 1342 0862 9093 0000 		sts (arguments)+1,r25
 1343               	.LM94:
 1344 0866 8C01      		movw r16,r24
 1345               	.LVL25:
 1346 0868 0C0F      		add r16,r28
 1347 086a 1D1F      		adc r17,r29
 1348               	.LVL26:
 1349 086c 8824      		clr r8
 1350 086e 9924      		clr r9
 1351               	.LVL27:
 1352 0870 41E0      		ldi r20,lo8(1)
 1353 0872 642E      		mov r6,r20
 1354 0874 712C      		mov r7,__zero_reg__
 1355               	.LM95:
 1356 0876 8091 0000 		lds r24,meld_prog
 1357 087a 282E      		mov r2,r24
 1358 087c 3324      		clr r3
 1359               	.LVL28:
 1360               	.L84:
 1361               	.LM96:
 1362 087e 8091 0000 		lds r24,arguments
 1363 0882 9091 0000 		lds r25,(arguments)+1
 1364 0886 F401      		movw r30,r8
 1365 0888 EE0F      		lsl r30
 1366 088a FF1F      		rol r31
 1367 088c E80F      		add r30,r24
 1368 088e F91F      		adc r31,r25
 1369 0890 202F      		mov r18,r16
 1370               	.LVL29:
 1371 0892 281B      		sub r18,r24
 1372 0894 2083      		st Z,r18
 1373               	.LM97:
 1374 0896 0894      		sec
 1375 0898 811C      		adc r8,__zero_reg__
 1376 089a 911C      		adc r9,__zero_reg__
 1377 089c D201      		movw r26,r4
 1378 089e 8C91      		ld r24,X
 1379 08a0 E82F      		mov r30,r24
 1380 08a2 F0E0      		ldi r31,lo8(0)
 1381 08a4 E050      		subi r30,lo8(-(meld_prog))
 1382 08a6 F040      		sbci r31,hi8(-(meld_prog))
 1383 08a8 9F01      		movw r18,r30
 1384 08aa 2B5F      		subi r18,lo8(-(5))
 1385 08ac 3F4F      		sbci r19,hi8(-(5))
 1386 08ae 8581      		ldd r24,Z+5
 1387 08b0 8823      		tst r24
 1388 08b2 01F4      		brne .+2
 1389 08b4 00C0      		rjmp .L91
 1390 08b6 C0E0      		ldi r28,lo8(0)
 1391 08b8 D0E0      		ldi r29,hi8(0)
 1392               	.LVL30:
 1393 08ba FF24      		clr r15
 1394 08bc CF01      		movw r24,r30
 1395 08be BE2E      		mov r11,r30
 1396 08c0 E92E      		mov r14,r25
 1397 08c2 6901      		movw r12,r18
 1398               	.LVL31:
 1399               	.L83:
 1400               	.LM98:
 1401 08c4 EC0F      		add r30,r28
 1402 08c6 FD1F      		adc r31,r29
 1403 08c8 8781      		ldd r24,Z+7
 1404 08ca 8093 0000 		sts type,r24
 1405 08ce 1092 0000 		sts type+1,__zero_reg__
 1406               	.LM99:
 1407 08d2 8830      		cpi r24,lo8(8)
 1408 08d4 00F4      		brsh .L81
 1409 08d6 8230      		cpi r24,lo8(2)
 1410 08d8 00F0      		brlo .L79
 1411 08da 82E0      		ldi r24,lo8(2)
 1412               	.LVL32:
 1413               	.L82:
 1414               	.LM100:
 1415 08dc F801      		movw r30,r16
 1416 08de 8083      		st Z,r24
 1417               	.LM101:
 1418 08e0 F182      		std Z+1,r15
 1419               	.LM102:
 1420 08e2 F80E      		add r15,r24
 1421               	.LM103:
 1422 08e4 0E5F      		subi r16,lo8(-(2))
 1423 08e6 1F4F      		sbci r17,hi8(-(2))
 1424               	.LM104:
 1425 08e8 2196      		adiw r28,1
 1426 08ea 8B2D      		mov r24,r11
 1427               	.LVL33:
 1428 08ec 9E2D      		mov r25,r14
 1429 08ee FC01      		movw r30,r24
 1430 08f0 D601      		movw r26,r12
 1431 08f2 8C91      		ld r24,X
 1432 08f4 90E0      		ldi r25,lo8(0)
 1433 08f6 C817      		cp r28,r24
 1434 08f8 D907      		cpc r29,r25
 1435 08fa 04F0      		brlt .L83
 1436 08fc 8F2D      		mov r24,r15
 1437 08fe 8F5F      		subi r24,lo8(-(1))
 1438               	.LVL34:
 1439               	.L77:
 1440               	.LM105:
 1441 0900 E091 0000 		lds r30,arguments
 1442 0904 F091 0000 		lds r31,(arguments)+1
 1443 0908 E60D      		add r30,r6
 1444 090a F71D      		adc r31,r7
 1445 090c 8083      		st Z,r24
 1446 090e 0894      		sec
 1447 0910 411C      		adc r4,__zero_reg__
 1448 0912 511C      		adc r5,__zero_reg__
 1449 0914 E2E0      		ldi r30,lo8(2)
 1450 0916 F0E0      		ldi r31,hi8(2)
 1451 0918 6E0E      		add r6,r30
 1452 091a 7F1E      		adc r7,r31
 1453               	.LM106:
 1454 091c 8214      		cp r8,r2
 1455 091e 9304      		cpc r9,r3
 1456 0920 04F4      		brge .+2
 1457 0922 00C0      		rjmp .L84
 1458               	.L86:
 1459               	/* epilogue start */
 1460               	.LM107:
 1461 0924 DF91      		pop r29
 1462 0926 CF91      		pop r28
 1463               	.LVL35:
 1464 0928 1F91      		pop r17
 1465 092a 0F91      		pop r16
 1466               	.LVL36:
 1467 092c FF90      		pop r15
 1468               	.LVL37:
 1469 092e EF90      		pop r14
 1470 0930 DF90      		pop r13
 1471 0932 CF90      		pop r12
 1472 0934 BF90      		pop r11
 1473 0936 9F90      		pop r9
 1474 0938 8F90      		pop r8
 1475               	.LVL38:
 1476 093a 7F90      		pop r7
 1477 093c 6F90      		pop r6
 1478 093e 5F90      		pop r5
 1479 0940 4F90      		pop r4
 1480 0942 3F90      		pop r3
 1481 0944 2F90      		pop r2
 1482 0946 0895      		ret
 1483               	.LVL39:
 1484               	.L79:
 1485               	.LM108:
 1486 0948 84E0      		ldi r24,lo8(4)
 1487               	.LVL40:
 1488 094a 00C0      		rjmp .L82
 1489               	.LVL41:
 1490               	.L81:
 1491 094c 8830      		cpi r24,lo8(8)
 1492 094e 01F0      		breq .L79
 1493               	.LM109:
 1494 0950 80E0      		ldi r24,lo8(.LC19)
 1495 0952 90E0      		ldi r25,hi8(.LC19)
 1496 0954 6BEC      		ldi r22,lo8(203)
 1497 0956 70E0      		ldi r23,hi8(203)
 1498 0958 40E0      		ldi r20,lo8(.LC20)
 1499 095a 50E0      		ldi r21,hi8(.LC20)
 1500 095c 0E94 0000 		call __myassert
 1501 0960 80E0      		ldi r24,lo8(0)
 1502               	.LVL42:
 1503 0962 00C0      		rjmp .L82
 1504               	.LVL43:
 1505               	.L91:
 1506               	.LM110:
 1507 0964 81E0      		ldi r24,lo8(1)
 1508 0966 00C0      		rjmp .L77
 1509               	.LVL44:
 1510               	.L74:
 1511               	.LM111:
 1512 0968 CE01      		movw r24,r28
 1513 096a 0E94 0000 		call malloc
 1514 096e 8093 0000 		sts arguments,r24
 1515 0972 9093 0000 		sts arguments+1,r25
 1516 0976 00C0      		rjmp .L86
 1517               	.LFE31:
 1519               	.global	init_deltas
 1521               	init_deltas:
 1522               	.LFB30:
 1523               	.LM112:
 1524 0978 AF92      		push r10
 1525 097a BF92      		push r11
 1526 097c CF92      		push r12
 1527 097e DF92      		push r13
 1528 0980 EF92      		push r14
 1529 0982 FF92      		push r15
 1530 0984 0F93      		push r16
 1531 0986 1F93      		push r17
 1532 0988 CF93      		push r28
 1533 098a DF93      		push r29
 1534               	/* prologue: function */
 1535               	/* frame size = 0 */
 1536               	.LM113:
 1537 098c F090 0000 		lds r15,meld_prog
 1538 0990 AF2C      		mov r10,r15
 1539 0992 BB24      		clr r11
 1540 0994 8501      		movw r16,r10
 1541 0996 000F      		lsl r16
 1542 0998 111F      		rol r17
 1543 099a C801      		movw r24,r16
 1544 099c 0E94 0000 		call malloc
 1545 09a0 8093 0000 		sts deltas,r24
 1546 09a4 9093 0000 		sts deltas+1,r25
 1547               	.LM114:
 1548 09a8 C801      		movw r24,r16
 1549 09aa 0E94 0000 		call malloc
 1550 09ae EC01      		movw r28,r24
 1551 09b0 8093 0000 		sts delta_sizes,r24
 1552 09b4 9093 0000 		sts (delta_sizes)+1,r25
 1553               	.LM115:
 1554 09b8 FF20      		tst r15
 1555 09ba 01F0      		breq .L95
 1556               	.LM116:
 1557 09bc C090 0000 		lds r12,deltas
 1558 09c0 D090 0000 		lds r13,(deltas)+1
 1559 09c4 00E0      		ldi r16,lo8(meld_prog+1)
 1560 09c6 10E0      		ldi r17,hi8(meld_prog+1)
 1561 09c8 60E0      		ldi r22,lo8(0)
 1562 09ca 70E0      		ldi r23,hi8(0)
 1563               	.LVL45:
 1564 09cc 40E0      		ldi r20,lo8(0)
 1565 09ce 50E0      		ldi r21,hi8(0)
 1566               	.LM117:
 1567 09d0 7501      		movw r14,r10
 1568               	.L94:
 1569               	.LM118:
 1570 09d2 6F5F      		subi r22,lo8(-(1))
 1571 09d4 7F4F      		sbci r23,hi8(-(1))
 1572 09d6 FE01      		movw r30,r28
 1573 09d8 E40F      		add r30,r20
 1574 09da F51F      		adc r31,r21
 1575 09dc D801      		movw r26,r16
 1576 09de 8D91      		ld r24,X+
 1577 09e0 8D01      		movw r16,r26
 1578 09e2 90E0      		ldi r25,lo8(0)
 1579 09e4 DC01      		movw r26,r24
 1580 09e6 A050      		subi r26,lo8(-(meld_prog))
 1581 09e8 B040      		sbci r27,hi8(-(meld_prog))
 1582 09ea 1696      		adiw r26,6
 1583 09ec 2C91      		ld r18,X
 1584 09ee 1697      		sbiw r26,6
 1585 09f0 2083      		st Z,r18
 1586 09f2 1182      		std Z+1,__zero_reg__
 1587               	.LM119:
 1588 09f4 F601      		movw r30,r12
 1589 09f6 E40F      		add r30,r20
 1590 09f8 F51F      		adc r31,r21
 1591 09fa 0796      		adiw r24,7
 1592 09fc 1596      		adiw r26,5
 1593 09fe 2C91      		ld r18,X
 1594 0a00 820F      		add r24,r18
 1595 0a02 911D      		adc r25,__zero_reg__
 1596 0a04 8050      		subi r24,lo8(-(meld_prog))
 1597 0a06 9040      		sbci r25,hi8(-(meld_prog))
 1598 0a08 8083      		st Z,r24
 1599 0a0a 9183      		std Z+1,r25
 1600 0a0c 4E5F      		subi r20,lo8(-(2))
 1601 0a0e 5F4F      		sbci r21,hi8(-(2))
 1602               	.LM120:
 1603 0a10 6E15      		cp r22,r14
 1604 0a12 7F05      		cpc r23,r15
 1605 0a14 04F0      		brlt .L94
 1606               	.L95:
 1607               	/* epilogue start */
 1608               	.LM121:
 1609 0a16 DF91      		pop r29
 1610 0a18 CF91      		pop r28
 1611 0a1a 1F91      		pop r17
 1612 0a1c 0F91      		pop r16
 1613 0a1e FF90      		pop r15
 1614 0a20 EF90      		pop r14
 1615 0a22 DF90      		pop r13
 1616 0a24 CF90      		pop r12
 1617 0a26 BF90      		pop r11
 1618 0a28 AF90      		pop r10
 1619 0a2a 0895      		ret
 1620               	.LFE30:
 1622               	.global	p_enqueue
 1624               	p_enqueue:
 1625               	.LFB29:
 1626               	.LM122:
 1627               	.LVL46:
 1628 0a2c 6F92      		push r6
 1629 0a2e 7F92      		push r7
 1630 0a30 8F92      		push r8
 1631 0a32 9F92      		push r9
 1632 0a34 AF92      		push r10
 1633 0a36 BF92      		push r11
 1634 0a38 CF92      		push r12
 1635 0a3a DF92      		push r13
 1636 0a3c EF92      		push r14
 1637               	.LVL47:
 1638 0a3e FF92      		push r15
 1639 0a40 0F93      		push r16
 1640               	.LVL48:
 1641 0a42 1F93      		push r17
 1642 0a44 CF93      		push r28
 1643 0a46 DF93      		push r29
 1644               	/* prologue: function */
 1645               	/* frame size = 0 */
 1646 0a48 B82E      		mov r11,r24
 1647 0a4a A92E      		mov r10,r25
 1648               	.LVL49:
 1649 0a4c 3A01      		movw r6,r20
 1650 0a4e 4B01      		movw r8,r22
 1651 0a50 6901      		movw r12,r18
 1652               	.LM123:
 1653 0a52 8CE0      		ldi r24,lo8(12)
 1654 0a54 90E0      		ldi r25,hi8(12)
 1655               	.LVL50:
 1656 0a56 0E94 0000 		call malloc
 1657               	.LVL51:
 1658 0a5a 9C01      		movw r18,r24
 1659               	.LM124:
 1660 0a5c DC01      		movw r26,r24
 1661               	.LVL52:
 1662 0a5e 1896      		adiw r26,8
 1663 0a60 CD92      		st X+,r12
 1664 0a62 DC92      		st X,r13
 1665 0a64 1997      		sbiw r26,8+1
 1666               	.LM125:
 1667 0a66 1696      		adiw r26,6
 1668 0a68 ED92      		st X+,r14
 1669 0a6a FC92      		st X,r15
 1670 0a6c 1797      		sbiw r26,6+1
 1671               	.LVL53:
 1672               	.LM126:
 1673 0a6e FC01      		movw r30,r24
 1674 0a70 6082      		st Z,r6
 1675 0a72 7182      		std Z+1,r7
 1676 0a74 8282      		std Z+2,r8
 1677 0a76 9382      		std Z+3,r9
 1678               	.LM127:
 1679 0a78 0287      		std Z+10,r16
 1680 0a7a 1387      		std Z+11,r17
 1681               	.LVL54:
 1682               	.LM128:
 1683 0a7c 8B2D      		mov r24,r11
 1684               	.LVL55:
 1685 0a7e 9A2D      		mov r25,r10
 1686               	.LVL56:
 1687 0a80 EC01      		movw r28,r24
 1688 0a82 E881      		ld r30,Y
 1689 0a84 F981      		ldd r31,Y+1
 1690               	.LM129:
 1691 0a86 3097      		sbiw r30,0
 1692 0a88 01F4      		brne .L103
 1693               	.LVL57:
 1694 0a8a 00C0      		rjmp .L98
 1695               	.LVL58:
 1696               	.L104:
 1697               	.LM130:
 1698 0a8c EF01      		movw r28,r30
 1699 0a8e 2496      		adiw r28,4
 1700 0a90 0480      		ldd __tmp_reg__,Z+4
 1701 0a92 F581      		ldd r31,Z+5
 1702 0a94 E02D      		mov r30,__tmp_reg__
 1703               	.LM131:
 1704 0a96 3097      		sbiw r30,0
 1705 0a98 01F0      		breq .L98
 1706               	.LVL59:
 1707               	.L103:
 1708 0a9a 8081      		ld r24,Z
 1709 0a9c 9181      		ldd r25,Z+1
 1710 0a9e A281      		ldd r26,Z+2
 1711 0aa0 B381      		ldd r27,Z+3
 1712 0aa2 8615      		cp r24,r6
 1713 0aa4 9705      		cpc r25,r7
 1714 0aa6 A805      		cpc r26,r8
 1715 0aa8 B905      		cpc r27,r9
 1716 0aaa 04F0      		brlt .L104
 1717               	.LVL60:
 1718               	.L98:
 1719               	.LM132:
 1720 0aac D901      		movw r26,r18
 1721               	.LVL61:
 1722 0aae 1496      		adiw r26,4
 1723 0ab0 ED93      		st X+,r30
 1724 0ab2 FC93      		st X,r31
 1725 0ab4 1597      		sbiw r26,4+1
 1726               	.LM133:
 1727 0ab6 2883      		st Y,r18
 1728 0ab8 3983      		std Y+1,r19
 1729               	/* epilogue start */
 1730               	.LM134:
 1731 0aba DF91      		pop r29
 1732 0abc CF91      		pop r28
 1733               	.LVL62:
 1734 0abe 1F91      		pop r17
 1735 0ac0 0F91      		pop r16
 1736               	.LVL63:
 1737 0ac2 FF90      		pop r15
 1738 0ac4 EF90      		pop r14
 1739               	.LVL64:
 1740 0ac6 DF90      		pop r13
 1741 0ac8 CF90      		pop r12
 1742               	.LVL65:
 1743 0aca BF90      		pop r11
 1744               	.LVL66:
 1745 0acc AF90      		pop r10
 1746               	.LVL67:
 1747 0ace 9F90      		pop r9
 1748 0ad0 8F90      		pop r8
 1749 0ad2 7F90      		pop r7
 1750 0ad4 6F90      		pop r6
 1751               	.LVL68:
 1752 0ad6 0895      		ret
 1753               	.LFE29:
 1755               	.global	queue_enqueue
 1757               	queue_enqueue:
 1758               	.LFB26:
 1759               	.LM135:
 1760               	.LVL69:
 1761 0ad8 EF92      		push r14
 1762 0ada FF92      		push r15
 1763 0adc 0F93      		push r16
 1764 0ade 1F93      		push r17
 1765 0ae0 CF93      		push r28
 1766 0ae2 DF93      		push r29
 1767               	/* prologue: function */
 1768               	/* frame size = 0 */
 1769 0ae4 EC01      		movw r28,r24
 1770 0ae6 8B01      		movw r16,r22
 1771 0ae8 7A01      		movw r14,r20
 1772               	.LM136:
 1773 0aea 86E0      		ldi r24,lo8(6)
 1774 0aec 90E0      		ldi r25,hi8(6)
 1775               	.LVL70:
 1776 0aee 0E94 0000 		call malloc
 1777               	.LVL71:
 1778 0af2 DC01      		movw r26,r24
 1779               	.LM137:
 1780 0af4 1496      		adiw r26,4
 1781 0af6 0D93      		st X+,r16
 1782 0af8 1C93      		st X,r17
 1783 0afa 1597      		sbiw r26,4+1
 1784               	.LVL72:
 1785               	.LM138:
 1786 0afc 1296      		adiw r26,2
 1787 0afe ED92      		st X+,r14
 1788 0b00 FC92      		st X,r15
 1789 0b02 1397      		sbiw r26,2+1
 1790               	.LM139:
 1791 0b04 1D92      		st X+,__zero_reg__
 1792 0b06 1C92      		st X,__zero_reg__
 1793 0b08 1197      		sbiw r26,1
 1794               	.LBB208:
 1795               	.LBB209:
 1796               	.LM140:
 1797 0b0a 8881      		ld r24,Y
 1798 0b0c 9981      		ldd r25,Y+1
 1799 0b0e 892B      		or r24,r25
 1800 0b10 01F0      		breq .L109
 1801               	.LM141:
 1802 0b12 EA81      		ldd r30,Y+2
 1803 0b14 FB81      		ldd r31,Y+3
 1804 0b16 A083      		st Z,r26
 1805 0b18 B183      		std Z+1,r27
 1806               	.LM142:
 1807 0b1a AA83      		std Y+2,r26
 1808 0b1c BB83      		std Y+3,r27
 1809               	.LBE209:
 1810               	.LBE208:
 1811               	.LM143:
 1812 0b1e CD01      		movw r24,r26
 1813               	.LVL73:
 1814               	/* epilogue start */
 1815 0b20 DF91      		pop r29
 1816 0b22 CF91      		pop r28
 1817               	.LVL74:
 1818 0b24 1F91      		pop r17
 1819 0b26 0F91      		pop r16
 1820               	.LVL75:
 1821 0b28 FF90      		pop r15
 1822 0b2a EF90      		pop r14
 1823               	.LVL76:
 1824 0b2c 0895      		ret
 1825               	.LVL77:
 1826               	.L109:
 1827               	.LBB211:
 1828               	.LBB210:
 1829               	.LM144:
 1830 0b2e AA83      		std Y+2,r26
 1831 0b30 BB83      		std Y+3,r27
 1832 0b32 A883      		st Y,r26
 1833 0b34 B983      		std Y+1,r27
 1834               	.LBE210:
 1835               	.LBE211:
 1836               	.LM145:
 1837 0b36 CD01      		movw r24,r26
 1838               	.LVL78:
 1839 0b38 DF91      		pop r29
 1840 0b3a CF91      		pop r28
 1841               	.LVL79:
 1842 0b3c 1F91      		pop r17
 1843 0b3e 0F91      		pop r16
 1844               	.LVL80:
 1845 0b40 FF90      		pop r15
 1846 0b42 EF90      		pop r14
 1847               	.LVL81:
 1848 0b44 0895      		ret
 1849               	.LFE26:
 1852               	queue_dequeue_pos:
 1853               	.LFB25:
 1854               	.LM146:
 1855               	.LVL82:
 1856 0b46 0F93      		push r16
 1857 0b48 1F93      		push r17
 1858 0b4a CF93      		push r28
 1859 0b4c DF93      		push r29
 1860               	/* prologue: function */
 1861               	/* frame size = 0 */
 1862 0b4e EC01      		movw r28,r24
 1863 0b50 DB01      		movw r26,r22
 1864               	.LM147:
 1865 0b52 ED91      		ld r30,X+
 1866 0b54 FC91      		ld r31,X
 1867 0b56 1197      		sbiw r26,1
 1868               	.LVL83:
 1869               	.LM148:
 1870 0b58 2081      		ld r18,Z
 1871 0b5a 3181      		ldd r19,Z+1
 1872               	.LVL84:
 1873               	.LM149:
 1874 0b5c 8A81      		ldd r24,Y+2
 1875 0b5e 9B81      		ldd r25,Y+3
 1876               	.LVL85:
 1877 0b60 8E17      		cp r24,r30
 1878 0b62 9F07      		cpc r25,r31
 1879 0b64 01F0      		breq .L114
 1880               	.LVL86:
 1881               	.L111:
 1882               	.LM150:
 1883 0b66 2D93      		st X+,r18
 1884 0b68 3C93      		st X,r19
 1885               	.LM151:
 1886 0b6a 1481      		ldd r17,Z+4
 1887               	.LVL87:
 1888 0b6c 0581      		ldd r16,Z+5
 1889               	.LVL88:
 1890               	.LM152:
 1891 0b6e CF01      		movw r24,r30
 1892 0b70 0E94 0000 		call free
 1893               	.LVL89:
 1894               	.LM153:
 1895 0b74 812F      		mov r24,r17
 1896 0b76 902F      		mov r25,r16
 1897               	/* epilogue start */
 1898 0b78 DF91      		pop r29
 1899 0b7a CF91      		pop r28
 1900               	.LVL90:
 1901 0b7c 1F91      		pop r17
 1902               	.LVL91:
 1903 0b7e 0F91      		pop r16
 1904               	.LVL92:
 1905 0b80 0895      		ret
 1906               	.LVL93:
 1907               	.L114:
 1908               	.LM154:
 1909 0b82 8881      		ld r24,Y
 1910 0b84 9981      		ldd r25,Y+1
 1911 0b86 E817      		cp r30,r24
 1912 0b88 F907      		cpc r31,r25
 1913 0b8a 01F0      		breq .L115
 1914               	.LM155:
 1915 0b8c 6A83      		std Y+2,r22
 1916 0b8e 7B83      		std Y+3,r23
 1917 0b90 00C0      		rjmp .L111
 1918               	.L115:
 1919               	.LM156:
 1920 0b92 1A82      		std Y+2,__zero_reg__
 1921 0b94 1B82      		std Y+3,__zero_reg__
 1922 0b96 00C0      		rjmp .L111
 1923               	.LFE25:
 1925               	.global	queue_dequeue
 1927               	queue_dequeue:
 1928               	.LFB27:
 1929               	.LM157:
 1930               	.LVL94:
 1931 0b98 0F93      		push r16
 1932 0b9a 1F93      		push r17
 1933 0b9c CF93      		push r28
 1934 0b9e DF93      		push r29
 1935               	/* prologue: function */
 1936               	/* frame size = 0 */
 1937 0ba0 DC01      		movw r26,r24
 1938 0ba2 EB01      		movw r28,r22
 1939               	.LBB212:
 1940               	.LBB213:
 1941               	.LM158:
 1942 0ba4 ED91      		ld r30,X+
 1943 0ba6 FC91      		ld r31,X
 1944 0ba8 1197      		sbiw r26,1
 1945               	.LVL95:
 1946 0baa 3097      		sbiw r30,0
 1947 0bac 01F0      		breq .L117
 1948               	.LVL96:
 1949               	.LM159:
 1950 0bae 8081      		ld r24,Z
 1951 0bb0 9181      		ldd r25,Z+1
 1952 0bb2 8D93      		st X+,r24
 1953 0bb4 9C93      		st X,r25
 1954 0bb6 1197      		sbiw r26,1
 1955               	.LM160:
 1956 0bb8 892B      		or r24,r25
 1957 0bba 01F0      		breq .L120
 1958               	.LVL97:
 1959               	.L117:
 1960               	.LBE213:
 1961               	.LBE212:
 1962               	.LM161:
 1963 0bbc 1481      		ldd r17,Z+4
 1964               	.LVL98:
 1965 0bbe 0581      		ldd r16,Z+5
 1966               	.LVL99:
 1967               	.LM162:
 1968 0bc0 2097      		sbiw r28,0
 1969 0bc2 01F0      		breq .L118
 1970               	.LM163:
 1971 0bc4 8281      		ldd r24,Z+2
 1972 0bc6 9381      		ldd r25,Z+3
 1973 0bc8 8883      		st Y,r24
 1974 0bca 9983      		std Y+1,r25
 1975               	.LVL100:
 1976               	.L118:
 1977               	.LM164:
 1978 0bcc CF01      		movw r24,r30
 1979 0bce 0E94 0000 		call free
 1980               	.LVL101:
 1981               	.LM165:
 1982 0bd2 812F      		mov r24,r17
 1983 0bd4 902F      		mov r25,r16
 1984               	/* epilogue start */
 1985 0bd6 DF91      		pop r29
 1986 0bd8 CF91      		pop r28
 1987               	.LVL102:
 1988 0bda 1F91      		pop r17
 1989               	.LVL103:
 1990 0bdc 0F91      		pop r16
 1991               	.LVL104:
 1992 0bde 0895      		ret
 1993               	.LVL105:
 1994               	.L120:
 1995               	.LBB215:
 1996               	.LBB214:
 1997               	.LM166:
 1998 0be0 1296      		adiw r26,2
 1999 0be2 1D92      		st X+,__zero_reg__
 2000 0be4 1C92      		st X,__zero_reg__
 2001 0be6 1397      		sbiw r26,2+1
 2002 0be8 00C0      		rjmp .L117
 2003               	.LBE214:
 2004               	.LBE215:
 2005               	.LFE27:
 2007               		.data
 2008               	.LC24:
 2009 012f 676F 7420 		.string	"got value %c\n"
 2009      7661 6C75 
 2009      6520 2563 
 2009      0A00 
 2010               		.text
 2012               	advance:
 2013               	.LFB33:
 2014               	.LM167:
 2015               	.LVL106:
 2016 0bea CF93      		push r28
 2017 0bec DF93      		push r29
 2018               	/* prologue: function */
 2019               	/* frame size = 0 */
 2020 0bee EC01      		movw r28,r24
 2021               	.LM168:
 2022 0bf0 4881      		ld r20,Y
 2023 0bf2 242F      		mov r18,r20
 2024 0bf4 30E0      		ldi r19,lo8(0)
 2025 0bf6 C901      		movw r24,r18
 2026               	.LVL107:
 2027 0bf8 8C7F      		andi r24,lo8(252)
 2028 0bfa 9070      		andi r25,hi8(252)
 2029 0bfc 0897      		sbiw r24,8
 2030 0bfe 01F4      		brne .+2
 2031 0c00 00C0      		rjmp .L169
 2032               	.LM169:
 2033 0c02 C901      		movw r24,r18
 2034 0c04 807C      		andi r24,lo8(192)
 2035 0c06 9070      		andi r25,hi8(192)
 2036 0c08 803C      		cpi r24,192
 2037 0c0a 9105      		cpc r25,__zero_reg__
 2038 0c0c 01F0      		breq .L170
 2039               	.LM170:
 2040 0c0e C901      		movw r24,r18
 2041 0c10 807F      		andi r24,lo8(240)
 2042 0c12 9070      		andi r25,hi8(240)
 2043 0c14 8033      		cpi r24,48
 2044 0c16 9105      		cpc r25,__zero_reg__
 2045 0c18 01F4      		brne .+2
 2046 0c1a 00C0      		rjmp .L171
 2047               	.LM171:
 2048 0c1c 403A      		cpi r20,lo8(-96)
 2049 0c1e 01F4      		brne .+2
 2050 0c20 00C0      		rjmp .L172
 2051               	.LM172:
 2052 0c22 A901      		movw r20,r18
 2053 0c24 407E      		andi r20,lo8(224)
 2054 0c26 5070      		andi r21,hi8(224)
 2055 0c28 4034      		cpi r20,64
 2056 0c2a 5105      		cpc r21,__zero_reg__
 2057 0c2c 01F4      		brne .+2
 2058 0c2e 00C0      		rjmp .L173
 2059               	.LM173:
 2060 0c30 8097      		sbiw r24,32
 2061 0c32 01F4      		brne .+2
 2062 0c34 00C0      		rjmp .L174
 2063               	.LM174:
 2064 0c36 4036      		cpi r20,96
 2065 0c38 5105      		cpc r21,__zero_reg__
 2066 0c3a 01F4      		brne .+2
 2067 0c3c 00C0      		rjmp .L175
 2068               	.LM175:
 2069 0c3e DE01      		movw r26,r28
 2070 0c40 1196      		adiw r26,1
 2071               	.LVL108:
 2072 0c42 00C0      		rjmp .L126
 2073               	.LVL109:
 2074               	.L170:
 2075               	.LBB216:
 2076               	.LM176:
 2077 0c44 C901      		movw r24,r18
 2078 0c46 8F73      		andi r24,lo8(63)
 2079 0c48 9070      		andi r25,hi8(63)
 2080 0c4a 0097      		sbiw r24,0
 2081 0c4c 01F0      		breq .+2
 2082 0c4e 00C0      		rjmp .L176
 2083               	.L128:
 2084               	.LM177:
 2085 0c50 4BE0      		ldi r20,lo8(11)
 2086 0c52 50E0      		ldi r21,hi8(11)
 2087 0c54 69E0      		ldi r22,lo8(9)
 2088 0c56 70E0      		ldi r23,hi8(9)
 2089 0c58 87E0      		ldi r24,lo8(7)
 2090 0c5a 90E0      		ldi r25,hi8(7)
 2091               	.L131:
 2092               	.LM178:
 2093 0c5c 2981      		ldd r18,Y+1
 2094 0c5e 2695      		lsr r18
 2095 0c60 2695      		lsr r18
 2096 0c62 01F4      		brne .+2
 2097 0c64 00C0      		rjmp .L132
 2098               	.LM179:
 2099 0c66 2130      		cpi r18,lo8(1)
 2100 0c68 01F4      		brne .+2
 2101 0c6a 00C0      		rjmp .L132
 2102               	.LM180:
 2103 0c6c 2230      		cpi r18,lo8(2)
 2104 0c6e 01F4      		brne .+2
 2105 0c70 00C0      		rjmp .L140
 2106               	.LM181:
 2107 0c72 2430      		cpi r18,lo8(4)
 2108 0c74 01F4      		brne .+2
 2109 0c76 00C0      		rjmp .L140
 2110               	.LM182:
 2111 0c78 30E0      		ldi r19,lo8(0)
 2112 0c7a 25FD      		sbrc r18,5
 2113 0c7c 00C0      		rjmp .L153
 2114               	.LM183:
 2115 0c7e 00D0      		rcall .
 2116 0c80 0F92      		push __tmp_reg__
 2117 0c82 80E0      		ldi r24,lo8(.LC24)
 2118 0c84 90E0      		ldi r25,hi8(.LC24)
 2119 0c86 EDB7      		in r30,__SP_L__
 2120 0c88 FEB7      		in r31,__SP_H__
 2121 0c8a 8183      		std Z+1,r24
 2122 0c8c 9283      		std Z+2,r25
 2123 0c8e 3070      		andi r19,hi8(255)
 2124 0c90 2383      		std Z+3,r18
 2125 0c92 3483      		std Z+4,r19
 2126 0c94 0E94 0000 		call printf
 2127               	.LM184:
 2128 0c98 0F90      		pop __tmp_reg__
 2129 0c9a 0F90      		pop __tmp_reg__
 2130 0c9c 0F90      		pop __tmp_reg__
 2131 0c9e 0F90      		pop __tmp_reg__
 2132 0ca0 80E0      		ldi r24,lo8(.LC19)
 2133 0ca2 90E0      		ldi r25,hi8(.LC19)
 2134 0ca4 61E2      		ldi r22,lo8(289)
 2135 0ca6 71E0      		ldi r23,hi8(289)
 2136 0ca8 40E0      		ldi r20,lo8(.LC20)
 2137 0caa 50E0      		ldi r21,hi8(.LC20)
 2138 0cac 0E94 0000 		call __myassert
 2139               	.LM185:
 2140 0cb0 81E0      		ldi r24,lo8(1)
 2141 0cb2 90E0      		ldi r25,hi8(1)
 2142 0cb4 0E94 0000 		call exit
 2143               	.L169:
 2144               	.LBE216:
 2145               	.LBB217:
 2146               	.LM186:
 2147 0cb8 8A81      		ldd r24,Y+2
 2148 0cba 90E0      		ldi r25,lo8(0)
 2149 0cbc 8F73      		andi r24,lo8(63)
 2150 0cbe 9070      		andi r25,hi8(63)
 2151 0cc0 0097      		sbiw r24,0
 2152 0cc2 01F0      		breq .L123
 2153               	.LM187:
 2154 0cc4 8130      		cpi r24,1
 2155 0cc6 9105      		cpc r25,__zero_reg__
 2156 0cc8 01F0      		breq .L123
 2157               	.LM188:
 2158 0cca 8230      		cpi r24,2
 2159 0ccc 9105      		cpc r25,__zero_reg__
 2160 0cce 01F0      		breq .L124
 2161               	.LM189:
 2162 0cd0 0497      		sbiw r24,4
 2163 0cd2 01F0      		breq .+2
 2164 0cd4 00C0      		rjmp .L177
 2165               	.L124:
 2166               	.LM190:
 2167 0cd6 85E0      		ldi r24,lo8(5)
 2168 0cd8 90E0      		ldi r25,hi8(5)
 2169               	.L153:
 2170               	.LBE217:
 2171               	.LBB218:
 2172               	.LM191:
 2173 0cda DE01      		movw r26,r28
 2174 0cdc A80F      		add r26,r24
 2175 0cde B91F      		adc r27,r25
 2176               	.LVL110:
 2177               	.L126:
 2178               	.LBE218:
 2179               	.LM192:
 2180 0ce0 CD01      		movw r24,r26
 2181               	.LVL111:
 2182               	/* epilogue start */
 2183 0ce2 DF91      		pop r29
 2184 0ce4 CF91      		pop r28
 2185 0ce6 0895      		ret
 2186               	.LVL112:
 2187               	.L123:
 2188               	.LBB219:
 2189               	.LM193:
 2190 0ce8 87E0      		ldi r24,lo8(7)
 2191 0cea 90E0      		ldi r25,hi8(7)
 2192 0cec 00C0      		rjmp .L153
 2193               	.L176:
 2194               	.LBE219:
 2195               	.LBB220:
 2196               	.LM194:
 2197 0cee 8130      		cpi r24,1
 2198 0cf0 9105      		cpc r25,__zero_reg__
 2199 0cf2 01F4      		brne .+2
 2200 0cf4 00C0      		rjmp .L128
 2201               	.LM195:
 2202 0cf6 8230      		cpi r24,2
 2203 0cf8 9105      		cpc r25,__zero_reg__
 2204 0cfa 01F4      		brne .+2
 2205 0cfc 00C0      		rjmp .L129
 2206               	.LM196:
 2207 0cfe 0497      		sbiw r24,4
 2208 0d00 01F4      		brne .+2
 2209 0d02 00C0      		rjmp .L129
 2210               	.LM197:
 2211 0d04 45FF      		sbrs r20,5
 2212 0d06 00C0      		rjmp .L130
 2213 0d08 47E0      		ldi r20,lo8(7)
 2214 0d0a 50E0      		ldi r21,hi8(7)
 2215 0d0c 65E0      		ldi r22,lo8(5)
 2216 0d0e 70E0      		ldi r23,hi8(5)
 2217 0d10 83E0      		ldi r24,lo8(3)
 2218 0d12 90E0      		ldi r25,hi8(3)
 2219 0d14 00C0      		rjmp .L131
 2220               	.L173:
 2221               	.LBE220:
 2222               	.LBB221:
 2223               	.LM198:
 2224 0d16 8981      		ldd r24,Y+1
 2225 0d18 90E0      		ldi r25,lo8(0)
 2226 0d1a 9C01      		movw r18,r24
 2227 0d1c 2F73      		andi r18,lo8(63)
 2228 0d1e 3070      		andi r19,hi8(63)
 2229 0d20 2130      		cpi r18,1
 2230 0d22 3105      		cpc r19,__zero_reg__
 2231 0d24 01F4      		brne .+2
 2232 0d26 00C0      		rjmp .L151
 2233               	.LM199:
 2234 0d28 2115      		cp r18,__zero_reg__
 2235 0d2a 3105      		cpc r19,__zero_reg__
 2236 0d2c 01F4      		brne .+2
 2237 0d2e 00C0      		rjmp .L151
 2238               	.LM200:
 2239 0d30 2230      		cpi r18,2
 2240 0d32 3105      		cpc r19,__zero_reg__
 2241 0d34 01F4      		brne .+2
 2242 0d36 00C0      		rjmp .L178
 2243               	.LM201:
 2244 0d38 85FD      		sbrc r24,5
 2245 0d3a 00C0      		rjmp .L179
 2246               	.LM202:
 2247 0d3c 2430      		cpi r18,4
 2248 0d3e 3105      		cpc r19,__zero_reg__
 2249 0d40 01F0      		breq .+2
 2250 0d42 00C0      		rjmp .L155
 2251               	.LM203:
 2252 0d44 80E0      		ldi r24,lo8(.LC19)
 2253 0d46 90E0      		ldi r25,hi8(.LC19)
 2254 0d48 6DE7      		ldi r22,lo8(381)
 2255 0d4a 71E0      		ldi r23,hi8(381)
 2256 0d4c 40E0      		ldi r20,lo8(.LC20)
 2257 0d4e 50E0      		ldi r21,hi8(.LC20)
 2258 0d50 0E94 0000 		call __myassert
 2259               	.LM204:
 2260 0d54 81E0      		ldi r24,lo8(1)
 2261 0d56 90E0      		ldi r25,hi8(1)
 2262 0d58 0E94 0000 		call exit
 2263               	.L140:
 2264               	.LBE221:
 2265               	.LBB222:
 2266               	.LM205:
 2267 0d5c CB01      		movw r24,r22
 2268 0d5e 00C0      		rjmp .L153
 2269               	.L171:
 2270               	.LM206:
 2271 0d60 4981      		ldd r20,Y+1
 2272 0d62 2F70      		andi r18,lo8(15)
 2273 0d64 3070      		andi r19,hi8(15)
 2274 0d66 220F      		lsl r18
 2275 0d68 331F      		rol r19
 2276 0d6a 220F      		lsl r18
 2277 0d6c 331F      		rol r19
 2278 0d6e 842F      		mov r24,r20
 2279 0d70 8295      		swap r24
 2280 0d72 8695      		lsr r24
 2281 0d74 8695      		lsr r24
 2282 0d76 8370      		andi r24,0x3
 2283 0d78 822B      		or r24,r18
 2284 0d7a 01F4      		brne .+2
 2285 0d7c 00C0      		rjmp .L136
 2286               	.LM207:
 2287 0d7e 8130      		cpi r24,lo8(1)
 2288 0d80 01F4      		brne .+2
 2289 0d82 00C0      		rjmp .L136
 2290               	.LM208:
 2291 0d84 8230      		cpi r24,lo8(2)
 2292 0d86 01F4      		brne .+2
 2293 0d88 00C0      		rjmp .L137
 2294               	.LM209:
 2295 0d8a 8430      		cpi r24,lo8(4)
 2296 0d8c 01F4      		brne .+2
 2297 0d8e 00C0      		rjmp .L137
 2298               	.LM210:
 2299 0d90 8F31      		cpi r24,lo8(31)
 2300 0d92 01F0      		breq .L138
 2301               	.LM211:
 2302 0d94 85FD      		sbrc r24,5
 2303 0d96 00C0      		rjmp .L138
 2304               	.LM212:
 2305 0d98 8330      		cpi r24,lo8(3)
 2306 0d9a 01F0      		breq .+2
 2307 0d9c 00C0      		rjmp .L180
 2308               	.L138:
 2309               	.LM213:
 2310 0d9e 66E0      		ldi r22,lo8(6)
 2311 0da0 70E0      		ldi r23,hi8(6)
 2312 0da2 E4E0      		ldi r30,lo8(4)
 2313 0da4 F0E0      		ldi r31,hi8(4)
 2314 0da6 82E0      		ldi r24,lo8(2)
 2315 0da8 90E0      		ldi r25,hi8(2)
 2316 0daa 00C0      		rjmp .L139
 2317               	.L132:
 2318               	.LBE222:
 2319               	.LBB223:
 2320               	.LM214:
 2321 0dac CA01      		movw r24,r20
 2322 0dae 00C0      		rjmp .L153
 2323               	.L172:
 2324               	.LBE223:
 2325               	.LM215:
 2326 0db0 DE01      		movw r26,r28
 2327 0db2 1496      		adiw r26,4
 2328               	.LVL113:
 2329               	.LM216:
 2330 0db4 1196      		adiw r26,1
 2331 0db6 8C91      		ld r24,X
 2332 0db8 1197      		sbiw r26,1
 2333 0dba 282F      		mov r18,r24
 2334 0dbc 30E0      		ldi r19,lo8(0)
 2335 0dbe C901      		movw r24,r18
 2336 0dc0 807C      		andi r24,lo8(192)
 2337 0dc2 9070      		andi r25,hi8(192)
 2338 0dc4 803C      		cpi r24,192
 2339 0dc6 9105      		cpc r25,__zero_reg__
 2340 0dc8 01F4      		brne .L165
 2341 0dca 00C0      		rjmp .L184
 2342               	.L145:
 2343               	.LBB224:
 2344               	.LM217:
 2345 0dcc 8130      		cpi r24,1
 2346 0dce 9105      		cpc r25,__zero_reg__
 2347 0dd0 01F0      		breq .L167
 2348               	.LM218:
 2349 0dd2 8230      		cpi r24,2
 2350 0dd4 9105      		cpc r25,__zero_reg__
 2351 0dd6 01F0      		breq .L166
 2352               	.LM219:
 2353 0dd8 0497      		sbiw r24,4
 2354 0dda 01F0      		breq .+2
 2355 0ddc 00C0      		rjmp .L149
 2356               	.L166:
 2357               	.LM220:
 2358 0dde CD01      		movw r24,r26
 2359 0de0 0296      		adiw r24,2
 2360               	.LVL114:
 2361               	.L146:
 2362               	.LM221:
 2363 0de2 DC01      		movw r26,r24
 2364 0de4 1296      		adiw r26,2
 2365               	.LVL115:
 2366               	.LM222:
 2367 0de6 207C      		andi r18,lo8(192)
 2368 0de8 3070      		andi r19,hi8(192)
 2369 0dea 2034      		cpi r18,64
 2370 0dec 3105      		cpc r19,__zero_reg__
 2371 0dee 01F4      		brne .+2
 2372 0df0 00C0      		rjmp .L126
 2373               	.LM223:
 2374 0df2 1196      		adiw r26,1
 2375 0df4 8C91      		ld r24,X
 2376 0df6 1197      		sbiw r26,1
 2377 0df8 282F      		mov r18,r24
 2378 0dfa 30E0      		ldi r19,lo8(0)
 2379               	.L165:
 2380               	.LM224:
 2381 0dfc C901      		movw r24,r18
 2382 0dfe 8F73      		andi r24,lo8(63)
 2383 0e00 9070      		andi r25,hi8(63)
 2384 0e02 0097      		sbiw r24,0
 2385 0e04 01F4      		brne .L145
 2386               	.L167:
 2387               	.LM225:
 2388 0e06 CD01      		movw r24,r26
 2389 0e08 0496      		adiw r24,4
 2390               	.LVL116:
 2391 0e0a 00C0      		rjmp .L146
 2392               	.LVL117:
 2393               	.L136:
 2394               	.LBE224:
 2395               	.LBB225:
 2396               	.LM226:
 2397 0e0c 6AE0      		ldi r22,lo8(10)
 2398 0e0e 70E0      		ldi r23,hi8(10)
 2399 0e10 E8E0      		ldi r30,lo8(8)
 2400 0e12 F0E0      		ldi r31,hi8(8)
 2401 0e14 86E0      		ldi r24,lo8(6)
 2402 0e16 90E0      		ldi r25,hi8(6)
 2403               	.L139:
 2404               	.LM227:
 2405 0e18 50E0      		ldi r21,lo8(0)
 2406 0e1a 9A01      		movw r18,r20
 2407 0e1c 2F73      		andi r18,lo8(63)
 2408 0e1e 3070      		andi r19,hi8(63)
 2409 0e20 2115      		cp r18,__zero_reg__
 2410 0e22 3105      		cpc r19,__zero_reg__
 2411 0e24 01F4      		brne .+2
 2412 0e26 00C0      		rjmp .L140
 2413               	.LM228:
 2414 0e28 2130      		cpi r18,1
 2415 0e2a 3105      		cpc r19,__zero_reg__
 2416 0e2c 01F4      		brne .+2
 2417 0e2e 00C0      		rjmp .L140
 2418               	.LM229:
 2419 0e30 2230      		cpi r18,2
 2420 0e32 3105      		cpc r19,__zero_reg__
 2421 0e34 01F0      		breq .L141
 2422               	.LM230:
 2423 0e36 2430      		cpi r18,4
 2424 0e38 3105      		cpc r19,__zero_reg__
 2425 0e3a 01F0      		breq .L141
 2426               	.LM231:
 2427 0e3c 45FD      		sbrc r20,5
 2428 0e3e 00C0      		rjmp .L153
 2429               	.LM232:
 2430 0e40 80E0      		ldi r24,lo8(.LC19)
 2431 0e42 90E0      		ldi r25,hi8(.LC19)
 2432 0e44 6AE4      		ldi r22,lo8(330)
 2433 0e46 71E0      		ldi r23,hi8(330)
 2434 0e48 40E0      		ldi r20,lo8(.LC20)
 2435 0e4a 50E0      		ldi r21,hi8(.LC20)
 2436 0e4c 0E94 0000 		call __myassert
 2437               	.LM233:
 2438 0e50 81E0      		ldi r24,lo8(1)
 2439 0e52 90E0      		ldi r25,hi8(1)
 2440 0e54 0E94 0000 		call exit
 2441               	.L151:
 2442               	.LBE225:
 2443               	.LBB226:
 2444               	.LM234:
 2445 0e58 86E0      		ldi r24,lo8(6)
 2446 0e5a 90E0      		ldi r25,hi8(6)
 2447 0e5c 00C0      		rjmp .L153
 2448               	.L129:
 2449               	.LBE226:
 2450               	.LBB227:
 2451               	.LM235:
 2452 0e5e 49E0      		ldi r20,lo8(9)
 2453 0e60 50E0      		ldi r21,hi8(9)
 2454 0e62 67E0      		ldi r22,lo8(7)
 2455 0e64 70E0      		ldi r23,hi8(7)
 2456 0e66 85E0      		ldi r24,lo8(5)
 2457 0e68 90E0      		ldi r25,hi8(5)
 2458 0e6a 00C0      		rjmp .L131
 2459               	.L137:
 2460               	.LBE227:
 2461               	.LBB228:
 2462               	.LM236:
 2463 0e6c 68E0      		ldi r22,lo8(8)
 2464 0e6e 70E0      		ldi r23,hi8(8)
 2465 0e70 E6E0      		ldi r30,lo8(6)
 2466 0e72 F0E0      		ldi r31,hi8(6)
 2467 0e74 84E0      		ldi r24,lo8(4)
 2468 0e76 90E0      		ldi r25,hi8(4)
 2469 0e78 00C0      		rjmp .L139
 2470               	.L141:
 2471               	.LM237:
 2472 0e7a CF01      		movw r24,r30
 2473 0e7c 00C0      		rjmp .L153
 2474               	.L174:
 2475               	.LBE228:
 2476               	.LBB229:
 2477               	.LM238:
 2478 0e7e E981      		ldd r30,Y+1
 2479 0e80 E295      		swap r30
 2480 0e82 E695      		lsr r30
 2481 0e84 E770      		andi r30,0x7
 2482 0e86 F0E0      		ldi r31,lo8(0)
 2483 0e88 2F70      		andi r18,lo8(15)
 2484 0e8a 3070      		andi r19,hi8(15)
 2485 0e8c 220F      		lsl r18
 2486 0e8e 331F      		rol r19
 2487 0e90 220F      		lsl r18
 2488 0e92 331F      		rol r19
 2489 0e94 220F      		lsl r18
 2490 0e96 331F      		rol r19
 2491 0e98 E22B      		or r30,r18
 2492 0e9a F32B      		or r31,r19
 2493 0e9c EE0F      		lsl r30
 2494 0e9e FF1F      		rol r31
 2495 0ea0 E050      		subi r30,lo8(-(extern_functs_args))
 2496 0ea2 F040      		sbci r31,hi8(-(extern_functs_args))
 2497 0ea4 0190      		ld __tmp_reg__,Z+
 2498 0ea6 F081      		ld r31,Z
 2499 0ea8 E02D      		mov r30,__tmp_reg__
 2500               	.LVL118:
 2501               	.LM239:
 2502 0eaa DE01      		movw r26,r28
 2503 0eac 1296      		adiw r26,2
 2504               	.LVL119:
 2505 0eae 1E16      		cp __zero_reg__,r30
 2506 0eb0 1F06      		cpc __zero_reg__,r31
 2507 0eb2 04F0      		brlt .+2
 2508 0eb4 00C0      		rjmp .L126
 2509 0eb6 20E0      		ldi r18,lo8(0)
 2510 0eb8 30E0      		ldi r19,hi8(0)
 2511               	.LVL120:
 2512 0eba 00C0      		rjmp .L161
 2513               	.L157:
 2514               	.LM240:
 2515 0ebc 8130      		cpi r24,lo8(1)
 2516 0ebe 01F0      		breq .L168
 2517               	.LM241:
 2518 0ec0 8230      		cpi r24,lo8(2)
 2519 0ec2 01F0      		breq .L182
 2520               	.LM242:
 2521 0ec4 8430      		cpi r24,lo8(4)
 2522 0ec6 01F0      		breq .L183
 2523               	.L158:
 2524               	.LM243:
 2525 0ec8 2F5F      		subi r18,lo8(-(1))
 2526 0eca 3F4F      		sbci r19,hi8(-(1))
 2527 0ecc 1196      		adiw r26,1
 2528 0ece 2E17      		cp r18,r30
 2529 0ed0 3F07      		cpc r19,r31
 2530 0ed2 04F0      		brlt .+2
 2531 0ed4 00C0      		rjmp .L126
 2532               	.L161:
 2533               	.LM244:
 2534 0ed6 8C91      		ld r24,X
 2535 0ed8 8823      		tst r24
 2536 0eda 01F4      		brne .L157
 2537               	.L168:
 2538               	.LM245:
 2539 0edc 1496      		adiw r26,4
 2540 0ede 00C0      		rjmp .L158
 2541               	.L182:
 2542               	.LM246:
 2543 0ee0 1296      		adiw r26,2
 2544 0ee2 00C0      		rjmp .L158
 2545               	.LVL121:
 2546               	.L184:
 2547               	.LBE229:
 2548               	.LM247:
 2549 0ee4 DE01      		movw r26,r28
 2550 0ee6 1696      		adiw r26,6
 2551 0ee8 00C0      		rjmp .L126
 2552               	.LVL122:
 2553               	.L175:
 2554               	.LM248:
 2555 0eea DE01      		movw r26,r28
 2556 0eec 1396      		adiw r26,3
 2557               	.LVL123:
 2558 0eee 00C0      		rjmp .L126
 2559               	.LVL124:
 2560               	.L179:
 2561               	.LBB230:
 2562               	.LM249:
 2563 0ef0 82E0      		ldi r24,lo8(2)
 2564 0ef2 90E0      		ldi r25,hi8(2)
 2565 0ef4 00C0      		rjmp .L153
 2566               	.L178:
 2567               	.LM250:
 2568 0ef6 84E0      		ldi r24,lo8(4)
 2569 0ef8 90E0      		ldi r25,hi8(4)
 2570 0efa 00C0      		rjmp .L153
 2571               	.LVL125:
 2572               	.L183:
 2573               	.LBE230:
 2574               	.LBB231:
 2575               	.LM251:
 2576 0efc 80E0      		ldi r24,lo8(.LC19)
 2577 0efe 90E0      		ldi r25,hi8(.LC19)
 2578 0f00 63E9      		ldi r22,lo8(403)
 2579 0f02 71E0      		ldi r23,hi8(403)
 2580 0f04 40E0      		ldi r20,lo8(.LC20)
 2581 0f06 50E0      		ldi r21,hi8(.LC20)
 2582 0f08 0E94 0000 		call __myassert
 2583               	.LVL126:
 2584               	.LM252:
 2585 0f0c 81E0      		ldi r24,lo8(1)
 2586 0f0e 90E0      		ldi r25,hi8(1)
 2587 0f10 0E94 0000 		call exit
 2588               	.LVL127:
 2589               	.L149:
 2590               	.LBE231:
 2591               	.LBB232:
 2592               	.LM253:
 2593 0f14 80E0      		ldi r24,lo8(.LC19)
 2594 0f16 90E0      		ldi r25,hi8(.LC19)
 2595 0f18 64E6      		ldi r22,lo8(356)
 2596 0f1a 71E0      		ldi r23,hi8(356)
 2597 0f1c 40E0      		ldi r20,lo8(.LC20)
 2598 0f1e 50E0      		ldi r21,hi8(.LC20)
 2599 0f20 0E94 0000 		call __myassert
 2600               	.LVL128:
 2601               	.LM254:
 2602 0f24 81E0      		ldi r24,lo8(1)
 2603 0f26 90E0      		ldi r25,hi8(1)
 2604 0f28 0E94 0000 		call exit
 2605               	.LVL129:
 2606               	.L177:
 2607               	.LBE232:
 2608               	.LBB233:
 2609               	.LM255:
 2610 0f2c 80E0      		ldi r24,lo8(.LC19)
 2611 0f2e 90E0      		ldi r25,hi8(.LC19)
 2612 0f30 6BEF      		ldi r22,lo8(251)
 2613 0f32 70E0      		ldi r23,hi8(251)
 2614 0f34 40E0      		ldi r20,lo8(.LC20)
 2615 0f36 50E0      		ldi r21,hi8(.LC20)
 2616 0f38 0E94 0000 		call __myassert
 2617               	.LM256:
 2618 0f3c 81E0      		ldi r24,lo8(1)
 2619 0f3e 90E0      		ldi r25,hi8(1)
 2620 0f40 0E94 0000 		call exit
 2621               	.L130:
 2622               	.LBE233:
 2623               	.LBB234:
 2624               	.LM257:
 2625 0f44 80E0      		ldi r24,lo8(.LC19)
 2626 0f46 90E0      		ldi r25,hi8(.LC19)
 2627 0f48 60E1      		ldi r22,lo8(272)
 2628 0f4a 71E0      		ldi r23,hi8(272)
 2629 0f4c 40E0      		ldi r20,lo8(.LC20)
 2630 0f4e 50E0      		ldi r21,hi8(.LC20)
 2631 0f50 0E94 0000 		call __myassert
 2632               	.LM258:
 2633 0f54 81E0      		ldi r24,lo8(1)
 2634 0f56 90E0      		ldi r25,hi8(1)
 2635 0f58 0E94 0000 		call exit
 2636               	.L180:
 2637               	.LBE234:
 2638               	.LBB235:
 2639               	.LM259:
 2640 0f5c 80E0      		ldi r24,lo8(.LC19)
 2641 0f5e 90E0      		ldi r25,hi8(.LC19)
 2642 0f60 6AE3      		ldi r22,lo8(314)
 2643 0f62 71E0      		ldi r23,hi8(314)
 2644 0f64 40E0      		ldi r20,lo8(.LC20)
 2645 0f66 50E0      		ldi r21,hi8(.LC20)
 2646 0f68 0E94 0000 		call __myassert
 2647               	.LM260:
 2648 0f6c 81E0      		ldi r24,lo8(1)
 2649 0f6e 90E0      		ldi r25,hi8(1)
 2650 0f70 0E94 0000 		call exit
 2651               	.L155:
 2652               	.LBE235:
 2653               	.LBB236:
 2654               	.LM261:
 2655 0f74 80E0      		ldi r24,lo8(.LC19)
 2656 0f76 90E0      		ldi r25,hi8(.LC19)
 2657 0f78 60E8      		ldi r22,lo8(384)
 2658 0f7a 71E0      		ldi r23,hi8(384)
 2659 0f7c 40E0      		ldi r20,lo8(.LC20)
 2660 0f7e 50E0      		ldi r21,hi8(.LC20)
 2661 0f80 0E94 0000 		call __myassert
 2662               	.LM262:
 2663 0f84 81E0      		ldi r24,lo8(1)
 2664 0f86 90E0      		ldi r25,hi8(1)
 2665 0f88 0E94 0000 		call exit
 2666               	.LBE236:
 2667               	.LFE33:
 2670               	aggregate_free:
 2671               	.LFB39:
 2672               	.LM263:
 2673               	.LVL130:
 2674 0f8c CF93      		push r28
 2675 0f8e DF93      		push r29
 2676               	/* prologue: function */
 2677               	/* frame size = 0 */
 2678 0f90 EC01      		movw r28,r24
 2679               	.LM264:
 2680 0f92 4A30      		cpi r20,lo8(10)
 2681 0f94 00F4      		brsh .L190
 2682               	.LVL131:
 2683 0f96 4830      		cpi r20,lo8(8)
 2684 0f98 00F0      		brlo .L193
 2685               	.LM265:
 2686 0f9a A091 0000 		lds r26,arguments
 2687 0f9e B091 0000 		lds r27,(arguments)+1
 2688 0fa2 862F      		mov r24,r22
 2689 0fa4 90E0      		ldi r25,lo8(0)
 2690               	.LVL132:
 2691 0fa6 E881      		ld r30,Y
 2692 0fa8 F0E0      		ldi r31,lo8(0)
 2693 0faa EE0F      		lsl r30
 2694 0fac FF1F      		rol r31
 2695               	.LVL133:
 2696 0fae EA0F      		add r30,r26
 2697 0fb0 FB1F      		adc r31,r27
 2698 0fb2 2081      		ld r18,Z
 2699 0fb4 880F      		lsl r24
 2700 0fb6 991F      		rol r25
 2701               	.LVL134:
 2702 0fb8 A80F      		add r26,r24
 2703 0fba B91F      		adc r27,r25
 2704 0fbc A20F      		add r26,r18
 2705 0fbe B11D      		adc r27,__zero_reg__
 2706 0fc0 1196      		adiw r26,1
 2707 0fc2 8C91      		ld r24,X
 2708               	.LVL135:
 2709 0fc4 C80F      		add r28,r24
 2710 0fc6 D11D      		adc r29,__zero_reg__
 2711 0fc8 8981      		ldd r24,Y+1
 2712 0fca 9A81      		ldd r25,Y+2
 2713 0fcc 0E94 0000 		call set_delete
 2714               	.LVL136:
 2715               	.LM266:
 2716 0fd0 DF91      		pop r29
 2717 0fd2 CF91      		pop r28
 2718               	.LVL137:
 2719 0fd4 0895      		ret
 2720               	.LVL138:
 2721               	.L190:
 2722               	.LM267:
 2723 0fd6 4C30      		cpi r20,lo8(12)
 2724 0fd8 00F4      		brsh .L186
 2725               	.LM268:
 2726 0fda A091 0000 		lds r26,arguments
 2727 0fde B091 0000 		lds r27,(arguments)+1
 2728 0fe2 862F      		mov r24,r22
 2729 0fe4 90E0      		ldi r25,lo8(0)
 2730               	.LVL139:
 2731 0fe6 E881      		ld r30,Y
 2732 0fe8 F0E0      		ldi r31,lo8(0)
 2733 0fea EE0F      		lsl r30
 2734 0fec FF1F      		rol r31
 2735               	.LVL140:
 2736 0fee EA0F      		add r30,r26
 2737 0ff0 FB1F      		adc r31,r27
 2738 0ff2 2081      		ld r18,Z
 2739 0ff4 880F      		lsl r24
 2740 0ff6 991F      		rol r25
 2741               	.LVL141:
 2742 0ff8 A80F      		add r26,r24
 2743 0ffa B91F      		adc r27,r25
 2744 0ffc A20F      		add r26,r18
 2745 0ffe B11D      		adc r27,__zero_reg__
 2746 1000 1196      		adiw r26,1
 2747 1002 8C91      		ld r24,X
 2748               	.LVL142:
 2749 1004 C80F      		add r28,r24
 2750 1006 D11D      		adc r29,__zero_reg__
 2751 1008 8981      		ldd r24,Y+1
 2752 100a 9A81      		ldd r25,Y+2
 2753 100c 0E94 0000 		call list_delete
 2754               	.LVL143:
 2755               	.L191:
 2756               	/* epilogue start */
 2757               	.LM269:
 2758 1010 DF91      		pop r29
 2759 1012 CF91      		pop r28
 2760               	.LVL144:
 2761 1014 0895      		ret
 2762               	.LVL145:
 2763               	.L193:
 2764               	.LM270:
 2765 1016 4130      		cpi r20,lo8(1)
 2766 1018 00F4      		brsh .L191
 2767               	.L186:
 2768               	.LM271:
 2769 101a 80E0      		ldi r24,lo8(.LC19)
 2770 101c 90E0      		ldi r25,hi8(.LC19)
 2771 101e 64E0      		ldi r22,lo8(772)
 2772 1020 73E0      		ldi r23,hi8(772)
 2773               	.LVL146:
 2774 1022 40E0      		ldi r20,lo8(.LC20)
 2775 1024 50E0      		ldi r21,hi8(.LC20)
 2776               	.LVL147:
 2777 1026 0E94 0000 		call __myassert
 2778               	.LM272:
 2779 102a DF91      		pop r29
 2780 102c CF91      		pop r28
 2781               	.LVL148:
 2782 102e 0895      		ret
 2783               	.LFE39:
 2785               		.data
 2786               	.LC25:
 2787 013d 5F69 6E69 		.string	"_init"
 2787      7400 
 2788               	.LC26:
 2789 0143 6564 6765 		.string	"edge"
 2789      00
 2790               	.LC27:
 2791 0148 636F 6C6F 		.string	"colocated"
 2791      6361 7465 
 2791      6400 
 2792               	.LC28:
 2793 0152 7465 726D 		.string	"terminate"
 2793      696E 6174 
 2793      6500 
 2794               		.text
 2795               	.global	init_consts
 2797               	init_consts:
 2798               	.LFB32:
 2799               	.LM273:
 2800 1030 CF92      		push r12
 2801 1032 DF92      		push r13
 2802 1034 EF92      		push r14
 2803 1036 FF92      		push r15
 2804 1038 0F93      		push r16
 2805 103a 1F93      		push r17
 2806 103c CF93      		push r28
 2807 103e DF93      		push r29
 2808               	/* prologue: function */
 2809               	/* frame size = 0 */
 2810               	.LM274:
 2811 1040 8091 0000 		lds r24,meld_prog
 2812 1044 C82E      		mov r12,r24
 2813 1046 DD24      		clr r13
 2814 1048 C114      		cp r12,__zero_reg__
 2815 104a D104      		cpc r13,__zero_reg__
 2816 104c 01F0      		breq .L202
 2817 104e 70E0      		ldi r23,lo8(tuple_names)
 2818 1050 E72E      		mov r14,r23
 2819 1052 70E0      		ldi r23,hi8(tuple_names)
 2820 1054 F72E      		mov r15,r23
 2821 1056 C0E0      		ldi r28,lo8(0)
 2822 1058 D0E0      		ldi r29,hi8(0)
 2823               	.LVL149:
 2824 105a 00C0      		rjmp .L201
 2825               	.L204:
 2826               	.LM275:
 2827 105c C093 0000 		sts TYPE_INIT,r28
 2828 1060 D093 0000 		sts (TYPE_INIT)+1,r29
 2829               	.L197:
 2830               	.LM276:
 2831 1064 2196      		adiw r28,1
 2832 1066 82E0      		ldi r24,lo8(2)
 2833 1068 90E0      		ldi r25,hi8(2)
 2834 106a E80E      		add r14,r24
 2835 106c F91E      		adc r15,r25
 2836 106e CC15      		cp r28,r12
 2837 1070 DD05      		cpc r29,r13
 2838 1072 04F4      		brge .L202
 2839               	.L201:
 2840               	.LM277:
 2841 1074 F701      		movw r30,r14
 2842 1076 0081      		ld r16,Z
 2843 1078 1181      		ldd r17,Z+1
 2844 107a C801      		movw r24,r16
 2845 107c 60E0      		ldi r22,lo8(.LC25)
 2846 107e 70E0      		ldi r23,hi8(.LC25)
 2847 1080 0E94 0000 		call strcmp
 2848 1084 0097      		sbiw r24,0
 2849 1086 01F0      		breq .L204
 2850               	.LM278:
 2851 1088 C801      		movw r24,r16
 2852 108a 60E0      		ldi r22,lo8(.LC26)
 2853 108c 70E0      		ldi r23,hi8(.LC26)
 2854 108e 0E94 0000 		call strcmp
 2855 1092 0097      		sbiw r24,0
 2856 1094 01F4      		brne .L198
 2857               	.LM279:
 2858 1096 C093 0000 		sts TYPE_EDGE,r28
 2859 109a D093 0000 		sts (TYPE_EDGE)+1,r29
 2860               	.LM280:
 2861 109e 2196      		adiw r28,1
 2862 10a0 82E0      		ldi r24,lo8(2)
 2863 10a2 90E0      		ldi r25,hi8(2)
 2864 10a4 E80E      		add r14,r24
 2865 10a6 F91E      		adc r15,r25
 2866 10a8 CC15      		cp r28,r12
 2867 10aa DD05      		cpc r29,r13
 2868 10ac 04F0      		brlt .L201
 2869               	.L202:
 2870               	/* epilogue start */
 2871               	.LM281:
 2872 10ae DF91      		pop r29
 2873 10b0 CF91      		pop r28
 2874               	.LVL150:
 2875 10b2 1F91      		pop r17
 2876 10b4 0F91      		pop r16
 2877 10b6 FF90      		pop r15
 2878 10b8 EF90      		pop r14
 2879 10ba DF90      		pop r13
 2880 10bc CF90      		pop r12
 2881 10be 0895      		ret
 2882               	.LVL151:
 2883               	.L198:
 2884               	.LM282:
 2885 10c0 C801      		movw r24,r16
 2886 10c2 60E0      		ldi r22,lo8(.LC27)
 2887 10c4 70E0      		ldi r23,hi8(.LC27)
 2888 10c6 0E94 0000 		call strcmp
 2889 10ca 0097      		sbiw r24,0
 2890 10cc 01F4      		brne .L199
 2891               	.LM283:
 2892 10ce C093 0000 		sts TYPE_COLOCATED,r28
 2893 10d2 D093 0000 		sts (TYPE_COLOCATED)+1,r29
 2894 10d6 00C0      		rjmp .L197
 2895               	.L199:
 2896               	.LM284:
 2897 10d8 C801      		movw r24,r16
 2898 10da 60E0      		ldi r22,lo8(.LC5)
 2899 10dc 70E0      		ldi r23,hi8(.LC5)
 2900 10de 0E94 0000 		call strcmp
 2901 10e2 0097      		sbiw r24,0
 2902 10e4 01F4      		brne .L200
 2903               	.LM285:
 2904 10e6 C093 0000 		sts TYPE_PROVED,r28
 2905 10ea D093 0000 		sts (TYPE_PROVED)+1,r29
 2906 10ee 00C0      		rjmp .L197
 2907               	.L200:
 2908               	.LM286:
 2909 10f0 C801      		movw r24,r16
 2910 10f2 60E0      		ldi r22,lo8(.LC28)
 2911 10f4 70E0      		ldi r23,hi8(.LC28)
 2912 10f6 0E94 0000 		call strcmp
 2913 10fa 0097      		sbiw r24,0
 2914 10fc 01F0      		breq .+2
 2915 10fe 00C0      		rjmp .L197
 2916               	.LM287:
 2917 1100 C093 0000 		sts TYPE_TERMINATE,r28
 2918 1104 D093 0000 		sts (TYPE_TERMINATE)+1,r29
 2919 1108 00C0      		rjmp .L197
 2920               	.LFE32:
 2922               		.data
 2923               	.LC29:
 2924 015c 454C 5345 		.string	"ELSE NOT IMPLEMENTED YET!\n"
 2924      204E 4F54 
 2924      2049 4D50 
 2924      4C45 4D45 
 2924      4E54 4544 
 2925               	.LC30:
 2926 0177 4341 4C4C 		.string	"CALL_ARGS(pc) <= 5"
 2926      5F41 5247 
 2926      5328 7063 
 2926      2920 3C3D 
 2926      2035 00
 2927               		.text
 2928               	.global	tuple_process
 2930               	tuple_process:
 2931               	.LFB45:
 2932               	.LM288:
 2933               	.LVL152:
 2934 110a 2F92      		push r2
 2935 110c 3F92      		push r3
 2936 110e 4F92      		push r4
 2937 1110 5F92      		push r5
 2938 1112 6F92      		push r6
 2939 1114 7F92      		push r7
 2940 1116 8F92      		push r8
 2941 1118 9F92      		push r9
 2942 111a AF92      		push r10
 2943 111c BF92      		push r11
 2944 111e CF92      		push r12
 2945 1120 DF92      		push r13
 2946 1122 EF92      		push r14
 2947 1124 FF92      		push r15
 2948 1126 0F93      		push r16
 2949 1128 1F93      		push r17
 2950 112a DF93      		push r29
 2951 112c CF93      		push r28
 2952 112e CDB7      		in r28,__SP_L__
 2953 1130 DEB7      		in r29,__SP_H__
 2954 1132 A097      		sbiw r28,32
 2955 1134 CDBF      		out __SP_L__,r28
 2956 1136 DEBF      		out __SP_H__,r29
 2957               	/* prologue: function */
 2958               	/* frame size = 32 */
 2959 1138 8983      		std Y+1,r24
 2960 113a 9A83      		std Y+2,r25
 2961 113c 6D87      		std Y+13,r22
 2962 113e 7E87      		std Y+14,r23
 2963 1140 4F87      		std Y+15,r20
 2964 1142 588B      		std Y+16,r21
 2965 1144 298B      		std Y+17,r18
 2966 1146 3A8B      		std Y+18,r19
 2967               	.LM289:
 2968 1148 2DB7      		in r18,__SP_L__
 2969 114a 3EB7      		in r19,__SP_H__
 2970               	.LVL153:
 2971 114c 2B8B      		std Y+19,r18
 2972 114e 3C8B      		std Y+20,r19
 2973               	.LBB298:
 2974               	.LBB301:
 2975               	.LBB304:
 2976               	.LBB307:
 2977               	.LM290:
 2978 1150 AE01      		movw r20,r28
 2979               	.LVL154:
 2980 1152 4F5F      		subi r20,lo8(-(1))
 2981 1154 5F4F      		sbci r21,hi8(-(1))
 2982 1156 4F8F      		std Y+31,r20
 2983 1158 58A3      		std Y+32,r21
 2984 115a BA01      		movw r22,r20
 2985               	.LVL155:
 2986 115c 80E0      		ldi r24,lo8(0)
 2987 115e 90E0      		ldi r25,hi8(0)
 2988               	.LVL156:
 2989 1160 6D8B      		std Y+21,r22
 2990 1162 7E8B      		std Y+22,r23
 2991 1164 8F8B      		std Y+23,r24
 2992 1166 988F      		std Y+24,r25
 2993               	.LM291:
 2994 1168 80E0      		ldi r24,lo8(blockId)
 2995 116a 90E0      		ldi r25,hi8(blockId)
 2996 116c 9C01      		movw r18,r24
 2997 116e 40E0      		ldi r20,lo8(0)
 2998 1170 50E0      		ldi r21,hi8(0)
 2999 1172 298F      		std Y+25,r18
 3000 1174 3A8F      		std Y+26,r19
 3001 1176 4B8F      		std Y+27,r20
 3002 1178 5C8F      		std Y+28,r21
 3003 117a AD85      		ldd r26,Y+13
 3004 117c BE85      		ldd r27,Y+14
 3005               	.LVL157:
 3006               	.L364:
 3007               	.LBE307:
 3008               	.LBE304:
 3009               	.LBE301:
 3010               	.LBE298:
 3011               	.LM292:
 3012 117e 6C91      		ld r22,X
 3013 1180 6623      		tst r22
 3014 1182 01F0      		breq .L207
 3015               	.L391:
 3016               	.LM293:
 3017 1184 462F      		mov r20,r22
 3018 1186 50E0      		ldi r21,lo8(0)
 3019 1188 9A01      		movw r18,r20
 3020 118a 207E      		andi r18,lo8(224)
 3021 118c 3070      		andi r19,hi8(224)
 3022 118e 2036      		cpi r18,96
 3023 1190 3105      		cpc r19,__zero_reg__
 3024 1192 01F4      		brne .+2
 3025 1194 00C0      		rjmp .L381
 3026               	.LM294:
 3027 1196 6230      		cpi r22,lo8(2)
 3028 1198 01F4      		brne .+2
 3029 119a 00C0      		rjmp .L382
 3030               	.LM295:
 3031 119c 603A      		cpi r22,lo8(-96)
 3032 119e 01F4      		brne .+2
 3033 11a0 00C0      		rjmp .L383
 3034               	.LM296:
 3035 11a2 6130      		cpi r22,lo8(1)
 3036 11a4 01F4      		brne .+2
 3037 11a6 00C0      		rjmp .L384
 3038               	.LM297:
 3039 11a8 CA01      		movw r24,r20
 3040 11aa 8C7F      		andi r24,lo8(252)
 3041 11ac 9070      		andi r25,hi8(252)
 3042 11ae 0897      		sbiw r24,8
 3043 11b0 01F4      		brne .+2
 3044 11b2 00C0      		rjmp .L385
 3045               	.LM298:
 3046 11b4 2038      		cpi r18,128
 3047 11b6 3105      		cpc r19,__zero_reg__
 3048 11b8 01F4      		brne .+2
 3049 11ba 00C0      		rjmp .L386
 3050               	.LM299:
 3051 11bc CA01      		movw r24,r20
 3052 11be 807C      		andi r24,lo8(192)
 3053 11c0 9070      		andi r25,hi8(192)
 3054 11c2 803C      		cpi r24,192
 3055 11c4 9105      		cpc r25,__zero_reg__
 3056 11c6 01F4      		brne .+2
 3057 11c8 00C0      		rjmp .L387
 3058               	.LM300:
 3059 11ca CA01      		movw r24,r20
 3060 11cc 807F      		andi r24,lo8(240)
 3061 11ce 9070      		andi r25,hi8(240)
 3062 11d0 8033      		cpi r24,48
 3063 11d2 9105      		cpc r25,__zero_reg__
 3064 11d4 01F4      		brne .+2
 3065 11d6 00C0      		rjmp .L388
 3066               	.LM301:
 3067 11d8 2034      		cpi r18,64
 3068 11da 3105      		cpc r19,__zero_reg__
 3069 11dc 01F4      		brne .+2
 3070 11de 00C0      		rjmp .L389
 3071               	.LM302:
 3072 11e0 8097      		sbiw r24,32
 3073 11e2 01F4      		brne .+2
 3074 11e4 00C0      		rjmp .L390
 3075               	.LVL158:
 3076               	.L209:
 3077               	.LM303:
 3078 11e6 8D85      		ldd r24,Y+13
 3079 11e8 9E85      		ldd r25,Y+14
 3080 11ea 0E94 0000 		call advance
 3081 11ee 8D87      		std Y+13,r24
 3082 11f0 9E87      		std Y+14,r25
 3083               	.LVL159:
 3084 11f2 DC01      		movw r26,r24
 3085               	.LM304:
 3086 11f4 6C91      		ld r22,X
 3087 11f6 6623      		tst r22
 3088 11f8 01F4      		brne .L391
 3089               	.LVL160:
 3090               	.L207:
 3091               	.LM305:
 3092 11fa 20E0      		ldi r18,lo8(0)
 3093 11fc 30E0      		ldi r19,hi8(0)
 3094               	.L235:
 3095               	.LM306:
 3096 11fe C901      		movw r24,r18
 3097 1200 EB89      		ldd r30,Y+19
 3098 1202 FC89      		ldd r31,Y+20
 3099 1204 EDBF      		out __SP_L__,r30
 3100 1206 FEBF      		out __SP_H__,r31
 3101               	/* epilogue start */
 3102 1208 A096      		adiw r28,32
 3103 120a CDBF      		out __SP_L__,r28
 3104 120c DEBF      		out __SP_H__,r29
 3105 120e CF91      		pop r28
 3106 1210 DF91      		pop r29
 3107 1212 1F91      		pop r17
 3108 1214 0F91      		pop r16
 3109               	.LVL161:
 3110 1216 FF90      		pop r15
 3111               	.LVL162:
 3112 1218 EF90      		pop r14
 3113               	.LVL163:
 3114 121a DF90      		pop r13
 3115 121c CF90      		pop r12
 3116               	.LVL164:
 3117 121e BF90      		pop r11
 3118 1220 AF90      		pop r10
 3119               	.LVL165:
 3120 1222 9F90      		pop r9
 3121 1224 8F90      		pop r8
 3122               	.LVL166:
 3123 1226 7F90      		pop r7
 3124 1228 6F90      		pop r6
 3125 122a 5F90      		pop r5
 3126               	.LVL167:
 3127 122c 4F90      		pop r4
 3128               	.LVL168:
 3129 122e 3F90      		pop r3
 3130 1230 2F90      		pop r2
 3131               	.LVL169:
 3132 1232 0895      		ret
 3133               	.LVL170:
 3134               	.L381:
 3135               	.LM307:
 3136 1234 4F71      		andi r20,lo8(31)
 3137 1236 5070      		andi r21,hi8(31)
 3138 1238 440F      		lsl r20
 3139 123a 551F      		rol r21
 3140 123c 440F      		lsl r20
 3141 123e 551F      		rol r21
 3142 1240 E989      		ldd r30,Y+17
 3143 1242 FA89      		ldd r31,Y+18
 3144 1244 4E0F      		add r20,r30
 3145 1246 5F1F      		adc r21,r31
 3146 1248 FA01      		movw r30,r20
 3147 124a 8081      		ld r24,Z
 3148 124c 9181      		ldd r25,Z+1
 3149 124e A281      		ldd r26,Z+2
 3150 1250 B381      		ldd r27,Z+3
 3151 1252 0097      		sbiw r24,0
 3152 1254 A105      		cpc r26,__zero_reg__
 3153 1256 B105      		cpc r27,__zero_reg__
 3154 1258 01F4      		brne .L209
 3155               	.LM308:
 3156 125a AD85      		ldd r26,Y+13
 3157 125c BE85      		ldd r27,Y+14
 3158 125e 1196      		adiw r26,1
 3159 1260 8D91      		ld r24,X+
 3160 1262 9C91      		ld r25,X
 3161 1264 1297      		sbiw r26,1+1
 3162 1266 A80F      		add r26,r24
 3163 1268 B91F      		adc r27,r25
 3164 126a AD87      		std Y+13,r26
 3165 126c BE87      		std Y+14,r27
 3166               	.LVL171:
 3167 126e 00C0      		rjmp .L364
 3168               	.L383:
 3169               	.LBB317:
 3170               	.LM309:
 3171 1270 ED85      		ldd r30,Y+13
 3172 1272 FE85      		ldd r31,Y+14
 3173 1274 8181      		ldd r24,Z+1
 3174 1276 282F      		mov r18,r24
 3175 1278 30E0      		ldi r19,lo8(0)
 3176 127a D901      		movw r26,r18
 3177               	.LVL172:
 3178 127c AF77      		andi r26,lo8(127)
 3179 127e B070      		andi r27,hi8(127)
 3180               	.LM310:
 3181 1280 4281      		ldd r20,Z+2
 3182 1282 5381      		ldd r21,Z+3
 3183 1284 E40F      		add r30,r20
 3184 1286 F51F      		adc r31,r21
 3185 1288 EB87      		std Y+11,r30
 3186 128a FC87      		std Y+12,r31
 3187               	.LVL173:
 3188               	.LM311:
 3189 128c 3D01      		movw r6,r26
 3190 128e 660C      		lsl r6
 3191 1290 771C      		rol r7
 3192 1292 E091 0000 		lds r30,arguments
 3193 1296 F091 0000 		lds r31,(arguments)+1
 3194 129a E60D      		add r30,r6
 3195 129c F71D      		adc r31,r7
 3196 129e 1181      		ldd r17,Z+1
 3197               	.LM312:
 3198 12a0 FD01      		movw r30,r26
 3199 12a2 E050      		subi r30,lo8(-(meld_prog))
 3200 12a4 F040      		sbci r31,hi8(-(meld_prog))
 3201 12a6 E181      		ldd r30,Z+1
 3202 12a8 F0E0      		ldi r31,lo8(0)
 3203 12aa E050      		subi r30,lo8(-(meld_prog+2))
 3204 12ac F040      		sbci r31,hi8(-(meld_prog+2))
 3205 12ae 8081      		ld r24,Z
 3206 12b0 81FF      		sbrs r24,1
 3207 12b2 00C0      		rjmp .L212
 3208 12b4 80FF      		sbrs r24,0
 3209 12b6 00C0      		rjmp .L392
 3210               	.L212:
 3211               	.LBB320:
 3212               	.LM313:
 3213 12b8 E091 0000 		lds r30,tuples
 3214 12bc F091 0000 		lds r31,(tuples)+1
 3215 12c0 AA0F      		lsl r26
 3216 12c2 BB1F      		rol r27
 3217 12c4 AA0F      		lsl r26
 3218 12c6 BB1F      		rol r27
 3219 12c8 AE0F      		add r26,r30
 3220 12ca BF1F      		adc r27,r31
 3221 12cc CD90      		ld r12,X+
 3222 12ce DC90      		ld r13,X
 3223               	.LVL174:
 3224               	.LBB322:
 3225               	.LBB323:
 3226               	.LM314:
 3227 12d0 2F77      		andi r18,lo8(127)
 3228 12d2 3070      		andi r19,hi8(127)
 3229 12d4 220F      		lsl r18
 3230 12d6 331F      		rol r19
 3231 12d8 220F      		lsl r18
 3232 12da 331F      		rol r19
 3233 12dc E20F      		add r30,r18
 3234 12de F31F      		adc r31,r19
 3235 12e0 0190      		ld __tmp_reg__,Z+
 3236 12e2 F081      		ld r31,Z
 3237 12e4 E02D      		mov r30,__tmp_reg__
 3238               	.LVL175:
 3239               	.LM315:
 3240 12e6 3097      		sbiw r30,0
 3241 12e8 01F4      		brne .+2
 3242 12ea 00C0      		rjmp .L216
 3243 12ec 4424      		clr r4
 3244 12ee 5524      		clr r5
 3245               	.LVL176:
 3246               	.L217:
 3247 12f0 0190      		ld __tmp_reg__,Z+
 3248 12f2 F081      		ld r31,Z
 3249 12f4 E02D      		mov r30,__tmp_reg__
 3250 12f6 0894      		sec
 3251 12f8 411C      		adc r4,__zero_reg__
 3252 12fa 511C      		adc r5,__zero_reg__
 3253 12fc 3097      		sbiw r30,0
 3254 12fe 01F4      		brne .L217
 3255               	.LBE323:
 3256               	.LBE322:
 3257               	.LM316:
 3258 1300 C201      		movw r24,r4
 3259 1302 880F      		lsl r24
 3260 1304 991F      		rol r25
 3261 1306 0E94 0000 		call malloc
 3262               	.LVL177:
 3263 130a 4C01      		movw r8,r24
 3264               	.LVL178:
 3265 130c 9C01      		movw r18,r24
 3266 130e 8D8F      		std Y+29,r24
 3267 1310 3E8F      		std Y+30,r19
 3268 1312 5C01      		movw r10,r24
 3269               	.LVL179:
 3270 1314 41E0      		ldi r20,lo8(1)
 3271 1316 E42E      		mov r14,r20
 3272 1318 F12C      		mov r15,__zero_reg__
 3273 131a 012D      		mov r16,__zero_reg__
 3274 131c 112D      		mov r17,__zero_reg__
 3275               	.LVL180:
 3276               	.L218:
 3277               	.LBB321:
 3278               	.LM317:
 3279 131e 0E94 0000 		call random
 3280               	.LM318:
 3281 1322 A801      		movw r20,r16
 3282 1324 9701      		movw r18,r14
 3283 1326 0E94 0000 		call __divmodsi4
 3284 132a DC01      		movw r26,r24
 3285 132c CB01      		movw r24,r22
 3286 132e 880F      		lsl r24
 3287 1330 991F      		rol r25
 3288 1332 880D      		add r24,r8
 3289 1334 991D      		adc r25,r9
 3290 1336 FC01      		movw r30,r24
 3291 1338 2081      		ld r18,Z
 3292 133a 3181      		ldd r19,Z+1
 3293 133c D501      		movw r26,r10
 3294 133e 2D93      		st X+,r18
 3295 1340 3D93      		st X+,r19
 3296 1342 5D01      		movw r10,r26
 3297               	.LM319:
 3298 1344 F601      		movw r30,r12
 3299 1346 2481      		ldd r18,Z+4
 3300 1348 3581      		ldd r19,Z+5
 3301 134a DC01      		movw r26,r24
 3302 134c 2D93      		st X+,r18
 3303 134e 3C93      		st X,r19
 3304               	.LM320:
 3305 1350 C080      		ld r12,Z
 3306 1352 D180      		ldd r13,Z+1
 3307 1354 0894      		sec
 3308 1356 E11C      		adc r14,__zero_reg__
 3309 1358 F11C      		adc r15,__zero_reg__
 3310 135a 011D      		adc r16,__zero_reg__
 3311 135c 111D      		adc r17,__zero_reg__
 3312               	.LBE321:
 3313               	.LM321:
 3314 135e C701      		movw r24,r14
 3315 1360 0197      		sbiw r24,1
 3316 1362 8415      		cp r24,r4
 3317 1364 9505      		cpc r25,r5
 3318 1366 04F0      		brlt .L218
 3319               	.LVL181:
 3320               	.L215:
 3321               	.LBE320:
 3322               	.LM322:
 3323 1368 1414      		cp __zero_reg__,r4
 3324 136a 1504      		cpc __zero_reg__,r5
 3325 136c 04F0      		brlt .+2
 3326 136e 00C0      		rjmp .L220
 3327               	.LM323:
 3328 1370 ED85      		ldd r30,Y+13
 3329 1372 FE85      		ldd r31,Y+14
 3330 1374 3496      		adiw r30,4
 3331 1376 EB83      		std Y+3,r30
 3332 1378 FC83      		std Y+4,r31
 3333               	.LVL182:
 3334 137a 2D85      		ldd r18,Y+13
 3335 137c 3E85      		ldd r19,Y+14
 3336 137e 2B5F      		subi r18,lo8(-(5))
 3337 1380 3F4F      		sbci r19,hi8(-(5))
 3338 1382 2F83      		std Y+7,r18
 3339 1384 3887      		std Y+8,r19
 3340 1386 8D8D      		ldd r24,Y+29
 3341 1388 9E8D      		ldd r25,Y+30
 3342 138a 8D83      		std Y+5,r24
 3343 138c 9E83      		std Y+6,r25
 3344 138e 2224      		clr r2
 3345 1390 3324      		clr r3
 3346               	.LVL183:
 3347               	.L236:
 3348               	.LBB324:
 3349               	.LM324:
 3350 1392 AD81      		ldd r26,Y+5
 3351 1394 BE81      		ldd r27,Y+6
 3352               	.LVL184:
 3353 1396 AD90      		ld r10,X+
 3354 1398 BC90      		ld r11,X
 3355               	.LM325:
 3356 139a EF81      		ldd r30,Y+7
 3357 139c F885      		ldd r31,Y+8
 3358 139e D080      		ld r13,Z
 3359 13a0 8D2D      		mov r24,r13
 3360 13a2 807C      		andi r24,lo8(-64)
 3361 13a4 803C      		cpi r24,lo8(-64)
 3362 13a6 01F4      		brne .+2
 3363 13a8 00C0      		rjmp .L221
 3364 13aa 0B81      		ldd r16,Y+3
 3365 13ac 1C81      		ldd r17,Y+4
 3366               	.LVL185:
 3367 13ae CC24      		clr r12
 3368 13b0 C394      		inc r12
 3369               	.LVL186:
 3370 13b2 00C0      		rjmp .L233
 3371               	.LVL187:
 3372               	.L224:
 3373               	.LBB326:
 3374               	.LBB328:
 3375               	.LBB330:
 3376               	.LM326:
 3377 13b4 8F31      		cpi r24,lo8(31)
 3378 13b6 01F4      		brne .+2
 3379 13b8 00C0      		rjmp .L393
 3380               	.LM327:
 3381 13ba 8230      		cpi r24,lo8(2)
 3382 13bc 01F4      		brne .+2
 3383 13be 00C0      		rjmp .L394
 3384               	.LM328:
 3385 13c0 8130      		cpi r24,lo8(1)
 3386 13c2 01F4      		brne .+2
 3387 13c4 00C0      		rjmp .L366
 3388               	.LM329:
 3389 13c6 8823      		tst r24
 3390 13c8 01F4      		brne .+2
 3391 13ca 00C0      		rjmp .L366
 3392               	.LM330:
 3393 13cc 8430      		cpi r24,lo8(4)
 3394 13ce 01F0      		breq .+2
 3395 13d0 00C0      		rjmp .L229
 3396               	.LBB333:
 3397               	.LM331:
 3398 13d2 D701      		movw r26,r14
 3399 13d4 1196      		adiw r26,1
 3400 13d6 EC91      		ld r30,X
 3401 13d8 F0E0      		ldi r31,lo8(0)
 3402 13da EF71      		andi r30,lo8(31)
 3403 13dc F070      		andi r31,hi8(31)
 3404               	.L365:
 3405 13de EE0F      		lsl r30
 3406 13e0 FF1F      		rol r31
 3407 13e2 EE0F      		lsl r30
 3408 13e4 FF1F      		rol r31
 3409 13e6 2989      		ldd r18,Y+17
 3410 13e8 3A89      		ldd r19,Y+18
 3411 13ea E20F      		add r30,r18
 3412 13ec F31F      		adc r31,r19
 3413 13ee A081      		ld r26,Z
 3414 13f0 B181      		ldd r27,Z+1
 3415               	.LVL188:
 3416               	.LM332:
 3417 13f2 8701      		movw r16,r14
 3418               	.LVL189:
 3419 13f4 0E5F      		subi r16,lo8(-(2))
 3420 13f6 1F4F      		sbci r17,hi8(-(2))
 3421               	.LVL190:
 3422 13f8 F701      		movw r30,r14
 3423 13fa 8081      		ld r24,Z
 3424 13fc 90E0      		ldi r25,lo8(0)
 3425 13fe EC91      		ld r30,X
 3426 1400 F0E0      		ldi r31,lo8(0)
 3427 1402 EE0F      		lsl r30
 3428 1404 FF1F      		rol r31
 3429 1406 E40F      		add r30,r20
 3430 1408 F51F      		adc r31,r21
 3431 140a 2081      		ld r18,Z
 3432 140c 880F      		lsl r24
 3433 140e 991F      		rol r25
 3434 1410 480F      		add r20,r24
 3435 1412 591F      		adc r21,r25
 3436 1414 420F      		add r20,r18
 3437 1416 511D      		adc r21,__zero_reg__
 3438 1418 FA01      		movw r30,r20
 3439 141a 8181      		ldd r24,Z+1
 3440 141c 682F      		mov r22,r24
 3441 141e 70E0      		ldi r23,lo8(0)
 3442 1420 6F5F      		subi r22,lo8(-(1))
 3443 1422 7F4F      		sbci r23,hi8(-(1))
 3444 1424 6A0F      		add r22,r26
 3445 1426 7B1F      		adc r23,r27
 3446               	.LVL191:
 3447               	.L223:
 3448               	.LBE333:
 3449               	.LBE330:
 3450               	.LBE328:
 3451               	.LM333:
 3452 1428 CC20      		tst r12
 3453 142a 01F0      		breq .+2
 3454 142c 00C0      		rjmp .L395
 3455               	.L230:
 3456               	.LM334:
 3457 142e E0EC      		ldi r30,lo8(-64)
 3458 1430 DE22      		and r13,r30
 3459 1432 F0E4      		ldi r31,lo8(64)
 3460 1434 DF16      		cp r13,r31
 3461 1436 01F4      		brne .+2
 3462 1438 00C0      		rjmp .L232
 3463               	.L397:
 3464               	.LM335:
 3465 143a D801      		movw r26,r16
 3466               	.LVL192:
 3467 143c 1196      		adiw r26,1
 3468 143e DC90      		ld r13,X
 3469               	.LVL193:
 3470               	.L233:
 3471               	.LM336:
 3472 1440 22E0      		ldi r18,lo8(2)
 3473 1442 E22E      		mov r14,r18
 3474 1444 F12C      		mov r15,__zero_reg__
 3475 1446 E00E      		add r14,r16
 3476 1448 F11E      		adc r15,r17
 3477               	.LM337:
 3478 144a 4091 0000 		lds r20,arguments
 3479 144e 5091 0000 		lds r21,(arguments)+1
 3480 1452 F801      		movw r30,r16
 3481 1454 A081      		ld r26,Z
 3482 1456 B0E0      		ldi r27,lo8(0)
 3483 1458 AA0F      		lsl r26
 3484 145a BB1F      		rol r27
 3485 145c FA01      		movw r30,r20
 3486 145e E60D      		add r30,r6
 3487 1460 F71D      		adc r31,r7
 3488 1462 8081      		ld r24,Z
 3489 1464 A40F      		add r26,r20
 3490 1466 B51F      		adc r27,r21
 3491 1468 FD01      		movw r30,r26
 3492 146a E80F      		add r30,r24
 3493 146c F11D      		adc r31,__zero_reg__
 3494 146e 8080      		ld r8,Z
 3495               	.LVL194:
 3496               	.LM338:
 3497 1470 F501      		movw r30,r10
 3498 1472 8081      		ld r24,Z
 3499 1474 E82F      		mov r30,r24
 3500 1476 F0E0      		ldi r31,lo8(0)
 3501 1478 EE0F      		lsl r30
 3502 147a FF1F      		rol r31
 3503 147c E40F      		add r30,r20
 3504 147e F51F      		adc r31,r21
 3505 1480 8081      		ld r24,Z
 3506 1482 A80F      		add r26,r24
 3507 1484 B11D      		adc r27,__zero_reg__
 3508 1486 1196      		adiw r26,1
 3509 1488 9C90      		ld r9,X
 3510               	.LM339:
 3511 148a 8D2D      		mov r24,r13
 3512 148c 8F73      		andi r24,lo8(63)
 3513               	.LBB336:
 3514               	.LBB334:
 3515               	.LM340:
 3516 148e 8330      		cpi r24,lo8(3)
 3517 1490 01F4      		brne .+2
 3518 1492 00C0      		rjmp .L396
 3519               	.LVL195:
 3520               	.LM341:
 3521 1494 682F      		mov r22,r24
 3522 1496 70E0      		ldi r23,lo8(0)
 3523 1498 85FF      		sbrs r24,5
 3524 149a 00C0      		rjmp .L224
 3525 149c 6F71      		andi r22,lo8(31)
 3526 149e 7070      		andi r23,hi8(31)
 3527 14a0 660F      		lsl r22
 3528 14a2 771F      		rol r23
 3529 14a4 660F      		lsl r22
 3530 14a6 771F      		rol r23
 3531 14a8 2989      		ldd r18,Y+17
 3532 14aa 3A89      		ldd r19,Y+18
 3533 14ac 620F      		add r22,r18
 3534 14ae 731F      		adc r23,r19
 3535 14b0 8701      		movw r16,r14
 3536               	.LVL196:
 3537               	.LBE334:
 3538               	.LBE336:
 3539               	.LM342:
 3540 14b2 CC20      		tst r12
 3541 14b4 01F4      		brne .+2
 3542 14b6 00C0      		rjmp .L230
 3543               	.LVL197:
 3544               	.L395:
 3545 14b8 892D      		mov r24,r9
 3546 14ba 90E0      		ldi r25,lo8(0)
 3547 14bc 0196      		adiw r24,1
 3548 14be 8A0D      		add r24,r10
 3549 14c0 9B1D      		adc r25,r11
 3550 14c2 482D      		mov r20,r8
 3551 14c4 50E0      		ldi r21,lo8(0)
 3552 14c6 0E94 0000 		call memcmp
 3553               	.LVL198:
 3554 14ca CC24      		clr r12
 3555 14cc 0097      		sbiw r24,0
 3556 14ce 01F0      		breq .L231
 3557 14d0 CC24      		clr r12
 3558 14d2 C394      		inc r12
 3559               	.L231:
 3560 14d4 B1E0      		ldi r27,lo8(1)
 3561 14d6 CB26      		eor r12,r27
 3562               	.LM343:
 3563 14d8 E0EC      		ldi r30,lo8(-64)
 3564 14da DE22      		and r13,r30
 3565 14dc F0E4      		ldi r31,lo8(64)
 3566 14de DF16      		cp r13,r31
 3567 14e0 01F0      		breq .+2
 3568 14e2 00C0      		rjmp .L397
 3569               	.LVL199:
 3570               	.L232:
 3571               	.LBE326:
 3572               	.LM344:
 3573 14e4 CC20      		tst r12
 3574 14e6 01F4      		brne .L221
 3575               	.LVL200:
 3576               	.L234:
 3577               	.LBE324:
 3578               	.LM345:
 3579 14e8 0894      		sec
 3580 14ea 211C      		adc r2,__zero_reg__
 3581 14ec 311C      		adc r3,__zero_reg__
 3582 14ee ED81      		ldd r30,Y+5
 3583 14f0 FE81      		ldd r31,Y+6
 3584 14f2 3296      		adiw r30,2
 3585 14f4 ED83      		std Y+5,r30
 3586 14f6 FE83      		std Y+6,r31
 3587 14f8 2414      		cp r2,r4
 3588 14fa 3504      		cpc r3,r5
 3589 14fc 04F4      		brge .+2
 3590 14fe 00C0      		rjmp .L236
 3591               	.LVL201:
 3592               	.L220:
 3593               	.LM346:
 3594 1500 8D8D      		ldd r24,Y+29
 3595 1502 9E8D      		ldd r25,Y+30
 3596 1504 0E94 0000 		call free
 3597               	.LVL202:
 3598 1508 2B85      		ldd r18,Y+11
 3599 150a 3C85      		ldd r19,Y+12
 3600 150c 2D87      		std Y+13,r18
 3601 150e 3E87      		std Y+14,r19
 3602               	.LVL203:
 3603 1510 D901      		movw r26,r18
 3604 1512 00C0      		rjmp .L364
 3605               	.LVL204:
 3606               	.L396:
 3607               	.LBB339:
 3608               	.LBB325:
 3609               	.LBB327:
 3610               	.LBB329:
 3611               	.LM347:
 3612 1514 60E0      		ldi r22,lo8(blockId)
 3613 1516 70E0      		ldi r23,hi8(blockId)
 3614 1518 8701      		movw r16,r14
 3615               	.LVL205:
 3616 151a 00C0      		rjmp .L223
 3617               	.LVL206:
 3618               	.L366:
 3619               	.LBB332:
 3620               	.LM348:
 3621 151c 0A5F      		subi r16,lo8(-(6))
 3622 151e 1F4F      		sbci r17,hi8(-(6))
 3623               	.LVL207:
 3624 1520 B701      		movw r22,r14
 3625 1522 00C0      		rjmp .L223
 3626               	.LVL208:
 3627               	.L393:
 3628               	.LBE332:
 3629               	.LM349:
 3630 1524 BE01      		movw r22,r28
 3631 1526 6F5F      		subi r22,lo8(-(1))
 3632 1528 7F4F      		sbci r23,hi8(-(1))
 3633 152a 8701      		movw r16,r14
 3634               	.LVL209:
 3635 152c 00C0      		rjmp .L223
 3636               	.LVL210:
 3637               	.L394:
 3638               	.LBB331:
 3639               	.LM350:
 3640 152e D701      		movw r26,r14
 3641 1530 1196      		adiw r26,1
 3642 1532 EC91      		ld r30,X
 3643 1534 EF71      		andi r30,lo8(31)
 3644 1536 F0E0      		ldi r31,lo8(0)
 3645 1538 00C0      		rjmp .L365
 3646               	.LVL211:
 3647               	.L221:
 3648               	.LBE331:
 3649               	.LBE329:
 3650               	.LBE327:
 3651               	.LBE325:
 3652               	.LM351:
 3653 153a 8D85      		ldd r24,Y+13
 3654 153c 9E85      		ldd r25,Y+14
 3655 153e 0E94 0000 		call advance
 3656               	.LVL212:
 3657 1542 BC01      		movw r22,r24
 3658 1544 C501      		movw r24,r10
 3659 1546 4F85      		ldd r20,Y+15
 3660 1548 5889      		ldd r21,Y+16
 3661 154a 2989      		ldd r18,Y+17
 3662 154c 3A89      		ldd r19,Y+18
 3663 154e 0E94 0000 		call tuple_process
 3664 1552 892B      		or r24,r25
 3665 1554 01F4      		brne .L234
 3666               	.LM352:
 3667 1556 8D8D      		ldd r24,Y+29
 3668 1558 9E8D      		ldd r25,Y+30
 3669 155a 0E94 0000 		call free
 3670 155e 20E0      		ldi r18,lo8(0)
 3671 1560 30E0      		ldi r19,hi8(0)
 3672 1562 00C0      		rjmp .L235
 3673               	.LVL213:
 3674               	.L382:
 3675               	.LBE339:
 3676               	.LBE317:
 3677               	.LM353:
 3678 1564 2091 0000 		lds r18,__iob+4
 3679 1568 3091 0000 		lds r19,(__iob+4)+1
 3680 156c 80E0      		ldi r24,lo8(.LC29)
 3681 156e 90E0      		ldi r25,hi8(.LC29)
 3682 1570 61E0      		ldi r22,lo8(1)
 3683 1572 70E0      		ldi r23,hi8(1)
 3684 1574 4AE1      		ldi r20,lo8(26)
 3685 1576 50E0      		ldi r21,hi8(26)
 3686 1578 0E94 0000 		call fwrite
 3687               	.LM354:
 3688 157c 80E0      		ldi r24,lo8(.LC19)
 3689 157e 90E0      		ldi r25,hi8(.LC19)
 3690 1580 68E7      		ldi r22,lo8(1144)
 3691 1582 74E0      		ldi r23,hi8(1144)
 3692 1584 40E0      		ldi r20,lo8(.LC20)
 3693 1586 50E0      		ldi r21,hi8(.LC20)
 3694 1588 0E94 0000 		call __myassert
 3695 158c 00C0      		rjmp .L209
 3696               	.L386:
 3697               	.LM355:
 3698 158e 2F85      		ldd r18,Y+15
 3699 1590 3889      		ldd r19,Y+16
 3700 1592 1216      		cp __zero_reg__,r18
 3701 1594 1306      		cpc __zero_reg__,r19
 3702 1596 04F0      		brlt .+2
 3703 1598 00C0      		rjmp .L209
 3704               	.LBB342:
 3705               	.LM356:
 3706 159a 8A01      		movw r16,r20
 3707               	.LVL214:
 3708 159c 0F71      		andi r16,lo8(31)
 3709 159e 1070      		andi r17,hi8(31)
 3710 15a0 000F      		lsl r16
 3711 15a2 111F      		rol r17
 3712 15a4 000F      		lsl r16
 3713 15a6 111F      		rol r17
 3714 15a8 4989      		ldd r20,Y+17
 3715 15aa 5A89      		ldd r21,Y+18
 3716 15ac 040F      		add r16,r20
 3717 15ae 151F      		adc r17,r21
 3718               	.LM357:
 3719 15b0 D801      		movw r26,r16
 3720 15b2 ED91      		ld r30,X+
 3721 15b4 FC91      		ld r31,X
 3722 15b6 8081      		ld r24,Z
 3723 15b8 90E0      		ldi r25,lo8(0)
 3724 15ba 880F      		lsl r24
 3725 15bc 991F      		rol r25
 3726 15be E091 0000 		lds r30,arguments
 3727 15c2 F091 0000 		lds r31,(arguments)+1
 3728 15c6 E80F      		add r30,r24
 3729 15c8 F91F      		adc r31,r25
 3730 15ca F180      		ldd r15,Z+1
 3731               	.LVL215:
 3732 15cc 8F2D      		mov r24,r15
 3733 15ce 90E0      		ldi r25,lo8(0)
 3734 15d0 0E94 0000 		call malloc
 3735 15d4 F801      		movw r30,r16
 3736 15d6 6081      		ld r22,Z
 3737 15d8 7181      		ldd r23,Z+1
 3738 15da 4F2D      		mov r20,r15
 3739 15dc 50E0      		ldi r21,lo8(0)
 3740 15de 0E94 0000 		call memcpy
 3741 15e2 6FEF      		ldi r22,lo8(-1)
 3742 15e4 7FEF      		ldi r23,hi8(-1)
 3743 15e6 4989      		ldd r20,Y+17
 3744 15e8 5A89      		ldd r21,Y+18
 3745 15ea 0E94 0000 		call tuple_handle
 3746               	.LM358:
 3747 15ee AD85      		ldd r26,Y+13
 3748 15f0 BE85      		ldd r27,Y+14
 3749 15f2 EC91      		ld r30,X
 3750 15f4 F0E0      		ldi r31,lo8(0)
 3751 15f6 EF71      		andi r30,lo8(31)
 3752 15f8 F070      		andi r31,hi8(31)
 3753 15fa EE0F      		lsl r30
 3754 15fc FF1F      		rol r31
 3755 15fe EE0F      		lsl r30
 3756 1600 FF1F      		rol r31
 3757 1602 2989      		ldd r18,Y+17
 3758 1604 3A89      		ldd r19,Y+18
 3759 1606 E20F      		add r30,r18
 3760 1608 F31F      		adc r31,r19
 3761 160a 1082      		st Z,__zero_reg__
 3762 160c 1182      		std Z+1,__zero_reg__
 3763 160e 1282      		std Z+2,__zero_reg__
 3764 1610 1382      		std Z+3,__zero_reg__
 3765 1612 00C0      		rjmp .L209
 3766               	.LVL216:
 3767               	.L385:
 3768               	.LBE342:
 3769               	.LBB343:
 3770               	.LM359:
 3771 1614 ED85      		ldd r30,Y+13
 3772 1616 FE85      		ldd r31,Y+14
 3773 1618 A181      		ldd r26,Z+1
 3774 161a EA2F      		mov r30,r26
 3775 161c E295      		swap r30
 3776 161e E695      		lsr r30
 3777 1620 E770      		andi r30,0x7
 3778 1622 F0E0      		ldi r31,lo8(0)
 3779 1624 4370      		andi r20,lo8(3)
 3780 1626 5070      		andi r21,hi8(3)
 3781 1628 440F      		lsl r20
 3782 162a 551F      		rol r21
 3783 162c 440F      		lsl r20
 3784 162e 551F      		rol r21
 3785 1630 440F      		lsl r20
 3786 1632 551F      		rol r21
 3787 1634 E42B      		or r30,r20
 3788 1636 F52B      		or r31,r21
 3789 1638 EE0F      		lsl r30
 3790 163a FF1F      		rol r31
 3791 163c EE0F      		lsl r30
 3792 163e FF1F      		rol r31
 3793 1640 2989      		ldd r18,Y+17
 3794 1642 3A89      		ldd r19,Y+18
 3795 1644 E20F      		add r30,r18
 3796 1646 F31F      		adc r31,r19
 3797 1648 A080      		ld r10,Z
 3798 164a B180      		ldd r11,Z+1
 3799 164c C280      		ldd r12,Z+2
 3800 164e D380      		ldd r13,Z+3
 3801               	.LVL217:
 3802               	.LM360:
 3803 1650 B0E0      		ldi r27,lo8(0)
 3804 1652 AF71      		andi r26,lo8(31)
 3805 1654 B070      		andi r27,hi8(31)
 3806 1656 AA0F      		lsl r26
 3807 1658 BB1F      		rol r27
 3808 165a AA0F      		lsl r26
 3809 165c BB1F      		rol r27
 3810               	.LVL218:
 3811 165e A20F      		add r26,r18
 3812 1660 B31F      		adc r27,r19
 3813 1662 ED90      		ld r14,X+
 3814 1664 FD90      		ld r15,X+
 3815 1666 0D91      		ld r16,X+
 3816 1668 1C91      		ld r17,X
 3817               	.LVL219:
 3818               	.LM361:
 3819 166a AD85      		ldd r26,Y+13
 3820 166c BE85      		ldd r27,Y+14
 3821 166e 1296      		adiw r26,2
 3822 1670 8C91      		ld r24,X
 3823               	.LBB347:
 3824               	.LBB351:
 3825               	.LM362:
 3826 1672 8330      		cpi r24,lo8(3)
 3827 1674 01F4      		brne .+2
 3828 1676 00C0      		rjmp .L398
 3829               	.LM363:
 3830 1678 282F      		mov r18,r24
 3831 167a 30E0      		ldi r19,lo8(0)
 3832 167c 85FD      		sbrc r24,5
 3833 167e 00C0      		rjmp .L399
 3834               	.LM364:
 3835 1680 8F31      		cpi r24,lo8(31)
 3836 1682 01F4      		brne .+2
 3837 1684 00C0      		rjmp .L400
 3838               	.LBE351:
 3839               	.LBE347:
 3840               	.LM365:
 3841 1686 2D85      		ldd r18,Y+13
 3842 1688 3E85      		ldd r19,Y+14
 3843               	.LVL220:
 3844 168a 2D5F      		subi r18,lo8(-(3))
 3845 168c 3F4F      		sbci r19,hi8(-(3))
 3846               	.LBB358:
 3847               	.LBB354:
 3848               	.LM366:
 3849 168e 8230      		cpi r24,lo8(2)
 3850 1690 01F4      		brne .+2
 3851 1692 00C0      		rjmp .L401
 3852               	.LM367:
 3853 1694 8130      		cpi r24,lo8(1)
 3854 1696 01F4      		brne .+2
 3855 1698 00C0      		rjmp .L368
 3856               	.LM368:
 3857 169a 8823      		tst r24
 3858 169c 01F4      		brne .+2
 3859 169e 00C0      		rjmp .L368
 3860               	.LM369:
 3861 16a0 8430      		cpi r24,lo8(4)
 3862 16a2 01F0      		breq .+4
 3863 16a4 0C94 0000 		jmp .L246
 3864               	.LBB353:
 3865               	.LM370:
 3866 16a8 D901      		movw r26,r18
 3867 16aa 1196      		adiw r26,1
 3868 16ac EC91      		ld r30,X
 3869 16ae F0E0      		ldi r31,lo8(0)
 3870 16b0 EF71      		andi r30,lo8(31)
 3871 16b2 F070      		andi r31,hi8(31)
 3872 16b4 EE0F      		lsl r30
 3873 16b6 FF1F      		rol r31
 3874 16b8 EE0F      		lsl r30
 3875 16ba FF1F      		rol r31
 3876 16bc 4989      		ldd r20,Y+17
 3877 16be 5A89      		ldd r21,Y+18
 3878 16c0 E40F      		add r30,r20
 3879 16c2 F51F      		adc r31,r21
 3880 16c4 4081      		ld r20,Z
 3881 16c6 5181      		ldd r21,Z+1
 3882               	.LVL221:
 3883               	.LM371:
 3884 16c8 A091 0000 		lds r26,arguments
 3885 16cc B091 0000 		lds r27,(arguments)+1
 3886 16d0 F901      		movw r30,r18
 3887 16d2 8081      		ld r24,Z
 3888               	.LVL222:
 3889               	.L367:
 3890 16d4 90E0      		ldi r25,lo8(0)
 3891 16d6 FA01      		movw r30,r20
 3892 16d8 2081      		ld r18,Z
 3893               	.LVL223:
 3894 16da E22F      		mov r30,r18
 3895 16dc F0E0      		ldi r31,lo8(0)
 3896 16de EE0F      		lsl r30
 3897 16e0 FF1F      		rol r31
 3898 16e2 EA0F      		add r30,r26
 3899 16e4 FB1F      		adc r31,r27
 3900 16e6 2081      		ld r18,Z
 3901 16e8 880F      		lsl r24
 3902 16ea 991F      		rol r25
 3903 16ec A80F      		add r26,r24
 3904 16ee B91F      		adc r27,r25
 3905 16f0 A20F      		add r26,r18
 3906 16f2 B11D      		adc r27,__zero_reg__
 3907 16f4 1196      		adiw r26,1
 3908 16f6 8C91      		ld r24,X
 3909 16f8 E82F      		mov r30,r24
 3910 16fa F0E0      		ldi r31,lo8(0)
 3911 16fc 3196      		adiw r30,1
 3912 16fe E40F      		add r30,r20
 3913 1700 F51F      		adc r31,r21
 3914 1702 00C0      		rjmp .L240
 3915               	.LVL224:
 3916               	.L387:
 3917               	.LBE353:
 3918               	.LBE354:
 3919               	.LBE358:
 3920               	.LBE343:
 3921               	.LBB362:
 3922               	.LM372:
 3923 1704 0D85      		ldd r16,Y+13
 3924 1706 1E85      		ldd r17,Y+14
 3925               	.LVL225:
 3926 1708 0D5F      		subi r16,lo8(-(3))
 3927 170a 1F4F      		sbci r17,hi8(-(3))
 3928               	.LM373:
 3929 170c 862F      		mov r24,r22
 3930 170e 8F73      		andi r24,lo8(63)
 3931               	.LBB367:
 3932               	.LBB371:
 3933               	.LM374:
 3934 1710 8330      		cpi r24,lo8(3)
 3935 1712 01F4      		brne .+2
 3936 1714 00C0      		rjmp .L402
 3937               	.LM375:
 3938 1716 282F      		mov r18,r24
 3939 1718 30E0      		ldi r19,lo8(0)
 3940 171a 85FD      		sbrc r24,5
 3941 171c 00C0      		rjmp .L403
 3942               	.LM376:
 3943 171e 8F31      		cpi r24,lo8(31)
 3944 1720 01F4      		brne .+2
 3945 1722 00C0      		rjmp .L404
 3946               	.LM377:
 3947 1724 8230      		cpi r24,lo8(2)
 3948 1726 01F4      		brne .+2
 3949 1728 00C0      		rjmp .L405
 3950               	.LM378:
 3951 172a 8130      		cpi r24,lo8(1)
 3952 172c 01F4      		brne .+2
 3953 172e 00C0      		rjmp .L370
 3954               	.LM379:
 3955 1730 8823      		tst r24
 3956 1732 01F4      		brne .+2
 3957 1734 00C0      		rjmp .L370
 3958               	.LM380:
 3959 1736 8430      		cpi r24,lo8(4)
 3960 1738 01F0      		breq .+2
 3961 173a 00C0      		rjmp .L257
 3962               	.LBB373:
 3963               	.LM381:
 3964 173c D801      		movw r26,r16
 3965 173e 1196      		adiw r26,1
 3966 1740 EC91      		ld r30,X
 3967 1742 F0E0      		ldi r31,lo8(0)
 3968 1744 EF71      		andi r30,lo8(31)
 3969 1746 F070      		andi r31,hi8(31)
 3970               	.L369:
 3971 1748 EE0F      		lsl r30
 3972 174a FF1F      		rol r31
 3973 174c EE0F      		lsl r30
 3974 174e FF1F      		rol r31
 3975 1750 2989      		ldd r18,Y+17
 3976 1752 3A89      		ldd r19,Y+18
 3977 1754 E20F      		add r30,r18
 3978 1756 F31F      		adc r31,r19
 3979 1758 4081      		ld r20,Z
 3980 175a 5181      		ldd r21,Z+1
 3981               	.LVL226:
 3982               	.LM382:
 3983 175c 72E0      		ldi r23,lo8(2)
 3984 175e E72E      		mov r14,r23
 3985 1760 F12C      		mov r15,__zero_reg__
 3986               	.LVL227:
 3987 1762 E00E      		add r14,r16
 3988 1764 F11E      		adc r15,r17
 3989               	.LM383:
 3990 1766 A091 0000 		lds r26,arguments
 3991 176a B091 0000 		lds r27,(arguments)+1
 3992 176e F801      		movw r30,r16
 3993 1770 8081      		ld r24,Z
 3994 1772 90E0      		ldi r25,lo8(0)
 3995 1774 FA01      		movw r30,r20
 3996 1776 2081      		ld r18,Z
 3997 1778 E22F      		mov r30,r18
 3998 177a F0E0      		ldi r31,lo8(0)
 3999 177c EE0F      		lsl r30
 4000 177e FF1F      		rol r31
 4001 1780 EA0F      		add r30,r26
 4002 1782 FB1F      		adc r31,r27
 4003 1784 2081      		ld r18,Z
 4004 1786 880F      		lsl r24
 4005 1788 991F      		rol r25
 4006 178a A80F      		add r26,r24
 4007 178c B91F      		adc r27,r25
 4008 178e A20F      		add r26,r18
 4009 1790 B11D      		adc r27,__zero_reg__
 4010 1792 1196      		adiw r26,1
 4011 1794 8C91      		ld r24,X
 4012 1796 C82E      		mov r12,r24
 4013               	.LVL228:
 4014 1798 DD24      		clr r13
 4015 179a 0894      		sec
 4016 179c C11C      		adc r12,__zero_reg__
 4017 179e D11C      		adc r13,__zero_reg__
 4018 17a0 C40E      		add r12,r20
 4019 17a2 D51E      		adc r13,r21
 4020 17a4 00C0      		rjmp .L251
 4021               	.LVL229:
 4022               	.L229:
 4023               	.LBE373:
 4024               	.LBE371:
 4025               	.LBE367:
 4026               	.LBE362:
 4027               	.LBB394:
 4028               	.LBB319:
 4029               	.LBB338:
 4030               	.LBB337:
 4031               	.LBB335:
 4032               	.LM384:
 4033 17a6 80E0      		ldi r24,lo8(.LC19)
 4034 17a8 90E0      		ldi r25,hi8(.LC19)
 4035 17aa 69EF      		ldi r22,lo8(505)
 4036 17ac 71E0      		ldi r23,hi8(505)
 4037 17ae 40E0      		ldi r20,lo8(.LC20)
 4038 17b0 50E0      		ldi r21,hi8(.LC20)
 4039 17b2 0E94 0000 		call __myassert
 4040               	.LM385:
 4041 17b6 80E0      		ldi r24,lo8(.LC19)
 4042 17b8 90E0      		ldi r25,hi8(.LC19)
 4043 17ba 6CEF      		ldi r22,lo8(508)
 4044 17bc 71E0      		ldi r23,hi8(508)
 4045 17be 40E0      		ldi r20,lo8(.LC20)
 4046 17c0 50E0      		ldi r21,hi8(.LC20)
 4047 17c2 0E94 0000 		call __myassert
 4048 17c6 D801      		movw r26,r16
 4049 17c8 1196      		adiw r26,1
 4050 17ca DC90      		ld r13,X
 4051 17cc 8701      		movw r16,r14
 4052               	.LVL230:
 4053 17ce 60E0      		ldi r22,lo8(0)
 4054 17d0 70E0      		ldi r23,hi8(0)
 4055 17d2 00C0      		rjmp .L223
 4056               	.LVL231:
 4057               	.L388:
 4058               	.LBE335:
 4059               	.LBE337:
 4060               	.LBE338:
 4061               	.LBE319:
 4062               	.LBE394:
 4063               	.LBB395:
 4064               	.LM386:
 4065 17d4 ED84      		ldd r14,Y+13
 4066 17d6 FE84      		ldd r15,Y+14
 4067               	.LVL232:
 4068 17d8 E2E0      		ldi r30,lo8(2)
 4069 17da F0E0      		ldi r31,hi8(2)
 4070 17dc EE0E      		add r14,r30
 4071 17de FF1E      		adc r15,r31
 4072               	.LM387:
 4073 17e0 CD84      		ldd r12,Y+13
 4074 17e2 DE84      		ldd r13,Y+14
 4075               	.LVL233:
 4076 17e4 0894      		sec
 4077 17e6 C11C      		adc r12,__zero_reg__
 4078 17e8 D11C      		adc r13,__zero_reg__
 4079 17ea 4F70      		andi r20,lo8(15)
 4080 17ec 5070      		andi r21,hi8(15)
 4081 17ee 440F      		lsl r20
 4082 17f0 551F      		rol r21
 4083 17f2 440F      		lsl r20
 4084 17f4 551F      		rol r21
 4085 17f6 AD85      		ldd r26,Y+13
 4086 17f8 BE85      		ldd r27,Y+14
 4087 17fa 1196      		adiw r26,1
 4088 17fc 3C91      		ld r19,X
 4089 17fe 832F      		mov r24,r19
 4090 1800 8295      		swap r24
 4091 1802 8695      		lsr r24
 4092 1804 8695      		lsr r24
 4093 1806 8370      		andi r24,0x3
 4094 1808 842B      		or r24,r20
 4095               	.LBB401:
 4096               	.LBB405:
 4097               	.LM388:
 4098 180a 8330      		cpi r24,lo8(3)
 4099 180c 01F4      		brne .+2
 4100 180e 00C0      		rjmp .L406
 4101               	.LM389:
 4102 1810 482F      		mov r20,r24
 4103 1812 50E0      		ldi r21,lo8(0)
 4104 1814 85FD      		sbrc r24,5
 4105 1816 00C0      		rjmp .L407
 4106               	.LM390:
 4107 1818 8F31      		cpi r24,lo8(31)
 4108 181a 01F4      		brne .+2
 4109 181c 00C0      		rjmp .L408
 4110               	.LM391:
 4111 181e 8230      		cpi r24,lo8(2)
 4112 1820 01F4      		brne .+2
 4113 1822 00C0      		rjmp .L409
 4114               	.LM392:
 4115 1824 8130      		cpi r24,lo8(1)
 4116 1826 01F4      		brne .+2
 4117 1828 00C0      		rjmp .L374
 4118               	.LM393:
 4119 182a 8823      		tst r24
 4120 182c 01F4      		brne .+2
 4121 182e 00C0      		rjmp .L374
 4122               	.LM394:
 4123 1830 8430      		cpi r24,lo8(4)
 4124 1832 01F0      		breq .+2
 4125 1834 00C0      		rjmp .L319
 4126               	.LBB407:
 4127               	.LM395:
 4128 1836 D701      		movw r26,r14
 4129 1838 1196      		adiw r26,1
 4130 183a EC91      		ld r30,X
 4131 183c F0E0      		ldi r31,lo8(0)
 4132 183e EF71      		andi r30,lo8(31)
 4133 1840 F070      		andi r31,hi8(31)
 4134               	.L373:
 4135 1842 EE0F      		lsl r30
 4136 1844 FF1F      		rol r31
 4137 1846 EE0F      		lsl r30
 4138 1848 FF1F      		rol r31
 4139 184a 4989      		ldd r20,Y+17
 4140 184c 5A89      		ldd r21,Y+18
 4141 184e E40F      		add r30,r20
 4142 1850 F51F      		adc r31,r21
 4143 1852 4081      		ld r20,Z
 4144 1854 5181      		ldd r21,Z+1
 4145               	.LVL234:
 4146               	.LM396:
 4147 1856 B701      		movw r22,r14
 4148 1858 6E5F      		subi r22,lo8(-(2))
 4149 185a 7F4F      		sbci r23,hi8(-(2))
 4150               	.LVL235:
 4151               	.LM397:
 4152 185c A091 0000 		lds r26,arguments
 4153 1860 B091 0000 		lds r27,(arguments)+1
 4154 1864 F701      		movw r30,r14
 4155 1866 8081      		ld r24,Z
 4156 1868 90E0      		ldi r25,lo8(0)
 4157 186a FA01      		movw r30,r20
 4158 186c 2081      		ld r18,Z
 4159 186e E22F      		mov r30,r18
 4160 1870 F0E0      		ldi r31,lo8(0)
 4161 1872 EE0F      		lsl r30
 4162 1874 FF1F      		rol r31
 4163               	.LVL236:
 4164 1876 EA0F      		add r30,r26
 4165 1878 FB1F      		adc r31,r27
 4166 187a 2081      		ld r18,Z
 4167 187c 880F      		lsl r24
 4168 187e 991F      		rol r25
 4169 1880 A80F      		add r26,r24
 4170 1882 B91F      		adc r27,r25
 4171 1884 A20F      		add r26,r18
 4172 1886 B11D      		adc r27,__zero_reg__
 4173 1888 1196      		adiw r26,1
 4174 188a 8C91      		ld r24,X
 4175 188c 082F      		mov r16,r24
 4176 188e 10E0      		ldi r17,lo8(0)
 4177 1890 0F5F      		subi r16,lo8(-(1))
 4178 1892 1F4F      		sbci r17,hi8(-(1))
 4179 1894 040F      		add r16,r20
 4180 1896 151F      		adc r17,r21
 4181 1898 00C0      		rjmp .L313
 4182               	.LVL237:
 4183               	.L399:
 4184               	.LBE407:
 4185               	.LBE405:
 4186               	.LBE401:
 4187               	.LBE395:
 4188               	.LBB424:
 4189               	.LBB346:
 4190               	.LBB350:
 4191               	.LM398:
 4192 189a F901      		movw r30,r18
 4193 189c EF71      		andi r30,lo8(31)
 4194 189e F070      		andi r31,hi8(31)
 4195 18a0 EE0F      		lsl r30
 4196 18a2 FF1F      		rol r31
 4197 18a4 EE0F      		lsl r30
 4198 18a6 FF1F      		rol r31
 4199 18a8 2989      		ldd r18,Y+17
 4200 18aa 3A89      		ldd r19,Y+18
 4201 18ac E20F      		add r30,r18
 4202 18ae F31F      		adc r31,r19
 4203               	.LVL238:
 4204               	.L240:
 4205               	.LBE350:
 4206               	.LBE346:
 4207               	.LM399:
 4208 18b0 2081      		ld r18,Z
 4209 18b2 3181      		ldd r19,Z+1
 4210 18b4 4281      		ldd r20,Z+2
 4211 18b6 5381      		ldd r21,Z+3
 4212               	.LVL239:
 4213 18b8 C501      		movw r24,r10
 4214 18ba B701      		movw r22,r14
 4215 18bc 0F85      		ldd r16,Y+15
 4216 18be 1889      		ldd r17,Y+16
 4217 18c0 0E94 0000 		call tuple_send
 4218               	.LVL240:
 4219 18c4 00C0      		rjmp .L209
 4220               	.LVL241:
 4221               	.L392:
 4222               	.LBE424:
 4223               	.LBB425:
 4224               	.LBB340:
 4225               	.LM400:
 4226 18c6 A60D      		add r26,r6
 4227 18c8 B71D      		adc r27,r7
 4228 18ca AA0F      		lsl r26
 4229 18cc BB1F      		rol r27
 4230               	.LVL242:
 4231 18ce 6091 0000 		lds r22,persistent
 4232 18d2 7091 0000 		lds r23,(persistent)+1
 4233 18d6 6A0F      		add r22,r26
 4234 18d8 7B1F      		adc r23,r27
 4235 18da 6987      		std Y+9,r22
 4236 18dc 7A87      		std Y+10,r23
 4237               	.LVL243:
 4238               	.LM401:
 4239 18de DB01      		movw r26,r22
 4240               	.LVL244:
 4241 18e0 1496      		adiw r26,4
 4242 18e2 4D90      		ld r4,X+
 4243 18e4 5C90      		ld r5,X
 4244 18e6 1597      		sbiw r26,4+1
 4245               	.LVL245:
 4246               	.LM402:
 4247 18e8 C201      		movw r24,r4
 4248 18ea 880F      		lsl r24
 4249 18ec 991F      		rol r25
 4250 18ee 0E94 0000 		call malloc
 4251 18f2 9C01      		movw r18,r24
 4252 18f4 1C01      		movw r2,r24
 4253               	.LVL246:
 4254 18f6 8D8F      		std Y+29,r24
 4255 18f8 9E8F      		std Y+30,r25
 4256               	.LM403:
 4257 18fa 1414      		cp __zero_reg__,r4
 4258 18fc 1504      		cpc __zero_reg__,r5
 4259 18fe 04F0      		brlt .+2
 4260 1900 00C0      		rjmp .L213
 4261 1902 4901      		movw r8,r18
 4262               	.LVL247:
 4263 1904 A12E      		mov r10,r17
 4264               	.LVL248:
 4265 1906 BB24      		clr r11
 4266 1908 F1E0      		ldi r31,lo8(1)
 4267 190a EF2E      		mov r14,r31
 4268 190c F12C      		mov r15,__zero_reg__
 4269 190e 012D      		mov r16,__zero_reg__
 4270 1910 112D      		mov r17,__zero_reg__
 4271               	.LVL249:
 4272 1912 CC24      		clr r12
 4273 1914 DD24      		clr r13
 4274               	.LVL250:
 4275               	.L214:
 4276               	.LBB341:
 4277               	.LM404:
 4278 1916 0E94 0000 		call random
 4279               	.LM405:
 4280 191a A801      		movw r20,r16
 4281 191c 9701      		movw r18,r14
 4282 191e 0E94 0000 		call __divmodsi4
 4283 1922 DC01      		movw r26,r24
 4284 1924 CB01      		movw r24,r22
 4285 1926 880F      		lsl r24
 4286 1928 991F      		rol r25
 4287 192a 820D      		add r24,r2
 4288 192c 931D      		adc r25,r3
 4289 192e FC01      		movw r30,r24
 4290 1930 2081      		ld r18,Z
 4291 1932 3181      		ldd r19,Z+1
 4292 1934 D401      		movw r26,r8
 4293 1936 2D93      		st X+,r18
 4294 1938 3D93      		st X+,r19
 4295 193a 4D01      		movw r8,r26
 4296               	.LM406:
 4297 193c E985      		ldd r30,Y+9
 4298 193e FA85      		ldd r31,Y+10
 4299 1940 2081      		ld r18,Z
 4300 1942 3181      		ldd r19,Z+1
 4301 1944 2C0D      		add r18,r12
 4302 1946 3D1D      		adc r19,r13
 4303 1948 DC01      		movw r26,r24
 4304 194a 2D93      		st X+,r18
 4305 194c 3C93      		st X,r19
 4306 194e 0894      		sec
 4307 1950 E11C      		adc r14,__zero_reg__
 4308 1952 F11C      		adc r15,__zero_reg__
 4309 1954 011D      		adc r16,__zero_reg__
 4310 1956 111D      		adc r17,__zero_reg__
 4311 1958 CA0C      		add r12,r10
 4312 195a DB1C      		adc r13,r11
 4313               	.LBE341:
 4314               	.LM407:
 4315 195c C701      		movw r24,r14
 4316 195e 0197      		sbiw r24,1
 4317 1960 8415      		cp r24,r4
 4318 1962 9505      		cpc r25,r5
 4319 1964 04F0      		brlt .L214
 4320 1966 00C0      		rjmp .L215
 4321               	.LVL251:
 4322               	.L389:
 4323               	.LBE340:
 4324               	.LBE425:
 4325               	.LBB426:
 4326               	.LM408:
 4327 1968 ED84      		ldd r14,Y+13
 4328 196a FE84      		ldd r15,Y+14
 4329               	.LVL252:
 4330 196c 0894      		sec
 4331 196e E11C      		adc r14,__zero_reg__
 4332 1970 F11C      		adc r15,__zero_reg__
 4333 1972 AD85      		ldd r26,Y+13
 4334 1974 BE85      		ldd r27,Y+14
 4335 1976 1196      		adiw r26,1
 4336 1978 9C91      		ld r25,X
 4337 197a 692F      		mov r22,r25
 4338 197c 6F73      		andi r22,lo8(63)
 4339               	.LBB429:
 4340               	.LBB432:
 4341               	.LM409:
 4342 197e 6330      		cpi r22,lo8(3)
 4343 1980 01F4      		brne .+2
 4344 1982 00C0      		rjmp .L410
 4345               	.LM410:
 4346 1984 262F      		mov r18,r22
 4347 1986 30E0      		ldi r19,lo8(0)
 4348 1988 65FD      		sbrc r22,5
 4349 198a 00C0      		rjmp .L411
 4350               	.LM411:
 4351 198c 6F31      		cpi r22,lo8(31)
 4352 198e 01F4      		brne .+2
 4353 1990 00C0      		rjmp .L412
 4354               	.LBE432:
 4355               	.LBE429:
 4356               	.LM412:
 4357 1992 AD85      		ldd r26,Y+13
 4358 1994 BE85      		ldd r27,Y+14
 4359               	.LVL253:
 4360 1996 1296      		adiw r26,2
 4361               	.LBB438:
 4362               	.LBB435:
 4363               	.LM413:
 4364 1998 6230      		cpi r22,lo8(2)
 4365 199a 01F4      		brne .+2
 4366 199c 00C0      		rjmp .L413
 4367               	.LM414:
 4368 199e 6130      		cpi r22,lo8(1)
 4369 19a0 01F4      		brne .+2
 4370 19a2 00C0      		rjmp .L376
 4371               	.LM415:
 4372 19a4 6623      		tst r22
 4373 19a6 01F4      		brne .+2
 4374 19a8 00C0      		rjmp .L376
 4375               	.LM416:
 4376 19aa 6430      		cpi r22,lo8(4)
 4377 19ac 01F0      		breq .+2
 4378 19ae 00C0      		rjmp .L337
 4379               	.LBB434:
 4380               	.LM417:
 4381 19b0 1196      		adiw r26,1
 4382 19b2 EC91      		ld r30,X
 4383 19b4 1197      		sbiw r26,1
 4384 19b6 F0E0      		ldi r31,lo8(0)
 4385 19b8 EF71      		andi r30,lo8(31)
 4386 19ba F070      		andi r31,hi8(31)
 4387 19bc EE0F      		lsl r30
 4388 19be FF1F      		rol r31
 4389 19c0 EE0F      		lsl r30
 4390 19c2 FF1F      		rol r31
 4391 19c4 2989      		ldd r18,Y+17
 4392 19c6 3A89      		ldd r19,Y+18
 4393 19c8 E20F      		add r30,r18
 4394 19ca F31F      		adc r31,r19
 4395 19cc 2081      		ld r18,Z
 4396 19ce 3181      		ldd r19,Z+1
 4397               	.LVL254:
 4398               	.LM418:
 4399 19d0 6091 0000 		lds r22,arguments
 4400 19d4 7091 0000 		lds r23,(arguments)+1
 4401 19d8 AC91      		ld r26,X
 4402               	.LVL255:
 4403               	.L375:
 4404 19da B0E0      		ldi r27,lo8(0)
 4405 19dc F901      		movw r30,r18
 4406 19de 8081      		ld r24,Z
 4407 19e0 E82F      		mov r30,r24
 4408 19e2 F0E0      		ldi r31,lo8(0)
 4409 19e4 EE0F      		lsl r30
 4410 19e6 FF1F      		rol r31
 4411               	.LVL256:
 4412 19e8 E60F      		add r30,r22
 4413 19ea F71F      		adc r31,r23
 4414 19ec 8081      		ld r24,Z
 4415 19ee AA0F      		lsl r26
 4416 19f0 BB1F      		rol r27
 4417 19f2 A60F      		add r26,r22
 4418 19f4 B71F      		adc r27,r23
 4419 19f6 A80F      		add r26,r24
 4420 19f8 B11D      		adc r27,__zero_reg__
 4421 19fa 1196      		adiw r26,1
 4422 19fc 8C91      		ld r24,X
 4423 19fe 082F      		mov r16,r24
 4424 1a00 10E0      		ldi r17,lo8(0)
 4425 1a02 0F5F      		subi r16,lo8(-(1))
 4426 1a04 1F4F      		sbci r17,hi8(-(1))
 4427 1a06 020F      		add r16,r18
 4428 1a08 131F      		adc r17,r19
 4429               	.LVL257:
 4430               	.L331:
 4431               	.LBE434:
 4432               	.LBE435:
 4433               	.LBE438:
 4434               	.LM419:
 4435 1a0a 4F71      		andi r20,lo8(31)
 4436 1a0c 5070      		andi r21,hi8(31)
 4437 1a0e 440F      		lsl r20
 4438 1a10 551F      		rol r21
 4439 1a12 440F      		lsl r20
 4440 1a14 551F      		rol r21
 4441 1a16 9295      		swap r25
 4442 1a18 9695      		lsr r25
 4443 1a1a 9695      		lsr r25
 4444 1a1c 9370      		andi r25,0x3
 4445 1a1e 892F      		mov r24,r25
 4446 1a20 90E0      		ldi r25,lo8(0)
 4447 1a22 482B      		or r20,r24
 4448 1a24 592B      		or r21,r25
 4449 1a26 440F      		lsl r20
 4450 1a28 551F      		rol r21
 4451 1a2a 640F      		add r22,r20
 4452 1a2c 751F      		adc r23,r21
 4453 1a2e DB01      		movw r26,r22
 4454               	.LVL258:
 4455 1a30 1196      		adiw r26,1
 4456 1a32 8C91      		ld r24,X
 4457 1a34 90E0      		ldi r25,lo8(0)
 4458 1a36 0E94 0000 		call malloc
 4459               	.LVL259:
 4460 1a3a F801      		movw r30,r16
 4461 1a3c 8083      		st Z,r24
 4462 1a3e 9183      		std Z+1,r25
 4463               	.LM420:
 4464 1a40 D701      		movw r26,r14
 4465 1a42 4C91      		ld r20,X
 4466 1a44 4295      		swap r20
 4467 1a46 4695      		lsr r20
 4468 1a48 4695      		lsr r20
 4469 1a4a 4370      		andi r20,0x3
 4470 1a4c 50E0      		ldi r21,lo8(0)
 4471 1a4e ED85      		ldd r30,Y+13
 4472 1a50 FE85      		ldd r31,Y+14
 4473 1a52 2081      		ld r18,Z
 4474 1a54 30E0      		ldi r19,lo8(0)
 4475 1a56 2F71      		andi r18,lo8(31)
 4476 1a58 3070      		andi r19,hi8(31)
 4477 1a5a 220F      		lsl r18
 4478 1a5c 331F      		rol r19
 4479 1a5e 220F      		lsl r18
 4480 1a60 331F      		rol r19
 4481 1a62 422B      		or r20,r18
 4482 1a64 532B      		or r21,r19
 4483 1a66 440F      		lsl r20
 4484 1a68 551F      		rol r21
 4485 1a6a E091 0000 		lds r30,arguments
 4486 1a6e F091 0000 		lds r31,(arguments)+1
 4487 1a72 E40F      		add r30,r20
 4488 1a74 F51F      		adc r31,r21
 4489 1a76 4181      		ldd r20,Z+1
 4490 1a78 60E0      		ldi r22,lo8(0)
 4491 1a7a 70E0      		ldi r23,hi8(0)
 4492 1a7c 50E0      		ldi r21,lo8(0)
 4493 1a7e 0E94 0000 		call memset
 4494               	.LM421:
 4495 1a82 D801      		movw r26,r16
 4496 1a84 ED91      		ld r30,X+
 4497 1a86 FC91      		ld r31,X
 4498 1a88 AD85      		ldd r26,Y+13
 4499 1a8a BE85      		ldd r27,Y+14
 4500 1a8c 8C91      		ld r24,X
 4501 1a8e 90E0      		ldi r25,lo8(0)
 4502 1a90 8F71      		andi r24,lo8(31)
 4503 1a92 9070      		andi r25,hi8(31)
 4504 1a94 880F      		lsl r24
 4505 1a96 991F      		rol r25
 4506 1a98 880F      		lsl r24
 4507 1a9a 991F      		rol r25
 4508 1a9c D701      		movw r26,r14
 4509 1a9e 2C91      		ld r18,X
 4510 1aa0 2295      		swap r18
 4511 1aa2 2695      		lsr r18
 4512 1aa4 2695      		lsr r18
 4513 1aa6 2370      		andi r18,0x3
 4514 1aa8 282B      		or r18,r24
 4515 1aaa 2083      		st Z,r18
 4516 1aac 00C0      		rjmp .L209
 4517               	.LVL260:
 4518               	.L390:
 4519               	.LBE426:
 4520               	.LM422:
 4521 1aae 3DB6      		in r3,__SP_L__
 4522 1ab0 2EB6      		in r2,__SP_H__
 4523               	.LVL261:
 4524               	.LBB441:
 4525               	.LM423:
 4526 1ab2 AD84      		ldd r10,Y+13
 4527 1ab4 BE84      		ldd r11,Y+14
 4528               	.LVL262:
 4529 1ab6 0894      		sec
 4530 1ab8 A11C      		adc r10,__zero_reg__
 4531 1aba B11C      		adc r11,__zero_reg__
 4532 1abc ED85      		ldd r30,Y+13
 4533 1abe FE85      		ldd r31,Y+14
 4534 1ac0 2181      		ldd r18,Z+1
 4535 1ac2 422E      		mov r4,r18
 4536               	.LVL263:
 4537 1ac4 5524      		clr r5
 4538 1ac6 FFE1      		ldi r31,lo8(31)
 4539 1ac8 4F22      		and r4,r31
 4540 1aca 5524      		clr r5
 4541               	.LVL264:
 4542 1acc 440C      		lsl r4
 4543 1ace 551C      		rol r5
 4544 1ad0 440C      		lsl r4
 4545 1ad2 551C      		rol r5
 4546 1ad4 4989      		ldd r20,Y+17
 4547 1ad6 5A89      		ldd r21,Y+18
 4548 1ad8 440E      		add r4,r20
 4549 1ada 551E      		adc r5,r21
 4550               	.LM424:
 4551 1adc 2295      		swap r18
 4552 1ade 2695      		lsr r18
 4553 1ae0 2770      		andi r18,0x7
 4554 1ae2 30E0      		ldi r19,lo8(0)
 4555 1ae4 862F      		mov r24,r22
 4556 1ae6 90E0      		ldi r25,lo8(0)
 4557 1ae8 8F70      		andi r24,lo8(15)
 4558 1aea 9070      		andi r25,hi8(15)
 4559 1aec 880F      		lsl r24
 4560 1aee 991F      		rol r25
 4561 1af0 880F      		lsl r24
 4562 1af2 991F      		rol r25
 4563 1af4 880F      		lsl r24
 4564 1af6 991F      		rol r25
 4565 1af8 282B      		or r18,r24
 4566 1afa 392B      		or r19,r25
 4567 1afc F901      		movw r30,r18
 4568 1afe EE0F      		lsl r30
 4569 1b00 FF1F      		rol r31
 4570 1b02 E050      		subi r30,lo8(-(extern_functs_args))
 4571 1b04 F040      		sbci r31,hi8(-(extern_functs_args))
 4572 1b06 4081      		ld r20,Z
 4573 1b08 5181      		ldd r21,Z+1
 4574 1b0a CA01      		movw r24,r20
 4575 1b0c 880F      		lsl r24
 4576 1b0e 991F      		rol r25
 4577 1b10 880F      		lsl r24
 4578 1b12 991F      		rol r25
 4579 1b14 6DB7      		in r22,__SP_L__
 4580 1b16 7EB7      		in r23,__SP_H__
 4581 1b18 681B      		sub r22,r24
 4582 1b1a 790B      		sbc r23,r25
 4583 1b1c 6DBF      		out __SP_L__,r22
 4584 1b1e 7EBF      		out __SP_H__,r23
 4585 1b20 8DB6      		in r8,__SP_L__
 4586 1b22 9EB6      		in r9,__SP_H__
 4587               	.LVL265:
 4588 1b24 0894      		sec
 4589 1b26 811C      		adc r8,__zero_reg__
 4590 1b28 911C      		adc r9,__zero_reg__
 4591               	.LM425:
 4592 1b2a D901      		movw r26,r18
 4593 1b2c 4630      		cpi r20,6
 4594 1b2e 5105      		cpc r21,__zero_reg__
 4595 1b30 04F0      		brlt .+2
 4596 1b32 00C0      		rjmp .L414
 4597               	.L338:
 4598               	.LM426:
 4599 1b34 1416      		cp __zero_reg__,r20
 4600 1b36 1506      		cpc __zero_reg__,r21
 4601 1b38 04F0      		brlt .+2
 4602 1b3a 00C0      		rjmp .L339
 4603               	.LM427:
 4604 1b3c 6D85      		ldd r22,Y+13
 4605 1b3e 7E85      		ldd r23,Y+14
 4606               	.LVL266:
 4607 1b40 6E5F      		subi r22,lo8(-(2))
 4608 1b42 7F4F      		sbci r23,hi8(-(2))
 4609 1b44 6401      		movw r12,r8
 4610               	.LVL267:
 4611 1b46 EE24      		clr r14
 4612 1b48 FF24      		clr r15
 4613               	.LVL268:
 4614 1b4a 00C0      		rjmp .L348
 4615               	.LVL269:
 4616               	.L342:
 4617               	.LBB300:
 4618               	.LBB303:
 4619               	.LBB306:
 4620               	.LM428:
 4621 1b4c 8F31      		cpi r24,lo8(31)
 4622 1b4e 01F4      		brne .+2
 4623 1b50 00C0      		rjmp .L415
 4624               	.LM429:
 4625 1b52 8230      		cpi r24,lo8(2)
 4626 1b54 01F4      		brne .+2
 4627 1b56 00C0      		rjmp .L416
 4628               	.LM430:
 4629 1b58 8130      		cpi r24,lo8(1)
 4630 1b5a 01F4      		brne .+2
 4631 1b5c 00C0      		rjmp .L378
 4632               	.LM431:
 4633 1b5e 8823      		tst r24
 4634 1b60 01F4      		brne .+2
 4635 1b62 00C0      		rjmp .L378
 4636               	.LM432:
 4637 1b64 8430      		cpi r24,lo8(4)
 4638 1b66 01F0      		breq .+2
 4639 1b68 00C0      		rjmp .L347
 4640               	.LBB309:
 4641               	.LM433:
 4642 1b6a E181      		ldd r30,Z+1
 4643 1b6c F0E0      		ldi r31,lo8(0)
 4644 1b6e EF71      		andi r30,lo8(31)
 4645 1b70 F070      		andi r31,hi8(31)
 4646               	.L377:
 4647 1b72 EE0F      		lsl r30
 4648 1b74 FF1F      		rol r31
 4649 1b76 EE0F      		lsl r30
 4650 1b78 FF1F      		rol r31
 4651               	.LVL270:
 4652 1b7a 2989      		ldd r18,Y+17
 4653 1b7c 3A89      		ldd r19,Y+18
 4654               	.LVL271:
 4655 1b7e E20F      		add r30,r18
 4656 1b80 F31F      		adc r31,r19
 4657 1b82 2081      		ld r18,Z
 4658 1b84 3181      		ldd r19,Z+1
 4659               	.LVL272:
 4660               	.LM434:
 4661 1b86 6D5F      		subi r22,lo8(-(3))
 4662 1b88 7F4F      		sbci r23,hi8(-(3))
 4663               	.LVL273:
 4664               	.LM435:
 4665 1b8a A091 0000 		lds r26,arguments
 4666 1b8e B091 0000 		lds r27,(arguments)+1
 4667 1b92 F801      		movw r30,r16
 4668 1b94 8081      		ld r24,Z
 4669 1b96 90E0      		ldi r25,lo8(0)
 4670 1b98 F901      		movw r30,r18
 4671 1b9a 4081      		ld r20,Z
 4672 1b9c E42F      		mov r30,r20
 4673 1b9e F0E0      		ldi r31,lo8(0)
 4674 1ba0 EE0F      		lsl r30
 4675 1ba2 FF1F      		rol r31
 4676 1ba4 EA0F      		add r30,r26
 4677 1ba6 FB1F      		adc r31,r27
 4678 1ba8 4081      		ld r20,Z
 4679 1baa 880F      		lsl r24
 4680 1bac 991F      		rol r25
 4681 1bae A80F      		add r26,r24
 4682 1bb0 B91F      		adc r27,r25
 4683 1bb2 A40F      		add r26,r20
 4684 1bb4 B11D      		adc r27,__zero_reg__
 4685 1bb6 1196      		adiw r26,1
 4686 1bb8 8C91      		ld r24,X
 4687 1bba 90E0      		ldi r25,lo8(0)
 4688 1bbc 0196      		adiw r24,1
 4689 1bbe 280F      		add r18,r24
 4690 1bc0 391F      		adc r19,r25
 4691 1bc2 40E0      		ldi r20,lo8(0)
 4692 1bc4 50E0      		ldi r21,hi8(0)
 4693               	.LVL274:
 4694               	.L341:
 4695               	.LBE309:
 4696               	.LBE306:
 4697               	.LBE303:
 4698               	.LM436:
 4699 1bc6 D601      		movw r26,r12
 4700 1bc8 2D93      		st X+,r18
 4701 1bca 3D93      		st X+,r19
 4702 1bcc 4D93      		st X+,r20
 4703 1bce 5D93      		st X+,r21
 4704               	.LVL275:
 4705 1bd0 6D01      		movw r12,r26
 4706               	.LBE300:
 4707               	.LM437:
 4708 1bd2 0894      		sec
 4709 1bd4 E11C      		adc r14,__zero_reg__
 4710 1bd6 F11C      		adc r15,__zero_reg__
 4711 1bd8 F501      		movw r30,r10
 4712 1bda 8081      		ld r24,Z
 4713               	.LVL276:
 4714 1bdc 8295      		swap r24
 4715 1bde 8695      		lsr r24
 4716 1be0 8770      		andi r24,0x7
 4717 1be2 A82F      		mov r26,r24
 4718 1be4 B0E0      		ldi r27,lo8(0)
 4719 1be6 ED85      		ldd r30,Y+13
 4720 1be8 FE85      		ldd r31,Y+14
 4721 1bea 8081      		ld r24,Z
 4722 1bec 90E0      		ldi r25,lo8(0)
 4723 1bee 8F70      		andi r24,lo8(15)
 4724 1bf0 9070      		andi r25,hi8(15)
 4725 1bf2 880F      		lsl r24
 4726 1bf4 991F      		rol r25
 4727 1bf6 880F      		lsl r24
 4728 1bf8 991F      		rol r25
 4729 1bfa 880F      		lsl r24
 4730 1bfc 991F      		rol r25
 4731               	.LVL277:
 4732 1bfe A82B      		or r26,r24
 4733 1c00 B92B      		or r27,r25
 4734 1c02 FD01      		movw r30,r26
 4735 1c04 EE0F      		lsl r30
 4736 1c06 FF1F      		rol r31
 4737 1c08 E050      		subi r30,lo8(-(extern_functs_args))
 4738 1c0a F040      		sbci r31,hi8(-(extern_functs_args))
 4739 1c0c 4081      		ld r20,Z
 4740 1c0e 5181      		ldd r21,Z+1
 4741 1c10 E416      		cp r14,r20
 4742 1c12 F506      		cpc r15,r21
 4743 1c14 04F4      		brge .L339
 4744               	.LVL278:
 4745               	.L348:
 4746               	.LBB299:
 4747               	.LM438:
 4748 1c16 FB01      		movw r30,r22
 4749 1c18 8191      		ld r24,Z+
 4750               	.LVL279:
 4751 1c1a 8F01      		movw r16,r30
 4752               	.LVL280:
 4753               	.LBB313:
 4754               	.LBB311:
 4755               	.LM439:
 4756 1c1c 8330      		cpi r24,lo8(3)
 4757 1c1e 01F0      		breq .L417
 4758               	.LM440:
 4759 1c20 282F      		mov r18,r24
 4760 1c22 30E0      		ldi r19,lo8(0)
 4761               	.LVL281:
 4762 1c24 85FF      		sbrs r24,5
 4763 1c26 00C0      		rjmp .L342
 4764 1c28 2F71      		andi r18,lo8(31)
 4765 1c2a 3070      		andi r19,hi8(31)
 4766               	.LVL282:
 4767 1c2c 220F      		lsl r18
 4768 1c2e 331F      		rol r19
 4769 1c30 220F      		lsl r18
 4770 1c32 331F      		rol r19
 4771               	.LVL283:
 4772 1c34 4989      		ldd r20,Y+17
 4773 1c36 5A89      		ldd r21,Y+18
 4774 1c38 240F      		add r18,r20
 4775 1c3a 351F      		adc r19,r21
 4776               	.LVL284:
 4777 1c3c 40E0      		ldi r20,lo8(0)
 4778 1c3e 50E0      		ldi r21,hi8(0)
 4779 1c40 BF01      		movw r22,r30
 4780 1c42 00C0      		rjmp .L341
 4781               	.LVL285:
 4782               	.L417:
 4783               	.LM441:
 4784 1c44 298D      		ldd r18,Y+25
 4785 1c46 3A8D      		ldd r19,Y+26
 4786 1c48 4B8D      		ldd r20,Y+27
 4787 1c4a 5C8D      		ldd r21,Y+28
 4788 1c4c BF01      		movw r22,r30
 4789 1c4e 00C0      		rjmp .L341
 4790               	.LVL286:
 4791               	.L378:
 4792               	.LBB310:
 4793               	.LM442:
 4794 1c50 6B5F      		subi r22,lo8(-(5))
 4795 1c52 7F4F      		sbci r23,hi8(-(5))
 4796               	.LVL287:
 4797 1c54 9801      		movw r18,r16
 4798 1c56 40E0      		ldi r20,lo8(0)
 4799 1c58 50E0      		ldi r21,hi8(0)
 4800 1c5a 00C0      		rjmp .L341
 4801               	.LVL288:
 4802               	.L415:
 4803               	.LBE310:
 4804               	.LM443:
 4805 1c5c 2D89      		ldd r18,Y+21
 4806 1c5e 3E89      		ldd r19,Y+22
 4807 1c60 4F89      		ldd r20,Y+23
 4808 1c62 588D      		ldd r21,Y+24
 4809 1c64 BF01      		movw r22,r30
 4810 1c66 00C0      		rjmp .L341
 4811               	.LVL289:
 4812               	.L339:
 4813               	.LBE311:
 4814               	.LBE313:
 4815               	.LBE299:
 4816               	.LM444:
 4817 1c68 4230      		cpi r20,2
 4818 1c6a 5105      		cpc r21,__zero_reg__
 4819 1c6c 01F4      		brne .+2
 4820 1c6e 00C0      		rjmp .L352
 4821 1c70 4330      		cpi r20,3
 4822 1c72 5105      		cpc r21,__zero_reg__
 4823 1c74 04F4      		brge .+2
 4824 1c76 00C0      		rjmp .L418
 4825 1c78 4430      		cpi r20,4
 4826 1c7a 5105      		cpc r21,__zero_reg__
 4827 1c7c 01F4      		brne .+2
 4828 1c7e 00C0      		rjmp .L354
 4829 1c80 4430      		cpi r20,4
 4830 1c82 5105      		cpc r21,__zero_reg__
 4831 1c84 04F4      		brge .+2
 4832 1c86 00C0      		rjmp .L353
 4833 1c88 4530      		cpi r20,5
 4834 1c8a 5105      		cpc r21,__zero_reg__
 4835 1c8c 01F0      		breq .+2
 4836 1c8e 00C0      		rjmp .L349
 4837               	.LM445:
 4838 1c90 00D0      		rcall .
 4839 1c92 0F92      		push __tmp_reg__
 4840 1c94 AA0F      		lsl r26
 4841 1c96 BB1F      		rol r27
 4842 1c98 A050      		subi r26,lo8(-(extern_functs))
 4843 1c9a B040      		sbci r27,hi8(-(extern_functs))
 4844 1c9c F401      		movw r30,r8
 4845 1c9e 6081      		ld r22,Z
 4846 1ca0 7181      		ldd r23,Z+1
 4847 1ca2 8281      		ldd r24,Z+2
 4848 1ca4 9381      		ldd r25,Z+3
 4849 1ca6 2481      		ldd r18,Z+4
 4850 1ca8 3581      		ldd r19,Z+5
 4851 1caa 4681      		ldd r20,Z+6
 4852 1cac 5781      		ldd r21,Z+7
 4853 1cae E084      		ldd r14,Z+8
 4854 1cb0 F184      		ldd r15,Z+9
 4855 1cb2 0285      		ldd r16,Z+10
 4856 1cb4 1385      		ldd r17,Z+11
 4857               	.LVL290:
 4858 1cb6 A484      		ldd r10,Z+12
 4859 1cb8 B584      		ldd r11,Z+13
 4860 1cba C684      		ldd r12,Z+14
 4861 1cbc D784      		ldd r13,Z+15
 4862 1cbe 6088      		ldd r6,Z+16
 4863 1cc0 7188      		ldd r7,Z+17
 4864 1cc2 8288      		ldd r8,Z+18
 4865 1cc4 9388      		ldd r9,Z+19
 4866 1cc6 EDB7      		in r30,__SP_L__
 4867 1cc8 FEB7      		in r31,__SP_H__
 4868 1cca 6182      		std Z+1,r6
 4869 1ccc 7282      		std Z+2,r7
 4870 1cce 8382      		std Z+3,r8
 4871 1cd0 9482      		std Z+4,r9
 4872 1cd2 ED91      		ld r30,X+
 4873 1cd4 FC91      		ld r31,X
 4874 1cd6 1995      		eicall
 4875 1cd8 D201      		movw r26,r4
 4876 1cda 6D93      		st X+,r22
 4877 1cdc 7D93      		st X+,r23
 4878 1cde 8D93      		st X+,r24
 4879 1ce0 9C93      		st X,r25
 4880 1ce2 1397      		sbiw r26,3
 4881 1ce4 0F90      		pop __tmp_reg__
 4882 1ce6 0F90      		pop __tmp_reg__
 4883 1ce8 0F90      		pop __tmp_reg__
 4884 1cea 0F90      		pop __tmp_reg__
 4885 1cec 00C0      		rjmp .L349
 4886               	.LVL291:
 4887               	.L398:
 4888               	.LBE441:
 4889               	.LBB442:
 4890               	.LBB359:
 4891               	.LBB355:
 4892               	.LM446:
 4893 1cee E0E0      		ldi r30,lo8(blockId)
 4894 1cf0 F0E0      		ldi r31,hi8(blockId)
 4895 1cf2 00C0      		rjmp .L240
 4896               	.LVL292:
 4897               	.L416:
 4898               	.LBE355:
 4899               	.LBE359:
 4900               	.LBE442:
 4901               	.LBB443:
 4902               	.LBB315:
 4903               	.LBB302:
 4904               	.LBB305:
 4905               	.LBB308:
 4906               	.LM447:
 4907 1cf4 E181      		ldd r30,Z+1
 4908 1cf6 EF71      		andi r30,lo8(31)
 4909 1cf8 F0E0      		ldi r31,lo8(0)
 4910 1cfa 00C0      		rjmp .L377
 4911               	.LVL293:
 4912               	.L216:
 4913               	.LBE308:
 4914               	.LBE305:
 4915               	.LBE302:
 4916               	.LBE315:
 4917               	.LBE443:
 4918               	.LBB444:
 4919               	.LBB318:
 4920               	.LM448:
 4921 1cfc 80E0      		ldi r24,lo8(0)
 4922 1cfe 90E0      		ldi r25,hi8(0)
 4923 1d00 0E94 0000 		call malloc
 4924               	.LVL294:
 4925 1d04 2B85      		ldd r18,Y+11
 4926 1d06 3C85      		ldd r19,Y+12
 4927 1d08 2D87      		std Y+13,r18
 4928 1d0a 3E87      		std Y+14,r19
 4929               	.LVL295:
 4930 1d0c D901      		movw r26,r18
 4931 1d0e 00C0      		rjmp .L364
 4932               	.LVL296:
 4933               	.L384:
 4934               	.LBE318:
 4935               	.LBE444:
 4936               	.LM449:
 4937 1d10 21E0      		ldi r18,lo8(1)
 4938 1d12 30E0      		ldi r19,hi8(1)
 4939 1d14 00C0      		rjmp .L235
 4940               	.LVL297:
 4941               	.L403:
 4942               	.LBB445:
 4943               	.LBB378:
 4944               	.LBB370:
 4945               	.LM450:
 4946 1d16 9FE1      		ldi r25,lo8(31)
 4947 1d18 C92E      		mov r12,r25
 4948 1d1a D12C      		mov r13,__zero_reg__
 4949               	.LVL298:
 4950 1d1c C222      		and r12,r18
 4951 1d1e D322      		and r13,r19
 4952 1d20 CC0C      		lsl r12
 4953 1d22 DD1C      		rol r13
 4954 1d24 CC0C      		lsl r12
 4955 1d26 DD1C      		rol r13
 4956 1d28 4989      		ldd r20,Y+17
 4957 1d2a 5A89      		ldd r21,Y+18
 4958 1d2c C40E      		add r12,r20
 4959 1d2e D51E      		adc r13,r21
 4960 1d30 7801      		movw r14,r16
 4961               	.LVL299:
 4962               	.L251:
 4963               	.LBE370:
 4964               	.LBE378:
 4965               	.LM451:
 4966 1d32 0D85      		ldd r16,Y+13
 4967 1d34 1E85      		ldd r17,Y+14
 4968 1d36 0F5F      		subi r16,lo8(-(1))
 4969 1d38 1F4F      		sbci r17,hi8(-(1))
 4970 1d3a AD85      		ldd r26,Y+13
 4971 1d3c BE85      		ldd r27,Y+14
 4972 1d3e 1196      		adiw r26,1
 4973 1d40 6C91      		ld r22,X
 4974 1d42 862F      		mov r24,r22
 4975 1d44 8695      		lsr r24
 4976 1d46 8695      		lsr r24
 4977               	.LBB379:
 4978               	.LBB382:
 4979               	.LM452:
 4980 1d48 8330      		cpi r24,lo8(3)
 4981 1d4a 01F4      		brne .+2
 4982 1d4c 00C0      		rjmp .L419
 4983               	.LM453:
 4984 1d4e 282F      		mov r18,r24
 4985 1d50 30E0      		ldi r19,lo8(0)
 4986 1d52 85FD      		sbrc r24,5
 4987 1d54 00C0      		rjmp .L420
 4988               	.LM454:
 4989 1d56 8F31      		cpi r24,lo8(31)
 4990 1d58 01F4      		brne .+2
 4991 1d5a 00C0      		rjmp .L421
 4992               	.LM455:
 4993 1d5c 8230      		cpi r24,lo8(2)
 4994 1d5e 01F4      		brne .+2
 4995 1d60 00C0      		rjmp .L422
 4996               	.LM456:
 4997 1d62 8130      		cpi r24,lo8(1)
 4998 1d64 01F4      		brne .+2
 4999 1d66 00C0      		rjmp .L372
 5000               	.LM457:
 5001 1d68 8823      		tst r24
 5002 1d6a 01F4      		brne .+2
 5003 1d6c 00C0      		rjmp .L372
 5004               	.LM458:
 5005 1d6e 8430      		cpi r24,lo8(4)
 5006 1d70 01F0      		breq .+2
 5007 1d72 00C0      		rjmp .L265
 5008               	.LBB384:
 5009               	.LM459:
 5010 1d74 D701      		movw r26,r14
 5011 1d76 1196      		adiw r26,1
 5012 1d78 EC91      		ld r30,X
 5013 1d7a F0E0      		ldi r31,lo8(0)
 5014 1d7c EF71      		andi r30,lo8(31)
 5015 1d7e F070      		andi r31,hi8(31)
 5016               	.L371:
 5017 1d80 EE0F      		lsl r30
 5018 1d82 FF1F      		rol r31
 5019 1d84 EE0F      		lsl r30
 5020 1d86 FF1F      		rol r31
 5021 1d88 2989      		ldd r18,Y+17
 5022 1d8a 3A89      		ldd r19,Y+18
 5023 1d8c E20F      		add r30,r18
 5024 1d8e F31F      		adc r31,r19
 5025 1d90 4081      		ld r20,Z
 5026 1d92 5181      		ldd r21,Z+1
 5027               	.LVL300:
 5028               	.LM460:
 5029 1d94 A091 0000 		lds r26,arguments
 5030 1d98 B091 0000 		lds r27,(arguments)+1
 5031 1d9c F701      		movw r30,r14
 5032 1d9e 8081      		ld r24,Z
 5033 1da0 90E0      		ldi r25,lo8(0)
 5034 1da2 FA01      		movw r30,r20
 5035 1da4 2081      		ld r18,Z
 5036 1da6 E22F      		mov r30,r18
 5037 1da8 F0E0      		ldi r31,lo8(0)
 5038 1daa EE0F      		lsl r30
 5039 1dac FF1F      		rol r31
 5040 1dae EA0F      		add r30,r26
 5041 1db0 FB1F      		adc r31,r27
 5042 1db2 2081      		ld r18,Z
 5043 1db4 880F      		lsl r24
 5044 1db6 991F      		rol r25
 5045 1db8 A80F      		add r26,r24
 5046 1dba B91F      		adc r27,r25
 5047 1dbc A20F      		add r26,r18
 5048 1dbe B11D      		adc r27,__zero_reg__
 5049 1dc0 1196      		adiw r26,1
 5050 1dc2 8C91      		ld r24,X
 5051 1dc4 082F      		mov r16,r24
 5052 1dc6 10E0      		ldi r17,lo8(0)
 5053 1dc8 0F5F      		subi r16,lo8(-(1))
 5054 1dca 1F4F      		sbci r17,hi8(-(1))
 5055 1dcc 040F      		add r16,r20
 5056 1dce 151F      		adc r17,r21
 5057 1dd0 4989      		ldd r20,Y+17
 5058 1dd2 5A89      		ldd r21,Y+18
 5059               	.LVL301:
 5060 1dd4 00C0      		rjmp .L259
 5061               	.LVL302:
 5062               	.L420:
 5063               	.LBE384:
 5064               	.LM461:
 5065 1dd6 8901      		movw r16,r18
 5066 1dd8 0F71      		andi r16,lo8(31)
 5067 1dda 1070      		andi r17,hi8(31)
 5068 1ddc 000F      		lsl r16
 5069 1dde 111F      		rol r17
 5070 1de0 000F      		lsl r16
 5071 1de2 111F      		rol r17
 5072 1de4 E989      		ldd r30,Y+17
 5073 1de6 FA89      		ldd r31,Y+18
 5074 1de8 0E0F      		add r16,r30
 5075 1dea 1F1F      		adc r17,r31
 5076 1dec AF01      		movw r20,r30
 5077               	.LVL303:
 5078               	.L259:
 5079               	.LBE382:
 5080               	.LBE379:
 5081               	.LM462:
 5082 1dee ED85      		ldd r30,Y+13
 5083 1df0 FE85      		ldd r31,Y+14
 5084 1df2 2281      		ldd r18,Z+2
 5085 1df4 E62E      		mov r14,r22
 5086               	.LVL304:
 5087 1df6 FF24      		clr r15
 5088 1df8 F3E0      		ldi r31,lo8(3)
 5089 1dfa EF22      		and r14,r31
 5090 1dfc FF24      		clr r15
 5091               	.LVL305:
 5092 1dfe EE0C      		lsl r14
 5093 1e00 FF1C      		rol r15
 5094 1e02 EE0C      		lsl r14
 5095 1e04 FF1C      		rol r15
 5096 1e06 EE0C      		lsl r14
 5097 1e08 FF1C      		rol r15
 5098 1e0a 822F      		mov r24,r18
 5099 1e0c 8295      		swap r24
 5100 1e0e 8695      		lsr r24
 5101 1e10 8770      		andi r24,0x7
 5102 1e12 90E0      		ldi r25,lo8(0)
 5103 1e14 E82A      		or r14,r24
 5104 1e16 F92A      		or r15,r25
 5105 1e18 EE0C      		lsl r14
 5106 1e1a FF1C      		rol r15
 5107 1e1c EE0C      		lsl r14
 5108 1e1e FF1C      		rol r15
 5109 1e20 E40E      		add r14,r20
 5110 1e22 F51E      		adc r15,r21
 5111               	.LM463:
 5112 1e24 30E0      		ldi r19,lo8(0)
 5113 1e26 40E0      		ldi r20,lo8(0)
 5114 1e28 50E0      		ldi r21,hi8(0)
 5115 1e2a 2F71      		andi r18,lo8(31)
 5116 1e2c 3070      		andi r19,hi8(31)
 5117 1e2e 4070      		andi r20,hlo8(31)
 5118 1e30 5070      		andi r21,hhi8(31)
 5119 1e32 F901      		movw r30,r18
 5120 1e34 2831      		cpi r18,24
 5121 1e36 3105      		cpc r19,__zero_reg__
 5122 1e38 00F0      		brlo .+2
 5123 1e3a 00C0      		rjmp .L209
 5124 1e3c E050      		subi r30,lo8(-(gs(.L290)))
 5125 1e3e F040      		sbci r31,hi8(-(gs(.L290)))
 5126 1e40 EE0F      		lsl r30
 5127 1e42 FF1F      		rol r31
 5128 1e44 0590      		lpm __tmp_reg__,Z+
 5129 1e46 F491      		lpm r31,Z
 5130 1e48 E02D      		mov r30,__tmp_reg__
 5131 1e4a 1994      		eijmp
 5132               		.data
 5133               		.section .progmem.gcc_sw_table, "a", @progbits
 5134               		.p2align 1
 5135               	.L290:
 5136               		.data
 5137               		.section .progmem.gcc_sw_table, "a", @progbits
 5138               		.p2align 1
 5139 0000 0000      		.word gs(.L266)
 5140 0002 0000      		.word gs(.L267)
 5141 0004 0000      		.word gs(.L268)
 5142 0006 0000      		.word gs(.L269)
 5143 0008 0000      		.word gs(.L270)
 5144 000a 0000      		.word gs(.L271)
 5145 000c 0000      		.word gs(.L272)
 5146 000e 0000      		.word gs(.L273)
 5147 0010 0000      		.word gs(.L274)
 5148 0012 0000      		.word gs(.L275)
 5149 0014 0000      		.word gs(.L276)
 5150 0016 0000      		.word gs(.L277)
 5151 0018 0000      		.word gs(.L278)
 5152 001a 0000      		.word gs(.L279)
 5153 001c 0000      		.word gs(.L280)
 5154 001e 0000      		.word gs(.L281)
 5155 0020 0000      		.word gs(.L282)
 5156 0022 0000      		.word gs(.L283)
 5157 0024 0000      		.word gs(.L284)
 5158 0026 0000      		.word gs(.L285)
 5159 0028 0000      		.word gs(.L286)
 5160 002a 0000      		.word gs(.L287)
 5161 002c 0000      		.word gs(.L288)
 5162 002e 0000      		.word gs(.L289)
 5163               		.text
 5164               	.LVL306:
 5165               	.L402:
 5166               	.LBB388:
 5167               	.LBB375:
 5168               	.LM464:
 5169 1e4c 20E0      		ldi r18,lo8(blockId)
 5170 1e4e C22E      		mov r12,r18
 5171 1e50 20E0      		ldi r18,hi8(blockId)
 5172 1e52 D22E      		mov r13,r18
 5173               	.LVL307:
 5174 1e54 7801      		movw r14,r16
 5175               	.LVL308:
 5176 1e56 00C0      		rjmp .L251
 5177               	.LVL309:
 5178               	.L406:
 5179               	.LBE375:
 5180               	.LBE388:
 5181               	.LBE445:
 5182               	.LBB446:
 5183               	.LBB412:
 5184               	.LBB404:
 5185 1e58 00E0      		ldi r16,lo8(blockId)
 5186 1e5a 10E0      		ldi r17,hi8(blockId)
 5187               	.LVL310:
 5188 1e5c B701      		movw r22,r14
 5189               	.LVL311:
 5190               	.L313:
 5191               	.LBE404:
 5192               	.LBE412:
 5193               	.LM465:
 5194 1e5e 232F      		mov r18,r19
 5195 1e60 2F73      		andi r18,lo8(63)
 5196               	.LBB413:
 5197               	.LBB416:
 5198               	.LM466:
 5199 1e62 822F      		mov r24,r18
 5200 1e64 90E0      		ldi r25,lo8(0)
 5201 1e66 25FF      		sbrs r18,5
 5202 1e68 00C0      		rjmp .L320
 5203 1e6a FC01      		movw r30,r24
 5204 1e6c EF71      		andi r30,lo8(31)
 5205 1e6e F070      		andi r31,hi8(31)
 5206 1e70 EE0F      		lsl r30
 5207 1e72 FF1F      		rol r31
 5208 1e74 EE0F      		lsl r30
 5209 1e76 FF1F      		rol r31
 5210 1e78 2989      		ldd r18,Y+17
 5211 1e7a 3A89      		ldd r19,Y+18
 5212 1e7c E20F      		add r30,r18
 5213 1e7e F31F      		adc r31,r19
 5214 1e80 24E0      		ldi r18,lo8(4)
 5215 1e82 30E0      		ldi r19,hi8(4)
 5216               	.LVL312:
 5217               	.L321:
 5218               	.LBE416:
 5219               	.LBE413:
 5220               	.LM467:
 5221 1e84 CF01      		movw r24,r30
 5222 1e86 B801      		movw r22,r16
 5223 1e88 A901      		movw r20,r18
 5224               	.LVL313:
 5225 1e8a 0E94 0000 		call memcpy
 5226               	.LVL314:
 5227 1e8e 00C0      		rjmp .L209
 5228               	.LVL315:
 5229               	.L411:
 5230               	.LBE446:
 5231               	.LBB447:
 5232               	.LBB428:
 5233               	.LBB431:
 5234               	.LM468:
 5235 1e90 8901      		movw r16,r18
 5236               	.LVL316:
 5237 1e92 0F71      		andi r16,lo8(31)
 5238 1e94 1070      		andi r17,hi8(31)
 5239 1e96 000F      		lsl r16
 5240 1e98 111F      		rol r17
 5241 1e9a 000F      		lsl r16
 5242 1e9c 111F      		rol r17
 5243 1e9e E989      		ldd r30,Y+17
 5244 1ea0 FA89      		ldd r31,Y+18
 5245 1ea2 0E0F      		add r16,r30
 5246 1ea4 1F1F      		adc r17,r31
 5247 1ea6 6091 0000 		lds r22,arguments
 5248 1eaa 7091 0000 		lds r23,(arguments)+1
 5249 1eae 00C0      		rjmp .L331
 5250               	.LVL317:
 5251               	.L418:
 5252               	.LBE431:
 5253               	.LBE428:
 5254               	.LBE447:
 5255               	.LBB448:
 5256               	.LM469:
 5257 1eb0 4115      		cp r20,__zero_reg__
 5258 1eb2 5105      		cpc r21,__zero_reg__
 5259 1eb4 01F0      		breq .+2
 5260 1eb6 00C0      		rjmp .L423
 5261               	.LM470:
 5262 1eb8 AA0F      		lsl r26
 5263 1eba BB1F      		rol r27
 5264 1ebc A050      		subi r26,lo8(-(extern_functs))
 5265 1ebe B040      		sbci r27,hi8(-(extern_functs))
 5266 1ec0 ED91      		ld r30,X+
 5267 1ec2 FC91      		ld r31,X
 5268 1ec4 1995      		eicall
 5269 1ec6 D201      		movw r26,r4
 5270 1ec8 6D93      		st X+,r22
 5271 1eca 7D93      		st X+,r23
 5272 1ecc 8D93      		st X+,r24
 5273 1ece 9C93      		st X,r25
 5274 1ed0 1397      		sbiw r26,3
 5275               	.LVL318:
 5276               	.L349:
 5277               	.LM471:
 5278 1ed2 832D      		mov r24,r3
 5279 1ed4 922D      		mov r25,r2
 5280 1ed6 9C01      		movw r18,r24
 5281 1ed8 2DBF      		out __SP_L__,r18
 5282 1eda 3EBF      		out __SP_H__,r19
 5283 1edc 00C0      		rjmp .L209
 5284               	.LVL319:
 5285               	.L421:
 5286               	.LBE448:
 5287               	.LBB449:
 5288               	.LBB366:
 5289               	.LBB385:
 5290               	.LM472:
 5291 1ede 8E01      		movw r16,r28
 5292 1ee0 0F5F      		subi r16,lo8(-(1))
 5293 1ee2 1F4F      		sbci r17,hi8(-(1))
 5294 1ee4 4989      		ldd r20,Y+17
 5295 1ee6 5A89      		ldd r21,Y+18
 5296               	.LVL320:
 5297 1ee8 00C0      		rjmp .L259
 5298               	.LVL321:
 5299               	.L404:
 5300               	.LBE385:
 5301               	.LBE366:
 5302               	.LBB365:
 5303               	.LBB369:
 5304 1eea 6E01      		movw r12,r28
 5305               	.LVL322:
 5306 1eec 0894      		sec
 5307 1eee C11C      		adc r12,__zero_reg__
 5308 1ef0 D11C      		adc r13,__zero_reg__
 5309 1ef2 7801      		movw r14,r16
 5310               	.LVL323:
 5311 1ef4 00C0      		rjmp .L251
 5312               	.LVL324:
 5313               	.L368:
 5314               	.LBE369:
 5315               	.LBE365:
 5316               	.LBE449:
 5317               	.LBB450:
 5318               	.LBB345:
 5319               	.LBB349:
 5320               	.LM473:
 5321 1ef6 F901      		movw r30,r18
 5322 1ef8 00C0      		rjmp .L240
 5323               	.LVL325:
 5324               	.L408:
 5325               	.LBE349:
 5326               	.LBE345:
 5327               	.LBE450:
 5328               	.LBB451:
 5329               	.LBB400:
 5330               	.LBB409:
 5331               	.LM474:
 5332 1efa 8E01      		movw r16,r28
 5333               	.LVL326:
 5334 1efc 0F5F      		subi r16,lo8(-(1))
 5335 1efe 1F4F      		sbci r17,hi8(-(1))
 5336 1f00 B701      		movw r22,r14
 5337 1f02 00C0      		rjmp .L313
 5338               	.LVL327:
 5339               	.L320:
 5340               	.LBE409:
 5341               	.LBE400:
 5342               	.LBB399:
 5343               	.LBB415:
 5344               	.LM475:
 5345 1f04 2230      		cpi r18,lo8(2)
 5346 1f06 01F4      		brne .+2
 5347 1f08 00C0      		rjmp .L424
 5348               	.LM476:
 5349 1f0a 2130      		cpi r18,lo8(1)
 5350 1f0c 01F4      		brne .+2
 5351 1f0e 00C0      		rjmp .L425
 5352               	.LM477:
 5353 1f10 2223      		tst r18
 5354 1f12 01F4      		brne .+2
 5355 1f14 00C0      		rjmp .L426
 5356               	.LM478:
 5357 1f16 2F31      		cpi r18,lo8(31)
 5358 1f18 01F4      		brne .+2
 5359 1f1a 00C0      		rjmp .L427
 5360               	.LM479:
 5361 1f1c 2330      		cpi r18,lo8(3)
 5362 1f1e 01F4      		brne .+2
 5363 1f20 00C0      		rjmp .L428
 5364               	.LM480:
 5365 1f22 80E0      		ldi r24,lo8(.LC19)
 5366 1f24 90E0      		ldi r25,hi8(.LC19)
 5367 1f26 6CEB      		ldi r22,lo8(444)
 5368 1f28 71E0      		ldi r23,hi8(444)
 5369               	.LVL328:
 5370 1f2a 40E0      		ldi r20,lo8(.LC20)
 5371 1f2c 50E0      		ldi r21,hi8(.LC20)
 5372               	.LVL329:
 5373 1f2e 0E94 0000 		call __myassert
 5374               	.L324:
 5375               	.LM481:
 5376 1f32 80E0      		ldi r24,lo8(.LC19)
 5377 1f34 90E0      		ldi r25,hi8(.LC19)
 5378 1f36 6FEB      		ldi r22,lo8(447)
 5379 1f38 71E0      		ldi r23,hi8(447)
 5380 1f3a 40E0      		ldi r20,lo8(.LC20)
 5381 1f3c 50E0      		ldi r21,hi8(.LC20)
 5382 1f3e 0E94 0000 		call __myassert
 5383 1f42 20E0      		ldi r18,lo8(0)
 5384 1f44 30E0      		ldi r19,hi8(0)
 5385               	.LVL330:
 5386 1f46 E0E0      		ldi r30,lo8(0)
 5387 1f48 F0E0      		ldi r31,hi8(0)
 5388 1f4a 00C0      		rjmp .L321
 5389               	.LVL331:
 5390               	.L407:
 5391               	.LBE415:
 5392               	.LBE399:
 5393               	.LBB398:
 5394               	.LBB403:
 5395               	.LM482:
 5396 1f4c 8A01      		movw r16,r20
 5397               	.LVL332:
 5398 1f4e 0F71      		andi r16,lo8(31)
 5399 1f50 1070      		andi r17,hi8(31)
 5400 1f52 000F      		lsl r16
 5401 1f54 111F      		rol r17
 5402 1f56 000F      		lsl r16
 5403 1f58 111F      		rol r17
 5404 1f5a E989      		ldd r30,Y+17
 5405 1f5c FA89      		ldd r31,Y+18
 5406 1f5e 0E0F      		add r16,r30
 5407 1f60 1F1F      		adc r17,r31
 5408 1f62 B701      		movw r22,r14
 5409 1f64 00C0      		rjmp .L313
 5410               	.LVL333:
 5411               	.L419:
 5412               	.LBE403:
 5413               	.LBE398:
 5414               	.LBE451:
 5415               	.LBB452:
 5416               	.LBB389:
 5417               	.LBB381:
 5418               	.LM483:
 5419 1f66 00E0      		ldi r16,lo8(blockId)
 5420 1f68 10E0      		ldi r17,hi8(blockId)
 5421 1f6a 4989      		ldd r20,Y+17
 5422 1f6c 5A89      		ldd r21,Y+18
 5423               	.LVL334:
 5424 1f6e 00C0      		rjmp .L259
 5425               	.LVL335:
 5426               	.L410:
 5427               	.LBE381:
 5428               	.LBE389:
 5429               	.LBE452:
 5430               	.LBB453:
 5431               	.LBB439:
 5432               	.LBB436:
 5433 1f70 00E0      		ldi r16,lo8(blockId)
 5434 1f72 10E0      		ldi r17,hi8(blockId)
 5435               	.LVL336:
 5436 1f74 6091 0000 		lds r22,arguments
 5437 1f78 7091 0000 		lds r23,(arguments)+1
 5438 1f7c 00C0      		rjmp .L331
 5439               	.LVL337:
 5440               	.L400:
 5441               	.LBE436:
 5442               	.LBE439:
 5443               	.LBE453:
 5444               	.LBB454:
 5445               	.LBB360:
 5446               	.LBB356:
 5447               	.LM484:
 5448 1f7e FE01      		movw r30,r28
 5449 1f80 3196      		adiw r30,1
 5450 1f82 00C0      		rjmp .L240
 5451               	.LVL338:
 5452               	.L414:
 5453               	.LBE356:
 5454               	.LBE360:
 5455               	.LBE454:
 5456               	.LBB455:
 5457               	.LM485:
 5458 1f84 80E0      		ldi r24,lo8(.LC19)
 5459 1f86 90E0      		ldi r25,hi8(.LC19)
 5460 1f88 6FE6      		ldi r22,lo8(1391)
 5461 1f8a 75E0      		ldi r23,hi8(1391)
 5462 1f8c 40E0      		ldi r20,lo8(.LC30)
 5463 1f8e 50E0      		ldi r21,hi8(.LC30)
 5464 1f90 0E94 0000 		call __myassert
 5465 1f94 AD85      		ldd r26,Y+13
 5466 1f96 BE85      		ldd r27,Y+14
 5467 1f98 8C91      		ld r24,X
 5468 1f9a 90E0      		ldi r25,lo8(0)
 5469 1f9c 8F70      		andi r24,lo8(15)
 5470 1f9e 9070      		andi r25,hi8(15)
 5471 1fa0 1196      		adiw r26,1
 5472 1fa2 2C91      		ld r18,X
 5473 1fa4 2295      		swap r18
 5474 1fa6 2695      		lsr r18
 5475 1fa8 2770      		andi r18,0x7
 5476 1faa A22F      		mov r26,r18
 5477 1fac B0E0      		ldi r27,lo8(0)
 5478 1fae 880F      		lsl r24
 5479 1fb0 991F      		rol r25
 5480 1fb2 880F      		lsl r24
 5481 1fb4 991F      		rol r25
 5482 1fb6 880F      		lsl r24
 5483 1fb8 991F      		rol r25
 5484 1fba A82B      		or r26,r24
 5485 1fbc B92B      		or r27,r25
 5486 1fbe FD01      		movw r30,r26
 5487 1fc0 EE0F      		lsl r30
 5488 1fc2 FF1F      		rol r31
 5489 1fc4 E050      		subi r30,lo8(-(extern_functs_args))
 5490 1fc6 F040      		sbci r31,hi8(-(extern_functs_args))
 5491 1fc8 4081      		ld r20,Z
 5492 1fca 5181      		ldd r21,Z+1
 5493 1fcc 00C0      		rjmp .L338
 5494               	.LVL339:
 5495               	.L401:
 5496               	.LBE455:
 5497               	.LBB456:
 5498               	.LBB344:
 5499               	.LBB348:
 5500               	.LBB352:
 5501               	.LM486:
 5502 1fce D901      		movw r26,r18
 5503 1fd0 1196      		adiw r26,1
 5504 1fd2 EC91      		ld r30,X
 5505 1fd4 EF71      		andi r30,lo8(31)
 5506 1fd6 F0E0      		ldi r31,lo8(0)
 5507 1fd8 EE0F      		lsl r30
 5508 1fda FF1F      		rol r31
 5509 1fdc EE0F      		lsl r30
 5510 1fde FF1F      		rol r31
 5511 1fe0 2989      		ldd r18,Y+17
 5512 1fe2 3A89      		ldd r19,Y+18
 5513               	.LVL340:
 5514 1fe4 E20F      		add r30,r18
 5515 1fe6 F31F      		adc r31,r19
 5516 1fe8 4081      		ld r20,Z
 5517 1fea 5181      		ldd r21,Z+1
 5518               	.LVL341:
 5519               	.LM487:
 5520 1fec A091 0000 		lds r26,arguments
 5521 1ff0 B091 0000 		lds r27,(arguments)+1
 5522 1ff4 ED85      		ldd r30,Y+13
 5523 1ff6 FE85      		ldd r31,Y+14
 5524 1ff8 8381      		ldd r24,Z+3
 5525 1ffa 00C0      		rjmp .L367
 5526               	.LVL342:
 5527               	.L372:
 5528               	.LBE352:
 5529               	.LBE348:
 5530               	.LBE344:
 5531               	.LBE456:
 5532               	.LBB457:
 5533               	.LBB364:
 5534               	.LBB386:
 5535               	.LM488:
 5536 1ffc 8701      		movw r16,r14
 5537 1ffe 4989      		ldd r20,Y+17
 5538 2000 5A89      		ldd r21,Y+18
 5539               	.LVL343:
 5540 2002 00C0      		rjmp .L259
 5541               	.LVL344:
 5542               	.L370:
 5543               	.LBE386:
 5544               	.LBE364:
 5545               	.LBB363:
 5546               	.LBB376:
 5547               	.LBB374:
 5548               	.LM489:
 5549 2004 B4E0      		ldi r27,lo8(4)
 5550 2006 EB2E      		mov r14,r27
 5551 2008 F12C      		mov r15,__zero_reg__
 5552               	.LVL345:
 5553 200a E00E      		add r14,r16
 5554 200c F11E      		adc r15,r17
 5555 200e 6801      		movw r12,r16
 5556               	.LVL346:
 5557 2010 00C0      		rjmp .L251
 5558               	.LVL347:
 5559               	.L423:
 5560               	.LBE374:
 5561               	.LBE376:
 5562               	.LBE363:
 5563               	.LBE457:
 5564               	.LBB458:
 5565               	.LM490:
 5566 2012 4130      		cpi r20,1
 5567 2014 5105      		cpc r21,__zero_reg__
 5568 2016 01F0      		breq .+2
 5569 2018 00C0      		rjmp .L349
 5570               	.LM491:
 5571 201a AA0F      		lsl r26
 5572 201c BB1F      		rol r27
 5573 201e A050      		subi r26,lo8(-(extern_functs))
 5574 2020 B040      		sbci r27,hi8(-(extern_functs))
 5575 2022 F401      		movw r30,r8
 5576 2024 6081      		ld r22,Z
 5577 2026 7181      		ldd r23,Z+1
 5578 2028 8281      		ldd r24,Z+2
 5579 202a 9381      		ldd r25,Z+3
 5580 202c ED91      		ld r30,X+
 5581 202e FC91      		ld r31,X
 5582 2030 1995      		eicall
 5583 2032 D201      		movw r26,r4
 5584 2034 6D93      		st X+,r22
 5585 2036 7D93      		st X+,r23
 5586 2038 8D93      		st X+,r24
 5587 203a 9C93      		st X,r25
 5588 203c 1397      		sbiw r26,3
 5589 203e 00C0      		rjmp .L349
 5590               	.LVL348:
 5591               	.L374:
 5592               	.LBE458:
 5593               	.LBB459:
 5594               	.LBB420:
 5595               	.LBB410:
 5596               	.LBB408:
 5597               	.LM492:
 5598 2040 B701      		movw r22,r14
 5599 2042 6C5F      		subi r22,lo8(-(4))
 5600 2044 7F4F      		sbci r23,hi8(-(4))
 5601               	.LVL349:
 5602 2046 8701      		movw r16,r14
 5603               	.LVL350:
 5604 2048 00C0      		rjmp .L313
 5605               	.LVL351:
 5606               	.L424:
 5607               	.LBE408:
 5608               	.LBE410:
 5609               	.LBE420:
 5610               	.LBB421:
 5611               	.LBB418:
 5612               	.LBB417:
 5613               	.LM493:
 5614 204a DB01      		movw r26,r22
 5615 204c 1196      		adiw r26,1
 5616 204e EC91      		ld r30,X
 5617 2050 F0E0      		ldi r31,lo8(0)
 5618 2052 EF71      		andi r30,lo8(31)
 5619 2054 F070      		andi r31,hi8(31)
 5620 2056 EE0F      		lsl r30
 5621 2058 FF1F      		rol r31
 5622 205a EE0F      		lsl r30
 5623 205c FF1F      		rol r31
 5624 205e 2989      		ldd r18,Y+17
 5625 2060 3A89      		ldd r19,Y+18
 5626 2062 E20F      		add r30,r18
 5627 2064 F31F      		adc r31,r19
 5628 2066 A081      		ld r26,Z
 5629 2068 B181      		ldd r27,Z+1
 5630               	.LVL352:
 5631               	.LM494:
 5632 206a 8091 0000 		lds r24,arguments
 5633 206e 9091 0000 		lds r25,(arguments)+1
 5634 2072 EC91      		ld r30,X
 5635 2074 F0E0      		ldi r31,lo8(0)
 5636 2076 EE0F      		lsl r30
 5637 2078 FF1F      		rol r31
 5638 207a E80F      		add r30,r24
 5639 207c F91F      		adc r31,r25
 5640 207e 2081      		ld r18,Z
 5641 2080 FB01      		movw r30,r22
 5642 2082 3081      		ld r19,Z
 5643 2084 E32F      		mov r30,r19
 5644 2086 F0E0      		ldi r31,lo8(0)
 5645 2088 EE0F      		lsl r30
 5646 208a FF1F      		rol r31
 5647               	.LVL353:
 5648 208c E20F      		add r30,r18
 5649 208e F11D      		adc r31,__zero_reg__
 5650 2090 E80F      		add r30,r24
 5651 2092 F91F      		adc r31,r25
 5652 2094 8081      		ld r24,Z
 5653 2096 282F      		mov r18,r24
 5654               	.LVL354:
 5655 2098 30E0      		ldi r19,lo8(0)
 5656               	.LVL355:
 5657 209a 8181      		ldd r24,Z+1
 5658 209c E82F      		mov r30,r24
 5659 209e F0E0      		ldi r31,lo8(0)
 5660 20a0 3196      		adiw r30,1
 5661 20a2 EA0F      		add r30,r26
 5662 20a4 FB1F      		adc r31,r27
 5663 20a6 00C0      		rjmp .L321
 5664               	.LVL356:
 5665               	.L352:
 5666               	.LBE417:
 5667               	.LBE418:
 5668               	.LBE421:
 5669               	.LBE459:
 5670               	.LBB460:
 5671               	.LM495:
 5672 20a8 AA0F      		lsl r26
 5673 20aa BB1F      		rol r27
 5674               	.LVL357:
 5675 20ac A050      		subi r26,lo8(-(extern_functs))
 5676 20ae B040      		sbci r27,hi8(-(extern_functs))
 5677 20b0 F401      		movw r30,r8
 5678 20b2 6081      		ld r22,Z
 5679 20b4 7181      		ldd r23,Z+1
 5680 20b6 8281      		ldd r24,Z+2
 5681 20b8 9381      		ldd r25,Z+3
 5682               	.LVL358:
 5683 20ba 2481      		ldd r18,Z+4
 5684 20bc 3581      		ldd r19,Z+5
 5685 20be 4681      		ldd r20,Z+6
 5686 20c0 5781      		ldd r21,Z+7
 5687 20c2 ED91      		ld r30,X+
 5688 20c4 FC91      		ld r31,X
 5689 20c6 1995      		eicall
 5690 20c8 D201      		movw r26,r4
 5691 20ca 6D93      		st X+,r22
 5692 20cc 7D93      		st X+,r23
 5693 20ce 8D93      		st X+,r24
 5694 20d0 9C93      		st X,r25
 5695 20d2 1397      		sbiw r26,3
 5696 20d4 00C0      		rjmp .L349
 5697               	.LVL359:
 5698               	.L405:
 5699               	.LBE460:
 5700               	.LBB461:
 5701               	.LBB390:
 5702               	.LBB368:
 5703               	.LBB372:
 5704               	.LM496:
 5705 20d6 D801      		movw r26,r16
 5706 20d8 1196      		adiw r26,1
 5707 20da EC91      		ld r30,X
 5708 20dc EF71      		andi r30,lo8(31)
 5709 20de F0E0      		ldi r31,lo8(0)
 5710 20e0 00C0      		rjmp .L369
 5711               	.LVL360:
 5712               	.L422:
 5713               	.LBE372:
 5714               	.LBE368:
 5715               	.LBE390:
 5716               	.LBB391:
 5717               	.LBB380:
 5718               	.LBB383:
 5719 20e2 D701      		movw r26,r14
 5720 20e4 1196      		adiw r26,1
 5721 20e6 EC91      		ld r30,X
 5722 20e8 EF71      		andi r30,lo8(31)
 5723 20ea F0E0      		ldi r31,lo8(0)
 5724 20ec 00C0      		rjmp .L371
 5725               	.LVL361:
 5726               	.L353:
 5727               	.LBE383:
 5728               	.LBE380:
 5729               	.LBE391:
 5730               	.LBE461:
 5731               	.LBB462:
 5732               	.LM497:
 5733 20ee AA0F      		lsl r26
 5734 20f0 BB1F      		rol r27
 5735 20f2 A050      		subi r26,lo8(-(extern_functs))
 5736 20f4 B040      		sbci r27,hi8(-(extern_functs))
 5737 20f6 F401      		movw r30,r8
 5738 20f8 6081      		ld r22,Z
 5739 20fa 7181      		ldd r23,Z+1
 5740 20fc 8281      		ldd r24,Z+2
 5741 20fe 9381      		ldd r25,Z+3
 5742 2100 2481      		ldd r18,Z+4
 5743 2102 3581      		ldd r19,Z+5
 5744 2104 4681      		ldd r20,Z+6
 5745 2106 5781      		ldd r21,Z+7
 5746 2108 E084      		ldd r14,Z+8
 5747 210a F184      		ldd r15,Z+9
 5748 210c 0285      		ldd r16,Z+10
 5749 210e 1385      		ldd r17,Z+11
 5750               	.LVL362:
 5751 2110 ED91      		ld r30,X+
 5752 2112 FC91      		ld r31,X
 5753 2114 1995      		eicall
 5754 2116 D201      		movw r26,r4
 5755 2118 6D93      		st X+,r22
 5756 211a 7D93      		st X+,r23
 5757 211c 8D93      		st X+,r24
 5758 211e 9C93      		st X,r25
 5759 2120 1397      		sbiw r26,3
 5760 2122 00C0      		rjmp .L349
 5761               	.LVL363:
 5762               	.L354:
 5763               	.LM498:
 5764 2124 AA0F      		lsl r26
 5765 2126 BB1F      		rol r27
 5766 2128 A050      		subi r26,lo8(-(extern_functs))
 5767 212a B040      		sbci r27,hi8(-(extern_functs))
 5768 212c F401      		movw r30,r8
 5769 212e 6081      		ld r22,Z
 5770 2130 7181      		ldd r23,Z+1
 5771 2132 8281      		ldd r24,Z+2
 5772 2134 9381      		ldd r25,Z+3
 5773 2136 2481      		ldd r18,Z+4
 5774 2138 3581      		ldd r19,Z+5
 5775 213a 4681      		ldd r20,Z+6
 5776 213c 5781      		ldd r21,Z+7
 5777 213e E084      		ldd r14,Z+8
 5778 2140 F184      		ldd r15,Z+9
 5779 2142 0285      		ldd r16,Z+10
 5780 2144 1385      		ldd r17,Z+11
 5781               	.LVL364:
 5782 2146 A484      		ldd r10,Z+12
 5783 2148 B584      		ldd r11,Z+13
 5784 214a C684      		ldd r12,Z+14
 5785 214c D784      		ldd r13,Z+15
 5786 214e ED91      		ld r30,X+
 5787 2150 FC91      		ld r31,X
 5788 2152 1995      		eicall
 5789 2154 D201      		movw r26,r4
 5790 2156 6D93      		st X+,r22
 5791 2158 7D93      		st X+,r23
 5792 215a 8D93      		st X+,r24
 5793 215c 9C93      		st X,r25
 5794 215e 1397      		sbiw r26,3
 5795 2160 00C0      		rjmp .L349
 5796               	.LVL365:
 5797               	.L213:
 5798               	.LBE462:
 5799               	.LBB463:
 5800               	.LM499:
 5801 2162 4528      		or r4,r5
 5802 2164 01F0      		breq .+2
 5803 2166 00C0      		rjmp .L220
 5804               	.LBE463:
 5805               	.LM500:
 5806 2168 4B85      		ldd r20,Y+11
 5807 216a 5C85      		ldd r21,Y+12
 5808 216c 4D87      		std Y+13,r20
 5809 216e 5E87      		std Y+14,r21
 5810               	.LVL366:
 5811 2170 DA01      		movw r26,r20
 5812 2172 00C0      		rjmp .L364
 5813               	.LVL367:
 5814               	.L409:
 5815               	.LBB464:
 5816               	.LBB397:
 5817               	.LBB402:
 5818               	.LBB406:
 5819               	.LM501:
 5820 2174 D701      		movw r26,r14
 5821 2176 1196      		adiw r26,1
 5822 2178 EC91      		ld r30,X
 5823 217a EF71      		andi r30,lo8(31)
 5824 217c F0E0      		ldi r31,lo8(0)
 5825 217e 00C0      		rjmp .L373
 5826               	.LVL368:
 5827               	.L425:
 5828               	.LBE406:
 5829               	.LBE402:
 5830               	.LBE397:
 5831               	.LBB396:
 5832               	.LBB414:
 5833               	.LM502:
 5834 2180 80E0      		ldi r24,lo8(.LC19)
 5835 2182 90E0      		ldi r25,hi8(.LC19)
 5836 2184 64EB      		ldi r22,lo8(436)
 5837 2186 71E0      		ldi r23,hi8(436)
 5838               	.LVL369:
 5839 2188 40E0      		ldi r20,lo8(.LC20)
 5840 218a 50E0      		ldi r21,hi8(.LC20)
 5841               	.LVL370:
 5842 218c 0E94 0000 		call __myassert
 5843 2190 00C0      		rjmp .L324
 5844               	.LVL371:
 5845               	.L426:
 5846               	.LM503:
 5847 2192 80E0      		ldi r24,lo8(.LC19)
 5848 2194 90E0      		ldi r25,hi8(.LC19)
 5849 2196 66EB      		ldi r22,lo8(438)
 5850 2198 71E0      		ldi r23,hi8(438)
 5851               	.LVL372:
 5852 219a 40E0      		ldi r20,lo8(.LC20)
 5853 219c 50E0      		ldi r21,hi8(.LC20)
 5854               	.LVL373:
 5855 219e 0E94 0000 		call __myassert
 5856 21a2 00C0      		rjmp .L324
 5857               	.LVL374:
 5858               	.L376:
 5859               	.LBE414:
 5860               	.LBE396:
 5861               	.LBE464:
 5862               	.LBB465:
 5863               	.LBB427:
 5864               	.LBB430:
 5865               	.LM504:
 5866 21a4 8D01      		movw r16,r26
 5867               	.LVL375:
 5868 21a6 6091 0000 		lds r22,arguments
 5869 21aa 7091 0000 		lds r23,(arguments)+1
 5870 21ae 00C0      		rjmp .L331
 5871               	.LVL376:
 5872               	.L413:
 5873               	.LBB433:
 5874               	.LM505:
 5875 21b0 1196      		adiw r26,1
 5876 21b2 EC91      		ld r30,X
 5877 21b4 EF71      		andi r30,lo8(31)
 5878 21b6 F0E0      		ldi r31,lo8(0)
 5879 21b8 EE0F      		lsl r30
 5880 21ba FF1F      		rol r31
 5881 21bc EE0F      		lsl r30
 5882 21be FF1F      		rol r31
 5883 21c0 2989      		ldd r18,Y+17
 5884 21c2 3A89      		ldd r19,Y+18
 5885 21c4 E20F      		add r30,r18
 5886 21c6 F31F      		adc r31,r19
 5887 21c8 2081      		ld r18,Z
 5888 21ca 3181      		ldd r19,Z+1
 5889               	.LVL377:
 5890               	.LM506:
 5891 21cc 6091 0000 		lds r22,arguments
 5892 21d0 7091 0000 		lds r23,(arguments)+1
 5893 21d4 ED85      		ldd r30,Y+13
 5894 21d6 FE85      		ldd r31,Y+14
 5895 21d8 A281      		ldd r26,Z+2
 5896               	.LVL378:
 5897 21da 00C0      		rjmp .L375
 5898               	.LVL379:
 5899               	.L412:
 5900               	.LBE433:
 5901               	.LM507:
 5902 21dc 8E01      		movw r16,r28
 5903               	.LVL380:
 5904 21de 0F5F      		subi r16,lo8(-(1))
 5905 21e0 1F4F      		sbci r17,hi8(-(1))
 5906 21e2 6091 0000 		lds r22,arguments
 5907 21e6 7091 0000 		lds r23,(arguments)+1
 5908 21ea 00C0      		rjmp .L331
 5909               	.LVL381:
 5910               	.L289:
 5911               	.LBE430:
 5912               	.LBE427:
 5913               	.LBE465:
 5914               	.LBB466:
 5915               	.LM508:
 5916 21ec F701      		movw r30,r14
 5917 21ee 1082      		st Z,__zero_reg__
 5918 21f0 1182      		std Z+1,__zero_reg__
 5919 21f2 1282      		std Z+2,__zero_reg__
 5920 21f4 1382      		std Z+3,__zero_reg__
 5921 21f6 D601      		movw r26,r12
 5922 21f8 2D91      		ld r18,X+
 5923 21fa 3C91      		ld r19,X
 5924 21fc F801      		movw r30,r16
 5925 21fe 8081      		ld r24,Z
 5926 2200 9181      		ldd r25,Z+1
 5927 2202 2817      		cp r18,r24
 5928 2204 3907      		cpc r19,r25
 5929 2206 01F0      		breq .+4
 5930 2208 0C94 0000 		jmp .L209
 5931               	.L379:
 5932 220c 21E0      		ldi r18,lo8(1)
 5933 220e 30E0      		ldi r19,hi8(1)
 5934 2210 40E0      		ldi r20,hlo8(1)
 5935 2212 50E0      		ldi r21,hhi8(1)
 5936 2214 D701      		movw r26,r14
 5937 2216 2D93      		st X+,r18
 5938 2218 3D93      		st X+,r19
 5939 221a 4D93      		st X+,r20
 5940 221c 5C93      		st X,r21
 5941 221e 1397      		sbiw r26,3
 5942 2220 0C94 0000 		jmp .L209
 5943               	.L266:
 5944               	.LM509:
 5945 2224 D701      		movw r26,r14
 5946 2226 1D92      		st X+,__zero_reg__
 5947 2228 1D92      		st X+,__zero_reg__
 5948 222a 1D92      		st X+,__zero_reg__
 5949 222c 1C92      		st X,__zero_reg__
 5950 222e 1397      		sbiw r26,3
 5951 2230 F601      		movw r30,r12
 5952 2232 6081      		ld r22,Z
 5953 2234 7181      		ldd r23,Z+1
 5954 2236 8281      		ldd r24,Z+2
 5955 2238 9381      		ldd r25,Z+3
 5956 223a D801      		movw r26,r16
 5957 223c 2D91      		ld r18,X+
 5958 223e 3D91      		ld r19,X+
 5959 2240 4D91      		ld r20,X+
 5960 2242 5C91      		ld r21,X
 5961 2244 0E94 0000 		call __nesf2
 5962 2248 8823      		tst r24
 5963 224a 01F4      		brne .+4
 5964 224c 0C94 0000 		jmp .L209
 5965 2250 00C0      		rjmp .L379
 5966               	.L267:
 5967               	.LM510:
 5968 2252 8824      		clr r8
 5969 2254 9924      		clr r9
 5970 2256 5401      		movw r10,r8
 5971               	.LVL382:
 5972 2258 D601      		movw r26,r12
 5973 225a 2D91      		ld r18,X+
 5974 225c 3D91      		ld r19,X+
 5975 225e 4D91      		ld r20,X+
 5976 2260 5C91      		ld r21,X
 5977 2262 F801      		movw r30,r16
 5978 2264 8081      		ld r24,Z
 5979 2266 9181      		ldd r25,Z+1
 5980 2268 A281      		ldd r26,Z+2
 5981 226a B381      		ldd r27,Z+3
 5982 226c 2817      		cp r18,r24
 5983 226e 3907      		cpc r19,r25
 5984 2270 4A07      		cpc r20,r26
 5985 2272 5B07      		cpc r21,r27
 5986 2274 01F0      		breq .L296
 5987               	.L380:
 5988               	.LM511:
 5989 2276 31E0      		ldi r19,lo8(1)
 5990 2278 832E      		mov r8,r19
 5991 227a 912C      		mov r9,__zero_reg__
 5992 227c A12C      		mov r10,__zero_reg__
 5993 227e B12C      		mov r11,__zero_reg__
 5994               	.L296:
 5995 2280 D701      		movw r26,r14
 5996 2282 8D92      		st X+,r8
 5997 2284 9D92      		st X+,r9
 5998 2286 AD92      		st X+,r10
 5999 2288 BC92      		st X,r11
 6000 228a 1397      		sbiw r26,3
 6001 228c 0C94 0000 		jmp .L209
 6002               	.LVL383:
 6003               	.L268:
 6004               	.LM512:
 6005 2290 F701      		movw r30,r14
 6006 2292 1082      		st Z,__zero_reg__
 6007 2294 1182      		std Z+1,__zero_reg__
 6008 2296 1282      		std Z+2,__zero_reg__
 6009 2298 1382      		std Z+3,__zero_reg__
 6010 229a D601      		movw r26,r12
 6011 229c 6D91      		ld r22,X+
 6012 229e 7D91      		ld r23,X+
 6013 22a0 8D91      		ld r24,X+
 6014 22a2 9C91      		ld r25,X
 6015 22a4 F801      		movw r30,r16
 6016 22a6 2081      		ld r18,Z
 6017 22a8 3181      		ldd r19,Z+1
 6018 22aa 4281      		ldd r20,Z+2
 6019 22ac 5381      		ldd r21,Z+3
 6020 22ae 0E94 0000 		call __eqsf2
 6021 22b2 8823      		tst r24
 6022 22b4 01F0      		breq .+4
 6023 22b6 0C94 0000 		jmp .L209
 6024 22ba 00C0      		rjmp .L379
 6025               	.L269:
 6026               	.LM513:
 6027 22bc 8824      		clr r8
 6028 22be 9924      		clr r9
 6029 22c0 5401      		movw r10,r8
 6030               	.LVL384:
 6031 22c2 F601      		movw r30,r12
 6032 22c4 2081      		ld r18,Z
 6033 22c6 3181      		ldd r19,Z+1
 6034 22c8 4281      		ldd r20,Z+2
 6035 22ca 5381      		ldd r21,Z+3
 6036 22cc F801      		movw r30,r16
 6037 22ce 8081      		ld r24,Z
 6038 22d0 9181      		ldd r25,Z+1
 6039 22d2 A281      		ldd r26,Z+2
 6040 22d4 B381      		ldd r27,Z+3
 6041 22d6 2817      		cp r18,r24
 6042 22d8 3907      		cpc r19,r25
 6043 22da 4A07      		cpc r20,r26
 6044 22dc 5B07      		cpc r21,r27
 6045 22de 01F4      		brne .L296
 6046 22e0 00C0      		rjmp .L380
 6047               	.LVL385:
 6048               	.L270:
 6049               	.LM514:
 6050 22e2 F701      		movw r30,r14
 6051 22e4 1082      		st Z,__zero_reg__
 6052 22e6 1182      		std Z+1,__zero_reg__
 6053 22e8 1282      		std Z+2,__zero_reg__
 6054 22ea 1382      		std Z+3,__zero_reg__
 6055 22ec D601      		movw r26,r12
 6056 22ee 6D91      		ld r22,X+
 6057 22f0 7D91      		ld r23,X+
 6058 22f2 8D91      		ld r24,X+
 6059 22f4 9C91      		ld r25,X
 6060 22f6 F801      		movw r30,r16
 6061 22f8 2081      		ld r18,Z
 6062 22fa 3181      		ldd r19,Z+1
 6063 22fc 4281      		ldd r20,Z+2
 6064 22fe 5381      		ldd r21,Z+3
 6065 2300 0E94 0000 		call __ltsf2
 6066 2304 8823      		tst r24
 6067 2306 04F0      		brlt .+4
 6068 2308 0C94 0000 		jmp .L209
 6069 230c 00C0      		rjmp .L379
 6070               	.L271:
 6071               	.LM515:
 6072 230e 8824      		clr r8
 6073 2310 9924      		clr r9
 6074 2312 5401      		movw r10,r8
 6075               	.LVL386:
 6076 2314 F601      		movw r30,r12
 6077 2316 2081      		ld r18,Z
 6078 2318 3181      		ldd r19,Z+1
 6079 231a 4281      		ldd r20,Z+2
 6080 231c 5381      		ldd r21,Z+3
 6081 231e F801      		movw r30,r16
 6082 2320 8081      		ld r24,Z
 6083 2322 9181      		ldd r25,Z+1
 6084 2324 A281      		ldd r26,Z+2
 6085 2326 B381      		ldd r27,Z+3
 6086 2328 2817      		cp r18,r24
 6087 232a 3907      		cpc r19,r25
 6088 232c 4A07      		cpc r20,r26
 6089 232e 5B07      		cpc r21,r27
 6090 2330 04F0      		brlt .+2
 6091 2332 00C0      		rjmp .L296
 6092 2334 00C0      		rjmp .L380
 6093               	.LVL387:
 6094               	.L272:
 6095               	.LM516:
 6096 2336 F701      		movw r30,r14
 6097 2338 1082      		st Z,__zero_reg__
 6098 233a 1182      		std Z+1,__zero_reg__
 6099 233c 1282      		std Z+2,__zero_reg__
 6100 233e 1382      		std Z+3,__zero_reg__
 6101 2340 D601      		movw r26,r12
 6102 2342 6D91      		ld r22,X+
 6103 2344 7D91      		ld r23,X+
 6104 2346 8D91      		ld r24,X+
 6105 2348 9C91      		ld r25,X
 6106 234a F801      		movw r30,r16
 6107 234c 2081      		ld r18,Z
 6108 234e 3181      		ldd r19,Z+1
 6109 2350 4281      		ldd r20,Z+2
 6110 2352 5381      		ldd r21,Z+3
 6111 2354 0E94 0000 		call __lesf2
 6112 2358 1816      		cp __zero_reg__,r24
 6113 235a 04F4      		brge .+4
 6114 235c 0C94 0000 		jmp .L209
 6115 2360 00C0      		rjmp .L379
 6116               	.L273:
 6117               	.LM517:
 6118 2362 8824      		clr r8
 6119 2364 9924      		clr r9
 6120 2366 5401      		movw r10,r8
 6121               	.LVL388:
 6122 2368 F601      		movw r30,r12
 6123 236a 2081      		ld r18,Z
 6124 236c 3181      		ldd r19,Z+1
 6125 236e 4281      		ldd r20,Z+2
 6126 2370 5381      		ldd r21,Z+3
 6127 2372 F801      		movw r30,r16
 6128 2374 8081      		ld r24,Z
 6129 2376 9181      		ldd r25,Z+1
 6130 2378 A281      		ldd r26,Z+2
 6131 237a B381      		ldd r27,Z+3
 6132 237c 8217      		cp r24,r18
 6133 237e 9307      		cpc r25,r19
 6134 2380 A407      		cpc r26,r20
 6135 2382 B507      		cpc r27,r21
 6136 2384 04F4      		brge .+2
 6137 2386 00C0      		rjmp .L296
 6138 2388 00C0      		rjmp .L380
 6139               	.LVL389:
 6140               	.L274:
 6141               	.LM518:
 6142 238a F701      		movw r30,r14
 6143 238c 1082      		st Z,__zero_reg__
 6144 238e 1182      		std Z+1,__zero_reg__
 6145 2390 1282      		std Z+2,__zero_reg__
 6146 2392 1382      		std Z+3,__zero_reg__
 6147 2394 D601      		movw r26,r12
 6148 2396 6D91      		ld r22,X+
 6149 2398 7D91      		ld r23,X+
 6150 239a 8D91      		ld r24,X+
 6151 239c 9C91      		ld r25,X
 6152 239e F801      		movw r30,r16
 6153 23a0 2081      		ld r18,Z
 6154 23a2 3181      		ldd r19,Z+1
 6155 23a4 4281      		ldd r20,Z+2
 6156 23a6 5381      		ldd r21,Z+3
 6157 23a8 0E94 0000 		call __gtsf2
 6158 23ac 1816      		cp __zero_reg__,r24
 6159 23ae 04F4      		brge .+2
 6160 23b0 00C0      		rjmp .L379
 6161 23b2 0C94 0000 		jmp .L209
 6162               	.L275:
 6163               	.LM519:
 6164 23b6 8824      		clr r8
 6165 23b8 9924      		clr r9
 6166 23ba 5401      		movw r10,r8
 6167               	.LVL390:
 6168 23bc F601      		movw r30,r12
 6169 23be 2081      		ld r18,Z
 6170 23c0 3181      		ldd r19,Z+1
 6171 23c2 4281      		ldd r20,Z+2
 6172 23c4 5381      		ldd r21,Z+3
 6173 23c6 F801      		movw r30,r16
 6174 23c8 8081      		ld r24,Z
 6175 23ca 9181      		ldd r25,Z+1
 6176 23cc A281      		ldd r26,Z+2
 6177 23ce B381      		ldd r27,Z+3
 6178 23d0 8217      		cp r24,r18
 6179 23d2 9307      		cpc r25,r19
 6180 23d4 A407      		cpc r26,r20
 6181 23d6 B507      		cpc r27,r21
 6182 23d8 04F0      		brlt .+2
 6183 23da 00C0      		rjmp .L296
 6184 23dc 00C0      		rjmp .L380
 6185               	.LVL391:
 6186               	.L276:
 6187               	.LM520:
 6188 23de F701      		movw r30,r14
 6189 23e0 1082      		st Z,__zero_reg__
 6190 23e2 1182      		std Z+1,__zero_reg__
 6191 23e4 1282      		std Z+2,__zero_reg__
 6192 23e6 1382      		std Z+3,__zero_reg__
 6193 23e8 D601      		movw r26,r12
 6194 23ea 6D91      		ld r22,X+
 6195 23ec 7D91      		ld r23,X+
 6196 23ee 8D91      		ld r24,X+
 6197 23f0 9C91      		ld r25,X
 6198 23f2 F801      		movw r30,r16
 6199 23f4 2081      		ld r18,Z
 6200 23f6 3181      		ldd r19,Z+1
 6201 23f8 4281      		ldd r20,Z+2
 6202 23fa 5381      		ldd r21,Z+3
 6203 23fc 0E94 0000 		call __gesf2
 6204 2400 8823      		tst r24
 6205 2402 04F0      		brlt .+2
 6206 2404 00C0      		rjmp .L379
 6207 2406 0C94 0000 		jmp .L209
 6208               	.L277:
 6209               	.LM521:
 6210 240a 8824      		clr r8
 6211 240c 9924      		clr r9
 6212 240e 5401      		movw r10,r8
 6213               	.LVL392:
 6214 2410 F601      		movw r30,r12
 6215 2412 2081      		ld r18,Z
 6216 2414 3181      		ldd r19,Z+1
 6217 2416 4281      		ldd r20,Z+2
 6218 2418 5381      		ldd r21,Z+3
 6219 241a F801      		movw r30,r16
 6220 241c 8081      		ld r24,Z
 6221 241e 9181      		ldd r25,Z+1
 6222 2420 A281      		ldd r26,Z+2
 6223 2422 B381      		ldd r27,Z+3
 6224 2424 2817      		cp r18,r24
 6225 2426 3907      		cpc r19,r25
 6226 2428 4A07      		cpc r20,r26
 6227 242a 5B07      		cpc r21,r27
 6228 242c 04F4      		brge .+2
 6229 242e 00C0      		rjmp .L296
 6230 2430 00C0      		rjmp .L380
 6231               	.LVL393:
 6232               	.L278:
 6233               	.LM522:
 6234 2432 F601      		movw r30,r12
 6235 2434 6081      		ld r22,Z
 6236 2436 7181      		ldd r23,Z+1
 6237 2438 8281      		ldd r24,Z+2
 6238 243a 9381      		ldd r25,Z+3
 6239 243c D801      		movw r26,r16
 6240 243e 2D91      		ld r18,X+
 6241 2440 3D91      		ld r19,X+
 6242 2442 4D91      		ld r20,X+
 6243 2444 5C91      		ld r21,X
 6244 2446 0E94 0000 		call fmod
 6245 244a AC01      		movw r20,r24
 6246 244c CB01      		movw r24,r22
 6247 244e DA01      		movw r26,r20
 6248 2450 F701      		movw r30,r14
 6249 2452 8083      		st Z,r24
 6250 2454 9183      		std Z+1,r25
 6251 2456 A283      		std Z+2,r26
 6252 2458 B383      		std Z+3,r27
 6253 245a 0C94 0000 		jmp .L209
 6254               	.L279:
 6255               	.LM523:
 6256 245e F601      		movw r30,r12
 6257 2460 6081      		ld r22,Z
 6258 2462 7181      		ldd r23,Z+1
 6259 2464 8281      		ldd r24,Z+2
 6260 2466 9381      		ldd r25,Z+3
 6261 2468 D801      		movw r26,r16
 6262 246a 2D91      		ld r18,X+
 6263 246c 3D91      		ld r19,X+
 6264 246e 4D91      		ld r20,X+
 6265 2470 5C91      		ld r21,X
 6266 2472 0E94 0000 		call __divmodsi4
 6267 2476 F701      		movw r30,r14
 6268 2478 6083      		st Z,r22
 6269 247a 7183      		std Z+1,r23
 6270 247c 8283      		std Z+2,r24
 6271 247e 9383      		std Z+3,r25
 6272 2480 0C94 0000 		jmp .L209
 6273               	.L280:
 6274               	.LM524:
 6275 2484 D601      		movw r26,r12
 6276 2486 6D91      		ld r22,X+
 6277 2488 7D91      		ld r23,X+
 6278 248a 8D91      		ld r24,X+
 6279 248c 9C91      		ld r25,X
 6280 248e F801      		movw r30,r16
 6281 2490 2081      		ld r18,Z
 6282 2492 3181      		ldd r19,Z+1
 6283 2494 4281      		ldd r20,Z+2
 6284 2496 5381      		ldd r21,Z+3
 6285 2498 0E94 0000 		call __addsf3
 6286 249c D701      		movw r26,r14
 6287 249e 6D93      		st X+,r22
 6288 24a0 7D93      		st X+,r23
 6289 24a2 8D93      		st X+,r24
 6290 24a4 9C93      		st X,r25
 6291 24a6 1397      		sbiw r26,3
 6292 24a8 0C94 0000 		jmp .L209
 6293               	.L281:
 6294               	.LM525:
 6295 24ac F801      		movw r30,r16
 6296 24ae 8081      		ld r24,Z
 6297 24b0 9181      		ldd r25,Z+1
 6298 24b2 A281      		ldd r26,Z+2
 6299 24b4 B381      		ldd r27,Z+3
 6300 24b6 F601      		movw r30,r12
 6301 24b8 2081      		ld r18,Z
 6302 24ba 3181      		ldd r19,Z+1
 6303 24bc 4281      		ldd r20,Z+2
 6304 24be 5381      		ldd r21,Z+3
 6305 24c0 820F      		add r24,r18
 6306 24c2 931F      		adc r25,r19
 6307 24c4 A41F      		adc r26,r20
 6308 24c6 B51F      		adc r27,r21
 6309 24c8 F701      		movw r30,r14
 6310 24ca 8083      		st Z,r24
 6311 24cc 9183      		std Z+1,r25
 6312 24ce A283      		std Z+2,r26
 6313 24d0 B383      		std Z+3,r27
 6314 24d2 0C94 0000 		jmp .L209
 6315               	.L282:
 6316               	.LM526:
 6317 24d6 F601      		movw r30,r12
 6318 24d8 6081      		ld r22,Z
 6319 24da 7181      		ldd r23,Z+1
 6320 24dc 8281      		ldd r24,Z+2
 6321 24de 9381      		ldd r25,Z+3
 6322 24e0 D801      		movw r26,r16
 6323 24e2 2D91      		ld r18,X+
 6324 24e4 3D91      		ld r19,X+
 6325 24e6 4D91      		ld r20,X+
 6326 24e8 5C91      		ld r21,X
 6327 24ea 0E94 0000 		call __subsf3
 6328 24ee F701      		movw r30,r14
 6329 24f0 6083      		st Z,r22
 6330 24f2 7183      		std Z+1,r23
 6331 24f4 8283      		std Z+2,r24
 6332 24f6 9383      		std Z+3,r25
 6333 24f8 0C94 0000 		jmp .L209
 6334               	.L283:
 6335               	.LM527:
 6336 24fc F601      		movw r30,r12
 6337 24fe 8081      		ld r24,Z
 6338 2500 9181      		ldd r25,Z+1
 6339 2502 A281      		ldd r26,Z+2
 6340 2504 B381      		ldd r27,Z+3
 6341 2506 F801      		movw r30,r16
 6342 2508 2081      		ld r18,Z
 6343 250a 3181      		ldd r19,Z+1
 6344 250c 4281      		ldd r20,Z+2
 6345 250e 5381      		ldd r21,Z+3
 6346 2510 821B      		sub r24,r18
 6347 2512 930B      		sbc r25,r19
 6348 2514 A40B      		sbc r26,r20
 6349 2516 B50B      		sbc r27,r21
 6350 2518 F701      		movw r30,r14
 6351 251a 8083      		st Z,r24
 6352 251c 9183      		std Z+1,r25
 6353 251e A283      		std Z+2,r26
 6354 2520 B383      		std Z+3,r27
 6355 2522 0C94 0000 		jmp .L209
 6356               	.L284:
 6357               	.LM528:
 6358 2526 D601      		movw r26,r12
 6359 2528 6D91      		ld r22,X+
 6360 252a 7D91      		ld r23,X+
 6361 252c 8D91      		ld r24,X+
 6362 252e 9C91      		ld r25,X
 6363 2530 F801      		movw r30,r16
 6364 2532 2081      		ld r18,Z
 6365 2534 3181      		ldd r19,Z+1
 6366 2536 4281      		ldd r20,Z+2
 6367 2538 5381      		ldd r21,Z+3
 6368 253a 0E94 0000 		call __mulsf3
 6369 253e D701      		movw r26,r14
 6370 2540 6D93      		st X+,r22
 6371 2542 7D93      		st X+,r23
 6372 2544 8D93      		st X+,r24
 6373 2546 9C93      		st X,r25
 6374 2548 1397      		sbiw r26,3
 6375 254a 0C94 0000 		jmp .L209
 6376               	.L285:
 6377               	.LM529:
 6378 254e D801      		movw r26,r16
 6379 2550 6D91      		ld r22,X+
 6380 2552 7D91      		ld r23,X+
 6381 2554 8D91      		ld r24,X+
 6382 2556 9C91      		ld r25,X
 6383 2558 F601      		movw r30,r12
 6384 255a 2081      		ld r18,Z
 6385 255c 3181      		ldd r19,Z+1
 6386 255e 4281      		ldd r20,Z+2
 6387 2560 5381      		ldd r21,Z+3
 6388 2562 0E94 0000 		call __mulsi3
 6389 2566 D701      		movw r26,r14
 6390 2568 6D93      		st X+,r22
 6391 256a 7D93      		st X+,r23
 6392 256c 8D93      		st X+,r24
 6393 256e 9C93      		st X,r25
 6394 2570 1397      		sbiw r26,3
 6395 2572 0C94 0000 		jmp .L209
 6396               	.L286:
 6397               	.LM530:
 6398 2576 F601      		movw r30,r12
 6399 2578 6081      		ld r22,Z
 6400 257a 7181      		ldd r23,Z+1
 6401 257c 8281      		ldd r24,Z+2
 6402 257e 9381      		ldd r25,Z+3
 6403 2580 D801      		movw r26,r16
 6404 2582 2D91      		ld r18,X+
 6405 2584 3D91      		ld r19,X+
 6406 2586 4D91      		ld r20,X+
 6407 2588 5C91      		ld r21,X
 6408 258a 0E94 0000 		call __divsf3
 6409 258e F701      		movw r30,r14
 6410 2590 6083      		st Z,r22
 6411 2592 7183      		std Z+1,r23
 6412 2594 8283      		std Z+2,r24
 6413 2596 9383      		std Z+3,r25
 6414 2598 0C94 0000 		jmp .L209
 6415               	.L287:
 6416               	.LM531:
 6417 259c F601      		movw r30,r12
 6418 259e 6081      		ld r22,Z
 6419 25a0 7181      		ldd r23,Z+1
 6420 25a2 8281      		ldd r24,Z+2
 6421 25a4 9381      		ldd r25,Z+3
 6422 25a6 D801      		movw r26,r16
 6423 25a8 2D91      		ld r18,X+
 6424 25aa 3D91      		ld r19,X+
 6425 25ac 4D91      		ld r20,X+
 6426 25ae 5C91      		ld r21,X
 6427 25b0 0E94 0000 		call __divmodsi4
 6428 25b4 F701      		movw r30,r14
 6429 25b6 2083      		st Z,r18
 6430 25b8 3183      		std Z+1,r19
 6431 25ba 4283      		std Z+2,r20
 6432 25bc 5383      		std Z+3,r21
 6433 25be 0C94 0000 		jmp .L209
 6434               	.L288:
 6435               	.LM532:
 6436 25c2 D701      		movw r26,r14
 6437 25c4 1D92      		st X+,__zero_reg__
 6438 25c6 1D92      		st X+,__zero_reg__
 6439 25c8 1D92      		st X+,__zero_reg__
 6440 25ca 1C92      		st X,__zero_reg__
 6441 25cc 1397      		sbiw r26,3
 6442 25ce F601      		movw r30,r12
 6443 25d0 2081      		ld r18,Z
 6444 25d2 3181      		ldd r19,Z+1
 6445 25d4 D801      		movw r26,r16
 6446 25d6 8D91      		ld r24,X+
 6447 25d8 9C91      		ld r25,X
 6448 25da 2817      		cp r18,r24
 6449 25dc 3907      		cpc r19,r25
 6450 25de 01F0      		breq .+2
 6451 25e0 00C0      		rjmp .L379
 6452 25e2 0C94 0000 		jmp .L209
 6453               	.LVL394:
 6454               	.L347:
 6455               	.LBE466:
 6456               	.LBB467:
 6457               	.LBB316:
 6458               	.LBB314:
 6459               	.LBB312:
 6460               	.LM533:
 6461 25e6 80E0      		ldi r24,lo8(.LC19)
 6462 25e8 90E0      		ldi r25,hi8(.LC19)
 6463               	.LVL395:
 6464 25ea 69EF      		ldi r22,lo8(505)
 6465 25ec 71E0      		ldi r23,hi8(505)
 6466 25ee 40E0      		ldi r20,lo8(.LC20)
 6467 25f0 50E0      		ldi r21,hi8(.LC20)
 6468 25f2 0E94 0000 		call __myassert
 6469               	.LVL396:
 6470               	.LM534:
 6471 25f6 80E0      		ldi r24,lo8(.LC19)
 6472 25f8 90E0      		ldi r25,hi8(.LC19)
 6473 25fa 6CEF      		ldi r22,lo8(508)
 6474 25fc 71E0      		ldi r23,hi8(508)
 6475 25fe 40E0      		ldi r20,lo8(.LC20)
 6476 2600 50E0      		ldi r21,hi8(.LC20)
 6477 2602 0E94 0000 		call __myassert
 6478 2606 B801      		movw r22,r16
 6479 2608 20E0      		ldi r18,lo8(0)
 6480 260a 30E0      		ldi r19,hi8(0)
 6481 260c 40E0      		ldi r20,hlo8(0)
 6482 260e 50E0      		ldi r21,hhi8(0)
 6483 2610 00C0      		rjmp .L341
 6484               	.LVL397:
 6485               	.L428:
 6486               	.LBE312:
 6487               	.LBE314:
 6488               	.LBE316:
 6489               	.LBE467:
 6490               	.LBB468:
 6491               	.LBB422:
 6492               	.LBB419:
 6493               	.LM535:
 6494 2612 80E0      		ldi r24,lo8(.LC19)
 6495 2614 90E0      		ldi r25,hi8(.LC19)
 6496 2616 6AEB      		ldi r22,lo8(442)
 6497 2618 71E0      		ldi r23,hi8(442)
 6498               	.LVL398:
 6499 261a 40E0      		ldi r20,lo8(.LC20)
 6500 261c 50E0      		ldi r21,hi8(.LC20)
 6501               	.LVL399:
 6502 261e 0E94 0000 		call __myassert
 6503 2622 00C0      		rjmp .L324
 6504               	.LVL400:
 6505               	.L427:
 6506               	.LM536:
 6507 2624 80E0      		ldi r24,lo8(.LC19)
 6508 2626 90E0      		ldi r25,hi8(.LC19)
 6509 2628 68EB      		ldi r22,lo8(440)
 6510 262a 71E0      		ldi r23,hi8(440)
 6511               	.LVL401:
 6512 262c 40E0      		ldi r20,lo8(.LC20)
 6513 262e 50E0      		ldi r21,hi8(.LC20)
 6514               	.LVL402:
 6515 2630 0E94 0000 		call __myassert
 6516 2634 00C0      		rjmp .L324
 6517               	.LVL403:
 6518               	.L319:
 6519               	.LBE419:
 6520               	.LBE422:
 6521               	.LBB423:
 6522               	.LBB411:
 6523               	.LM537:
 6524 2636 80E0      		ldi r24,lo8(.LC19)
 6525 2638 90E0      		ldi r25,hi8(.LC19)
 6526 263a 69EF      		ldi r22,lo8(505)
 6527 263c 71E0      		ldi r23,hi8(505)
 6528 263e 40E0      		ldi r20,lo8(.LC20)
 6529 2640 50E0      		ldi r21,hi8(.LC20)
 6530 2642 0E94 0000 		call __myassert
 6531               	.LM538:
 6532 2646 80E0      		ldi r24,lo8(.LC19)
 6533 2648 90E0      		ldi r25,hi8(.LC19)
 6534 264a 6CEF      		ldi r22,lo8(508)
 6535 264c 71E0      		ldi r23,hi8(508)
 6536 264e 40E0      		ldi r20,lo8(.LC20)
 6537 2650 50E0      		ldi r21,hi8(.LC20)
 6538 2652 0E94 0000 		call __myassert
 6539 2656 B701      		movw r22,r14
 6540 2658 00E0      		ldi r16,lo8(0)
 6541 265a 10E0      		ldi r17,hi8(0)
 6542               	.LVL404:
 6543 265c D601      		movw r26,r12
 6544 265e 3C91      		ld r19,X
 6545 2660 00C0      		rjmp .L313
 6546               	.LVL405:
 6547               	.L337:
 6548               	.LBE411:
 6549               	.LBE423:
 6550               	.LBE468:
 6551               	.LBB469:
 6552               	.LBB440:
 6553               	.LBB437:
 6554               	.LM539:
 6555 2662 80E0      		ldi r24,lo8(.LC19)
 6556 2664 90E0      		ldi r25,hi8(.LC19)
 6557 2666 69EF      		ldi r22,lo8(505)
 6558 2668 71E0      		ldi r23,hi8(505)
 6559 266a 40E0      		ldi r20,lo8(.LC20)
 6560 266c 50E0      		ldi r21,hi8(.LC20)
 6561 266e 0E94 0000 		call __myassert
 6562               	.LVL406:
 6563               	.LM540:
 6564 2672 80E0      		ldi r24,lo8(.LC19)
 6565 2674 90E0      		ldi r25,hi8(.LC19)
 6566 2676 6CEF      		ldi r22,lo8(508)
 6567 2678 71E0      		ldi r23,hi8(508)
 6568 267a 40E0      		ldi r20,lo8(.LC20)
 6569 267c 50E0      		ldi r21,hi8(.LC20)
 6570 267e 0E94 0000 		call __myassert
 6571 2682 AD85      		ldd r26,Y+13
 6572 2684 BE85      		ldd r27,Y+14
 6573 2686 8C91      		ld r24,X
 6574 2688 482F      		mov r20,r24
 6575 268a 50E0      		ldi r21,lo8(0)
 6576 268c 00E0      		ldi r16,lo8(0)
 6577 268e 10E0      		ldi r17,hi8(0)
 6578               	.LVL407:
 6579 2690 6091 0000 		lds r22,arguments
 6580 2694 7091 0000 		lds r23,(arguments)+1
 6581 2698 F701      		movw r30,r14
 6582 269a 9081      		ld r25,Z
 6583 269c 00C0      		rjmp .L331
 6584               	.LVL408:
 6585               	.L265:
 6586               	.LBE437:
 6587               	.LBE440:
 6588               	.LBE469:
 6589               	.LBB470:
 6590               	.LBB392:
 6591               	.LBB387:
 6592               	.LM541:
 6593 269e 80E0      		ldi r24,lo8(.LC19)
 6594 26a0 90E0      		ldi r25,hi8(.LC19)
 6595 26a2 69EF      		ldi r22,lo8(505)
 6596 26a4 71E0      		ldi r23,hi8(505)
 6597 26a6 40E0      		ldi r20,lo8(.LC20)
 6598 26a8 50E0      		ldi r21,hi8(.LC20)
 6599               	.LVL409:
 6600 26aa 0E94 0000 		call __myassert
 6601               	.LM542:
 6602 26ae 80E0      		ldi r24,lo8(.LC19)
 6603 26b0 90E0      		ldi r25,hi8(.LC19)
 6604 26b2 6CEF      		ldi r22,lo8(508)
 6605 26b4 71E0      		ldi r23,hi8(508)
 6606 26b6 40E0      		ldi r20,lo8(.LC20)
 6607 26b8 50E0      		ldi r21,hi8(.LC20)
 6608 26ba 0E94 0000 		call __myassert
 6609 26be D801      		movw r26,r16
 6610 26c0 6C91      		ld r22,X
 6611 26c2 00E0      		ldi r16,lo8(0)
 6612 26c4 10E0      		ldi r17,hi8(0)
 6613 26c6 4989      		ldd r20,Y+17
 6614 26c8 5A89      		ldd r21,Y+18
 6615 26ca 00C0      		rjmp .L259
 6616               	.LVL410:
 6617               	.L257:
 6618               	.LBE387:
 6619               	.LBE392:
 6620               	.LBB393:
 6621               	.LBB377:
 6622               	.LM543:
 6623 26cc 80E0      		ldi r24,lo8(.LC19)
 6624 26ce 90E0      		ldi r25,hi8(.LC19)
 6625 26d0 69EF      		ldi r22,lo8(505)
 6626 26d2 71E0      		ldi r23,hi8(505)
 6627 26d4 40E0      		ldi r20,lo8(.LC20)
 6628 26d6 50E0      		ldi r21,hi8(.LC20)
 6629 26d8 0E94 0000 		call __myassert
 6630               	.LM544:
 6631 26dc 80E0      		ldi r24,lo8(.LC19)
 6632 26de 90E0      		ldi r25,hi8(.LC19)
 6633 26e0 6CEF      		ldi r22,lo8(508)
 6634 26e2 71E0      		ldi r23,hi8(508)
 6635 26e4 40E0      		ldi r20,lo8(.LC20)
 6636 26e6 50E0      		ldi r21,hi8(.LC20)
 6637 26e8 0E94 0000 		call __myassert
 6638 26ec 7801      		movw r14,r16
 6639               	.LVL411:
 6640 26ee CC24      		clr r12
 6641 26f0 DD24      		clr r13
 6642               	.LVL412:
 6643 26f2 00C0      		rjmp .L251
 6644               	.LVL413:
 6645               	.L246:
 6646               	.LBE377:
 6647               	.LBE393:
 6648               	.LBE470:
 6649               	.LBB471:
 6650               	.LBB361:
 6651               	.LBB357:
 6652               	.LM545:
 6653 26f4 80E0      		ldi r24,lo8(.LC19)
 6654 26f6 90E0      		ldi r25,hi8(.LC19)
 6655 26f8 69EF      		ldi r22,lo8(505)
 6656 26fa 71E0      		ldi r23,hi8(505)
 6657 26fc 40E0      		ldi r20,lo8(.LC20)
 6658 26fe 50E0      		ldi r21,hi8(.LC20)
 6659 2700 0E94 0000 		call __myassert
 6660               	.LVL414:
 6661               	.LM546:
 6662 2704 80E0      		ldi r24,lo8(.LC19)
 6663 2706 90E0      		ldi r25,hi8(.LC19)
 6664 2708 6CEF      		ldi r22,lo8(508)
 6665 270a 71E0      		ldi r23,hi8(508)
 6666 270c 40E0      		ldi r20,lo8(.LC20)
 6667 270e 50E0      		ldi r21,hi8(.LC20)
 6668 2710 0E94 0000 		call __myassert
 6669 2714 E0E0      		ldi r30,lo8(0)
 6670 2716 F0E0      		ldi r31,hi8(0)
 6671 2718 00C0      		rjmp .L240
 6672               	.LBE357:
 6673               	.LBE361:
 6674               	.LBE471:
 6675               	.LFE45:
 6677               		.data
 6678               	.LC31:
 6679 018a 6C69 7374 		.string	"lists differ in size for accumulator AGG_SUM_LIST_INT: %d vs %d\n"
 6679      7320 6469 
 6679      6666 6572 
 6679      2069 6E20 
 6679      7369 7A65 
 6680               	.LC32:
 6681 01cb 6C69      		.ascii	"li"
 6682 01cd 7374 7320 		.string	"sts differ in size for accumulator AGG_SUM_LIST_FLOAT: %d vs %d\n"
 6682      6469 6666 
 6682      6572 2069 
 6682      6E20 7369 
 6682      7A65 2066 
 6683               		.text
 6685               	aggregate_recalc:
 6686               	.LFB40:
 6687               	.LM547:
 6688               	.LVL415:
 6689 271a 2F92      		push r2
 6690 271c 3F92      		push r3
 6691 271e 4F92      		push r4
 6692 2720 5F92      		push r5
 6693 2722 6F92      		push r6
 6694 2724 7F92      		push r7
 6695 2726 8F92      		push r8
 6696 2728 9F92      		push r9
 6697 272a AF92      		push r10
 6698 272c BF92      		push r11
 6699 272e CF92      		push r12
 6700 2730 DF92      		push r13
 6701 2732 EF92      		push r14
 6702 2734 FF92      		push r15
 6703 2736 0F93      		push r16
 6704 2738 1F93      		push r17
 6705 273a DF93      		push r29
 6706 273c CF93      		push r28
 6707 273e CDB7      		in r28,__SP_L__
 6708 2740 DEB7      		in r29,__SP_H__
 6709 2742 6897      		sbiw r28,24
 6710 2744 CDBF      		out __SP_L__,r28
 6711 2746 DEBF      		out __SP_H__,r29
 6712               	/* prologue: function */
 6713               	/* frame size = 24 */
 6714 2748 8F87      		std Y+15,r24
 6715 274a 988B      		std Y+16,r25
 6716 274c 698B      		std Y+17,r22
 6717 274e 7A8B      		std Y+18,r23
 6718 2750 4B8B      		std Y+19,r20
 6719               	.LM548:
 6720 2752 FC01      		movw r30,r24
 6721 2754 A481      		ldd r26,Z+4
 6722 2756 B581      		ldd r27,Z+5
 6723 2758 4C91      		ld r20,X
 6724               	.LVL416:
 6725 275a 50E0      		ldi r21,lo8(0)
 6726               	.LVL417:
 6727               	.LM549:
 6728 275c 9A01      		movw r18,r20
 6729               	.LVL418:
 6730 275e 2050      		subi r18,lo8(-(meld_prog+1))
 6731 2760 3040      		sbci r19,hi8(-(meld_prog+1))
 6732 2762 2D8B      		std Y+21,r18
 6733 2764 3E8B      		std Y+22,r19
 6734 2766 D901      		movw r26,r18
 6735 2768 EC91      		ld r30,X
 6736 276a F0E0      		ldi r31,lo8(0)
 6737 276c E050      		subi r30,lo8(-(meld_prog))
 6738 276e F040      		sbci r31,hi8(-(meld_prog))
 6739 2770 9381      		ldd r25,Z+3
 6740 2772 892F      		mov r24,r25
 6741               	.LVL419:
 6742 2774 8295      		swap r24
 6743 2776 8F70      		andi r24,0x0f
 6744 2778 A82E      		mov r10,r24
 6745               	.LVL420:
 6746 277a BB24      		clr r11
 6747               	.LVL421:
 6748               	.LM550:
 6749 277c E92F      		mov r30,r25
 6750 277e F0E0      		ldi r31,lo8(0)
 6751 2780 EF70      		andi r30,lo8(15)
 6752 2782 F070      		andi r31,hi8(15)
 6753 2784 E987      		std Y+9,r30
 6754 2786 FA87      		std Y+10,r31
 6755               	.LVL422:
 6756               	.LM551:
 6757 2788 EF85      		ldd r30,Y+15
 6758 278a F889      		ldd r31,Y+16
 6759 278c A281      		ldd r26,Z+2
 6760 278e B381      		ldd r27,Z+3
 6761 2790 2D91      		ld r18,X+
 6762 2792 3C91      		ld r19,X
 6763 2794 2F83      		std Y+7,r18
 6764 2796 3887      		std Y+8,r19
 6765               	.LVL423:
 6766               	.LM552:
 6767 2798 D901      		movw r26,r18
 6768 279a 1496      		adiw r26,4
 6769 279c 0D90      		ld __tmp_reg__,X+
 6770 279e BC91      		ld r27,X
 6771 27a0 A02D      		mov r26,__tmp_reg__
 6772 27a2 AD83      		std Y+5,r26
 6773 27a4 BE83      		std Y+6,r27
 6774               	.LVL424:
 6775               	.LM553:
 6776 27a6 2091 0000 		lds r18,arguments
 6777 27aa 3091 0000 		lds r19,(arguments)+1
 6778 27ae E985      		ldd r30,Y+9
 6779 27b0 FA85      		ldd r31,Y+10
 6780 27b2 EE0F      		lsl r30
 6781 27b4 FF1F      		rol r31
 6782 27b6 ED87      		std Y+13,r30
 6783 27b8 FE87      		std Y+14,r31
 6784 27ba EC91      		ld r30,X
 6785 27bc F0E0      		ldi r31,lo8(0)
 6786 27be EE0F      		lsl r30
 6787 27c0 FF1F      		rol r31
 6788               	.LVL425:
 6789 27c2 E20F      		add r30,r18
 6790 27c4 F31F      		adc r31,r19
 6791 27c6 8081      		ld r24,Z
 6792 27c8 AD85      		ldd r26,Y+13
 6793 27ca BE85      		ldd r27,Y+14
 6794 27cc A20F      		add r26,r18
 6795 27ce B31F      		adc r27,r19
 6796 27d0 FD01      		movw r30,r26
 6797 27d2 E80F      		add r30,r24
 6798 27d4 F11D      		adc r31,__zero_reg__
 6799 27d6 8181      		ldd r24,Z+1
 6800 27d8 E82E      		mov r14,r24
 6801               	.LVL426:
 6802 27da FF24      		clr r15
 6803               	.LVL427:
 6804 27dc 0894      		sec
 6805 27de E11C      		adc r14,__zero_reg__
 6806 27e0 F11C      		adc r15,__zero_reg__
 6807               	.LVL428:
 6808 27e2 8D81      		ldd r24,Y+5
 6809 27e4 9E81      		ldd r25,Y+6
 6810 27e6 E80E      		add r14,r24
 6811 27e8 F91E      		adc r15,r25
 6812               	.LM554:
 6813 27ea 1A01      		movw r2,r20
 6814 27ec 220C      		lsl r2
 6815 27ee 331C      		rol r3
 6816               	.LVL429:
 6817 27f0 220D      		add r18,r2
 6818 27f2 331D      		adc r19,r3
 6819 27f4 F901      		movw r30,r18
 6820 27f6 8081      		ld r24,Z
 6821 27f8 A80F      		add r26,r24
 6822 27fa B11D      		adc r27,__zero_reg__
 6823 27fc FC91      		ld r31,X
 6824 27fe FC8B      		std Y+20,r31
 6825               	.LM555:
 6826 2800 8F2F      		mov r24,r31
 6827 2802 90E0      		ldi r25,lo8(0)
 6828 2804 0E94 0000 		call malloc
 6829               	.LVL430:
 6830 2808 6C01      		movw r12,r24
 6831               	.LM556:
 6832 280a AF81      		ldd r26,Y+7
 6833 280c B885      		ldd r27,Y+8
 6834 280e 1296      		adiw r26,2
 6835 2810 8D90      		ld r8,X+
 6836 2812 9C90      		ld r9,X
 6837 2814 1397      		sbiw r26,2+1
 6838               	.LBB472:
 6839               	.LBB474:
 6840               	.LM557:
 6841 2816 B7E0      		ldi r27,lo8(7)
 6842 2818 AB16      		cp r10,r27
 6843 281a B104      		cpc r11,__zero_reg__
 6844 281c 04F0      		brlt .+2
 6845 281e 00C0      		rjmp .L440
 6846 2820 E5E0      		ldi r30,lo8(5)
 6847 2822 AE16      		cp r10,r30
 6848 2824 B104      		cpc r11,__zero_reg__
 6849 2826 04F4      		brge .+2
 6850 2828 00C0      		rjmp .L507
 6851               	.LM558:
 6852 282a F701      		movw r30,r14
 6853 282c 8081      		ld r24,Z
 6854 282e 9181      		ldd r25,Z+1
 6855 2830 A281      		ldd r26,Z+2
 6856 2832 B381      		ldd r27,Z+3
 6857 2834 F601      		movw r30,r12
 6858               	.LVL431:
 6859 2836 8083      		st Z,r24
 6860 2838 9183      		std Z+1,r25
 6861 283a A283      		std Z+2,r26
 6862 283c B383      		std Z+3,r27
 6863               	.LVL432:
 6864               	.L443:
 6865               	.LBE474:
 6866               	.LBE472:
 6867               	.LM559:
 6868 283e 4090 0000 		lds r4,arguments
 6869 2842 5090 0000 		lds r5,(arguments)+1
 6870               	.LVL433:
 6871 2846 A201      		movw r20,r4
 6872 2848 420D      		add r20,r2
 6873 284a 531D      		adc r21,r3
 6874 284c DA01      		movw r26,r20
 6875 284e 8C91      		ld r24,X
 6876 2850 ED85      		ldd r30,Y+13
 6877 2852 FE85      		ldd r31,Y+14
 6878 2854 E80F      		add r30,r24
 6879 2856 F11D      		adc r31,__zero_reg__
 6880 2858 E40D      		add r30,r4
 6881 285a F51D      		adc r31,r5
 6882 285c 8081      		ld r24,Z
 6883 285e 282F      		mov r18,r24
 6884 2860 30E0      		ldi r19,lo8(0)
 6885 2862 2F5F      		subi r18,lo8(-(1))
 6886 2864 3F4F      		sbci r19,hi8(-(1))
 6887 2866 8181      		ldd r24,Z+1
 6888 2868 280F      		add r18,r24
 6889 286a 311D      		adc r19,__zero_reg__
 6890 286c 2B83      		std Y+3,r18
 6891 286e 3C83      		std Y+4,r19
 6892               	.LVL434:
 6893               	.LM560:
 6894 2870 1196      		adiw r26,1
 6895 2872 8C91      		ld r24,X
 6896 2874 282E      		mov r2,r24
 6897               	.LVL435:
 6898 2876 3324      		clr r3
 6899               	.LVL436:
 6900 2878 221A      		sub r2,r18
 6901 287a 330A      		sbc r3,r19
 6902               	.LVL437:
 6903               	.LM561:
 6904 287c 01F4      		brne .+2
 6905 287e 00C0      		rjmp .L449
 6906 2880 8D81      		ldd r24,Y+5
 6907 2882 9E81      		ldd r25,Y+6
 6908 2884 8983      		std Y+1,r24
 6909 2886 9A83      		std Y+2,r25
 6910               	.LVL438:
 6911               	.L450:
 6912               	.LM562:
 6913 2888 AF81      		ldd r26,Y+7
 6914 288a B885      		ldd r27,Y+8
 6915 288c 0D90      		ld __tmp_reg__,X+
 6916 288e BC91      		ld r27,X
 6917 2890 A02D      		mov r26,__tmp_reg__
 6918 2892 AB87      		std Y+11,r26
 6919 2894 BC87      		std Y+12,r27
 6920               	.LVL439:
 6921 2896 AB2B      		or r26,r27
 6922 2898 01F4      		brne .+2
 6923 289a 00C0      		rjmp .L451
 6924               	.LVL440:
 6925               	.L497:
 6926               	.LM563:
 6927 289c EB85      		ldd r30,Y+11
 6928 289e FC85      		ldd r31,Y+12
 6929 28a0 8480      		ldd r8,Z+4
 6930 28a2 9580      		ldd r9,Z+5
 6931               	.LVL441:
 6932 28a4 D401      		movw r26,r8
 6933               	.LVL442:
 6934 28a6 EC91      		ld r30,X
 6935 28a8 F0E0      		ldi r31,lo8(0)
 6936 28aa EE0F      		lsl r30
 6937 28ac FF1F      		rol r31
 6938 28ae E40D      		add r30,r4
 6939 28b0 F51D      		adc r31,r5
 6940 28b2 8081      		ld r24,Z
 6941 28b4 ED85      		ldd r30,Y+13
 6942 28b6 FE85      		ldd r31,Y+14
 6943 28b8 E40D      		add r30,r4
 6944 28ba F51D      		adc r31,r5
 6945 28bc E80F      		add r30,r24
 6946 28be F11D      		adc r31,__zero_reg__
 6947 28c0 8181      		ldd r24,Z+1
 6948 28c2 682E      		mov r6,r24
 6949               	.LVL443:
 6950 28c4 7724      		clr r7
 6951 28c6 0894      		sec
 6952 28c8 611C      		adc r6,__zero_reg__
 6953 28ca 711C      		adc r7,__zero_reg__
 6954 28cc 680C      		add r6,r8
 6955 28ce 791C      		adc r7,r9
 6956 28d0 EB85      		ldd r30,Y+11
 6957 28d2 FC85      		ldd r31,Y+12
 6958 28d4 E280      		ldd r14,Z+2
 6959 28d6 F380      		ldd r15,Z+3
 6960               	.LVL444:
 6961               	.LBB494:
 6962               	.LBB497:
 6963               	.LM564:
 6964 28d8 F6E0      		ldi r31,lo8(6)
 6965 28da AF16      		cp r10,r31
 6966 28dc B104      		cpc r11,__zero_reg__
 6967 28de 01F4      		brne .+2
 6968 28e0 00C0      		rjmp .L458
 6969 28e2 27E0      		ldi r18,lo8(7)
 6970 28e4 A216      		cp r10,r18
 6971 28e6 B104      		cpc r11,__zero_reg__
 6972 28e8 04F0      		brlt .+2
 6973 28ea 00C0      		rjmp .L464
 6974 28ec 33E0      		ldi r19,lo8(3)
 6975 28ee A316      		cp r10,r19
 6976 28f0 B104      		cpc r11,__zero_reg__
 6977 28f2 01F4      		brne .+2
 6978 28f4 00C0      		rjmp .L455
 6979 28f6 84E0      		ldi r24,lo8(4)
 6980 28f8 A816      		cp r10,r24
 6981 28fa B104      		cpc r11,__zero_reg__
 6982 28fc 04F0      		brlt .+2
 6983 28fe 00C0      		rjmp .L465
 6984 2900 91E0      		ldi r25,lo8(1)
 6985 2902 A916      		cp r10,r25
 6986 2904 B104      		cpc r11,__zero_reg__
 6987 2906 01F0      		breq .L453
 6988 2908 A2E0      		ldi r26,lo8(2)
 6989 290a AA16      		cp r10,r26
 6990 290c B104      		cpc r11,__zero_reg__
 6991 290e 01F0      		breq .L508
 6992               	.L452:
 6993               	.LM565:
 6994 2910 80E0      		ldi r24,lo8(.LC19)
 6995 2912 90E0      		ldi r25,hi8(.LC19)
 6996 2914 67E6      		ldi r22,lo8(615)
 6997 2916 72E0      		ldi r23,hi8(615)
 6998               	.LVL445:
 6999 2918 40E0      		ldi r20,lo8(.LC20)
 7000 291a 50E0      		ldi r21,hi8(.LC20)
 7001 291c 0E94 0000 		call __myassert
 7002               	.L474:
 7003 2920 00C0      		rjmp .L474
 7004               	.LVL446:
 7005               	.L508:
 7006               	.LM566:
 7007 2922 F301      		movw r30,r6
 7008 2924 2081      		ld r18,Z
 7009 2926 3181      		ldd r19,Z+1
 7010 2928 4281      		ldd r20,Z+2
 7011 292a 5381      		ldd r21,Z+3
 7012 292c F601      		movw r30,r12
 7013 292e 8081      		ld r24,Z
 7014 2930 9181      		ldd r25,Z+1
 7015 2932 A281      		ldd r26,Z+2
 7016 2934 B381      		ldd r27,Z+3
 7017 2936 8217      		cp r24,r18
 7018 2938 9307      		cpc r25,r19
 7019 293a A407      		cpc r26,r20
 7020 293c B507      		cpc r27,r21
 7021 293e 04F4      		brge .L453
 7022               	.L505:
 7023               	.LM567:
 7024 2940 D601      		movw r26,r12
 7025 2942 2D93      		st X+,r18
 7026 2944 3D93      		st X+,r19
 7027 2946 4D93      		st X+,r20
 7028 2948 5C93      		st X,r21
 7029 294a 1397      		sbiw r26,3
 7030               	.L467:
 7031               	.LBE497:
 7032               	.LBE494:
 7033               	.LM568:
 7034 294c 8982      		std Y+1,r8
 7035 294e 9A82      		std Y+2,r9
 7036               	.LVL447:
 7037               	.L453:
 7038               	.LM569:
 7039 2950 EB85      		ldd r30,Y+11
 7040 2952 FC85      		ldd r31,Y+12
 7041 2954 0190      		ld __tmp_reg__,Z+
 7042 2956 F081      		ld r31,Z
 7043 2958 E02D      		mov r30,__tmp_reg__
 7044 295a EB87      		std Y+11,r30
 7045 295c FC87      		std Y+12,r31
 7046               	.LVL448:
 7047 295e EF2B      		or r30,r31
 7048 2960 01F0      		breq .+2
 7049 2962 00C0      		rjmp .L497
 7050               	.LVL449:
 7051               	.L451:
 7052               	.LM570:
 7053 2964 AF85      		ldd r26,Y+15
 7054 2966 B889      		ldd r27,Y+16
 7055               	.LVL450:
 7056 2968 1496      		adiw r26,4
 7057 296a 0D91      		ld r16,X+
 7058 296c 1C91      		ld r17,X
 7059 296e 1597      		sbiw r26,4+1
 7060               	.LVL451:
 7061 2970 D801      		movw r26,r16
 7062 2972 EC91      		ld r30,X
 7063 2974 F0E0      		ldi r31,lo8(0)
 7064 2976 EE0F      		lsl r30
 7065 2978 FF1F      		rol r31
 7066 297a E40D      		add r30,r4
 7067 297c F51D      		adc r31,r5
 7068 297e 8081      		ld r24,Z
 7069 2980 ED85      		ldd r30,Y+13
 7070 2982 FE85      		ldd r31,Y+14
 7071 2984 4E0E      		add r4,r30
 7072 2986 5F1E      		adc r5,r31
 7073 2988 480E      		add r4,r24
 7074 298a 511C      		adc r5,__zero_reg__
 7075 298c D201      		movw r26,r4
 7076 298e 1196      		adiw r26,1
 7077 2990 8C91      		ld r24,X
 7078 2992 882E      		mov r8,r24
 7079               	.LVL452:
 7080 2994 9924      		clr r9
 7081               	.LVL453:
 7082 2996 0894      		sec
 7083 2998 811C      		adc r8,__zero_reg__
 7084 299a 911C      		adc r9,__zero_reg__
 7085               	.LVL454:
 7086 299c 800E      		add r8,r16
 7087 299e 911E      		adc r9,r17
 7088               	.LM571:
 7089 29a0 BB89      		ldd r27,Y+19
 7090 29a2 BB23      		tst r27
 7091 29a4 01F0      		breq .+2
 7092 29a6 00C0      		rjmp .L509
 7093               	.LBB531:
 7094               	.LBB534:
 7095               	.LM572:
 7096 29a8 E8E0      		ldi r30,lo8(8)
 7097 29aa AE16      		cp r10,r30
 7098 29ac B104      		cpc r11,__zero_reg__
 7099 29ae 04F0      		brlt .+2
 7100 29b0 00C0      		rjmp .L484
 7101 29b2 F5E0      		ldi r31,lo8(5)
 7102 29b4 AF16      		cp r10,r31
 7103 29b6 B104      		cpc r11,__zero_reg__
 7104 29b8 04F0      		brlt .+2
 7105 29ba 00C0      		rjmp .L481
 7106 29bc 21E0      		ldi r18,lo8(1)
 7107 29be A216      		cp r10,r18
 7108 29c0 B104      		cpc r11,__zero_reg__
 7109 29c2 01F4      		brne .+2
 7110 29c4 00C0      		rjmp .L478
 7111 29c6 31E0      		ldi r19,lo8(1)
 7112 29c8 A316      		cp r10,r19
 7113 29ca B104      		cpc r11,__zero_reg__
 7114 29cc 04F4      		brge .+2
 7115 29ce 00C0      		rjmp .L479
 7116               	.LM573:
 7117 29d0 D401      		movw r26,r8
 7118 29d2 2D91      		ld r18,X+
 7119 29d4 3D91      		ld r19,X+
 7120 29d6 4D91      		ld r20,X+
 7121 29d8 5C91      		ld r21,X
 7122 29da F601      		movw r30,r12
 7123 29dc 8081      		ld r24,Z
 7124 29de 9181      		ldd r25,Z+1
 7125 29e0 A281      		ldd r26,Z+2
 7126 29e2 B381      		ldd r27,Z+3
 7127 29e4 2817      		cp r18,r24
 7128 29e6 3907      		cpc r19,r25
 7129 29e8 4A07      		cpc r20,r26
 7130 29ea 5B07      		cpc r21,r27
 7131 29ec 01F4      		brne .+2
 7132 29ee 00C0      		rjmp .L478
 7133               	.L493:
 7134               	.LBE534:
 7135               	.LBE531:
 7136               	.LM574:
 7137 29f0 AD89      		ldd r26,Y+21
 7138 29f2 BE89      		ldd r27,Y+22
 7139 29f4 8C91      		ld r24,X
 7140 29f6 E82E      		mov r14,r24
 7141               	.LVL455:
 7142 29f8 FF24      		clr r15
 7143               	.LVL456:
 7144 29fa E0E0      		ldi r30,lo8(meld_prog)
 7145 29fc F0E0      		ldi r31,hi8(meld_prog)
 7146 29fe EE0E      		add r14,r30
 7147 2a00 FF1E      		adc r15,r31
 7148 2a02 D701      		movw r26,r14
 7149 2a04 6D91      		ld r22,X+
 7150 2a06 7C91      		ld r23,X
 7151               	.LVL457:
 7152 2a08 6E0F      		add r22,r30
 7153 2a0a 7F1F      		adc r23,r31
 7154 2a0c C801      		movw r24,r16
 7155 2a0e 4FEF      		ldi r20,lo8(-1)
 7156 2a10 5FEF      		ldi r21,hi8(-1)
 7157 2a12 2989      		ldd r18,Y+17
 7158 2a14 3A89      		ldd r19,Y+18
 7159 2a16 0E94 0000 		call tuple_process
 7160               	.LM575:
 7161 2a1a EF85      		ldd r30,Y+15
 7162 2a1c F889      		ldd r31,Y+16
 7163 2a1e 8481      		ldd r24,Z+4
 7164 2a20 9581      		ldd r25,Z+5
 7165 2a22 6985      		ldd r22,Y+9
 7166 2a24 4A2D      		mov r20,r10
 7167 2a26 0E94 0000 		call aggregate_free
 7168               	.LM576:
 7169 2a2a C401      		movw r24,r8
 7170               	.LVL458:
 7171 2a2c B601      		movw r22,r12
 7172               	.LVL459:
 7173 2a2e 4C89      		ldd r20,Y+20
 7174 2a30 50E0      		ldi r21,lo8(0)
 7175 2a32 0E94 0000 		call memcpy
 7176               	.LM577:
 7177 2a36 2114      		cp r2,__zero_reg__
 7178 2a38 3104      		cpc r3,__zero_reg__
 7179 2a3a 01F0      		breq .L491
 7180               	.LVL460:
 7181               	.LM578:
 7182 2a3c AF85      		ldd r26,Y+15
 7183 2a3e B889      		ldd r27,Y+16
 7184 2a40 1496      		adiw r26,4
 7185 2a42 2D91      		ld r18,X+
 7186 2a44 3C91      		ld r19,X
 7187 2a46 1597      		sbiw r26,4+1
 7188 2a48 EB81      		ldd r30,Y+3
 7189 2a4a FC81      		ldd r31,Y+4
 7190 2a4c 2E0F      		add r18,r30
 7191 2a4e 3F1F      		adc r19,r31
 7192 2a50 4981      		ldd r20,Y+1
 7193 2a52 5A81      		ldd r21,Y+2
 7194 2a54 4E0F      		add r20,r30
 7195 2a56 5F1F      		adc r21,r31
 7196 2a58 C901      		movw r24,r18
 7197 2a5a BA01      		movw r22,r20
 7198 2a5c A101      		movw r20,r2
 7199               	.LVL461:
 7200 2a5e 0E94 0000 		call memcpy
 7201               	.LVL462:
 7202               	.L491:
 7203               	.LM579:
 7204 2a62 D701      		movw r26,r14
 7205 2a64 6D91      		ld r22,X+
 7206 2a66 7C91      		ld r23,X
 7207 2a68 6050      		subi r22,lo8(-(meld_prog))
 7208 2a6a 7040      		sbci r23,hi8(-(meld_prog))
 7209 2a6c EF85      		ldd r30,Y+15
 7210 2a6e F889      		ldd r31,Y+16
 7211 2a70 8481      		ldd r24,Z+4
 7212 2a72 9581      		ldd r25,Z+5
 7213 2a74 41E0      		ldi r20,lo8(1)
 7214 2a76 50E0      		ldi r21,hi8(1)
 7215 2a78 2989      		ldd r18,Y+17
 7216 2a7a 3A89      		ldd r19,Y+18
 7217 2a7c 0E94 0000 		call tuple_process
 7218               	.LVL463:
 7219               	.L478:
 7220               	.LM580:
 7221 2a80 C601      		movw r24,r12
 7222 2a82 0E94 0000 		call free
 7223               	.LVL464:
 7224               	/* epilogue start */
 7225               	.LM581:
 7226 2a86 6896      		adiw r28,24
 7227 2a88 CDBF      		out __SP_L__,r28
 7228 2a8a DEBF      		out __SP_H__,r29
 7229 2a8c CF91      		pop r28
 7230 2a8e DF91      		pop r29
 7231 2a90 1F91      		pop r17
 7232 2a92 0F91      		pop r16
 7233               	.LVL465:
 7234 2a94 FF90      		pop r15
 7235               	.LVL466:
 7236 2a96 EF90      		pop r14
 7237               	.LVL467:
 7238 2a98 DF90      		pop r13
 7239 2a9a CF90      		pop r12
 7240               	.LVL468:
 7241 2a9c BF90      		pop r11
 7242               	.LVL469:
 7243 2a9e AF90      		pop r10
 7244               	.LVL470:
 7245 2aa0 9F90      		pop r9
 7246               	.LVL471:
 7247 2aa2 8F90      		pop r8
 7248               	.LVL472:
 7249 2aa4 7F90      		pop r7
 7250 2aa6 6F90      		pop r6
 7251               	.LVL473:
 7252 2aa8 5F90      		pop r5
 7253 2aaa 4F90      		pop r4
 7254 2aac 3F90      		pop r3
 7255               	.LVL474:
 7256 2aae 2F90      		pop r2
 7257               	.LVL475:
 7258 2ab0 0895      		ret
 7259               	.LVL476:
 7260               	.L464:
 7261               	.LBB542:
 7262               	.LBB496:
 7263               	.LM582:
 7264 2ab2 F9E0      		ldi r31,lo8(9)
 7265 2ab4 AF16      		cp r10,r31
 7266 2ab6 B104      		cpc r11,__zero_reg__
 7267 2ab8 01F4      		brne .+2
 7268 2aba 00C0      		rjmp .L461
 7269 2abc 2AE0      		ldi r18,lo8(10)
 7270 2abe A216      		cp r10,r18
 7271 2ac0 B104      		cpc r11,__zero_reg__
 7272 2ac2 04F4      		brge .L466
 7273 2ac4 37E0      		ldi r19,lo8(7)
 7274 2ac6 A316      		cp r10,r19
 7275 2ac8 B104      		cpc r11,__zero_reg__
 7276 2aca 01F4      		brne .+2
 7277 2acc 00C0      		rjmp .L459
 7278 2ace 88E0      		ldi r24,lo8(8)
 7279 2ad0 A816      		cp r10,r24
 7280 2ad2 B104      		cpc r11,__zero_reg__
 7281 2ad4 01F0      		breq .+2
 7282 2ad6 00C0      		rjmp .L452
 7283               	.LBB527:
 7284               	.LM583:
 7285 2ad8 F601      		movw r30,r12
 7286 2ada 0081      		ld r16,Z
 7287 2adc 1181      		ldd r17,Z+1
 7288               	.LVL477:
 7289               	.LM584:
 7290 2ade D301      		movw r26,r6
 7291 2ae0 6D91      		ld r22,X+
 7292 2ae2 7C91      		ld r23,X
 7293               	.LVL478:
 7294 2ae4 C801      		movw r24,r16
 7295 2ae6 0E94 0000 		call set_int_insert
 7296               	.LM585:
 7297 2aea C801      		movw r24,r16
 7298 2aec 0E94 0000 		call set_print
 7299 2af0 4090 0000 		lds r4,arguments
 7300 2af4 5090 0000 		lds r5,(arguments)+1
 7301 2af8 00C0      		rjmp .L453
 7302               	.LVL479:
 7303               	.L465:
 7304               	.LBE527:
 7305               	.LM586:
 7306 2afa B4E0      		ldi r27,lo8(4)
 7307 2afc AB16      		cp r10,r27
 7308 2afe B104      		cpc r11,__zero_reg__
 7309 2b00 01F4      		brne .+2
 7310 2b02 00C0      		rjmp .L456
 7311 2b04 E5E0      		ldi r30,lo8(5)
 7312 2b06 AE16      		cp r10,r30
 7313 2b08 B104      		cpc r11,__zero_reg__
 7314 2b0a 01F0      		breq .+2
 7315 2b0c 00C0      		rjmp .L452
 7316               	.LM587:
 7317 2b0e D301      		movw r26,r6
 7318 2b10 ED90      		ld r14,X+
 7319 2b12 FD90      		ld r15,X+
 7320 2b14 0D91      		ld r16,X+
 7321 2b16 1C91      		ld r17,X
 7322 2b18 C801      		movw r24,r16
 7323 2b1a B701      		movw r22,r14
 7324               	.LVL480:
 7325 2b1c F601      		movw r30,r12
 7326 2b1e 2081      		ld r18,Z
 7327 2b20 3181      		ldd r19,Z+1
 7328 2b22 4281      		ldd r20,Z+2
 7329 2b24 5381      		ldd r21,Z+3
 7330 2b26 0E94 0000 		call __gtsf2
 7331 2b2a 1816      		cp __zero_reg__,r24
 7332 2b2c 04F0      		brlt .+2
 7333 2b2e 00C0      		rjmp .L453
 7334               	.LM588:
 7335 2b30 D601      		movw r26,r12
 7336 2b32 ED92      		st X+,r14
 7337 2b34 FD92      		st X+,r15
 7338 2b36 0D93      		st X+,r16
 7339 2b38 1C93      		st X,r17
 7340 2b3a 1397      		sbiw r26,3
 7341 2b3c 00C0      		rjmp .L467
 7342               	.LVL481:
 7343               	.L466:
 7344               	.LM589:
 7345 2b3e 9AE0      		ldi r25,lo8(10)
 7346 2b40 A916      		cp r10,r25
 7347 2b42 B104      		cpc r11,__zero_reg__
 7348 2b44 01F4      		brne .+2
 7349 2b46 00C0      		rjmp .L462
 7350 2b48 ABE0      		ldi r26,lo8(11)
 7351 2b4a AA16      		cp r10,r26
 7352 2b4c B104      		cpc r11,__zero_reg__
 7353 2b4e 01F0      		breq .+2
 7354 2b50 00C0      		rjmp .L452
 7355               	.LBB514:
 7356               	.LM590:
 7357 2b52 D601      		movw r26,r12
 7358 2b54 6D91      		ld r22,X+
 7359 2b56 7C91      		ld r23,X
 7360               	.LVL482:
 7361               	.LM591:
 7362 2b58 F301      		movw r30,r6
 7363 2b5a A081      		ld r26,Z
 7364 2b5c B181      		ldd r27,Z+1
 7365               	.LVL483:
 7366               	.LBB515:
 7367               	.LBB516:
 7368               	.LM592:
 7369 2b5e FB01      		movw r30,r22
 7370 2b60 2481      		ldd r18,Z+4
 7371 2b62 3581      		ldd r19,Z+5
 7372               	.LBE516:
 7373               	.LBE515:
 7374               	.LBB517:
 7375               	.LBB518:
 7376 2b64 1496      		adiw r26,4
 7377 2b66 4D91      		ld r20,X+
 7378 2b68 5C91      		ld r21,X
 7379 2b6a 1597      		sbiw r26,4+1
 7380               	.LBE518:
 7381               	.LBE517:
 7382               	.LM593:
 7383 2b6c 2417      		cp r18,r20
 7384 2b6e 3507      		cpc r19,r21
 7385 2b70 01F0      		breq .+2
 7386 2b72 00C0      		rjmp .L510
 7387               	.LBB519:
 7388               	.LBB520:
 7389               	.LM594:
 7390 2b74 FB01      		movw r30,r22
 7391 2b76 0190      		ld __tmp_reg__,Z+
 7392 2b78 F081      		ld r31,Z
 7393 2b7a E02D      		mov r30,__tmp_reg__
 7394 2b7c EF8B      		std Y+23,r30
 7395 2b7e F88F      		std Y+24,r31
 7396               	.LVL484:
 7397               	.LBE520:
 7398               	.LBE519:
 7399               	.LBB521:
 7400               	.LBB522:
 7401 2b80 0D91      		ld r16,X+
 7402 2b82 1C91      		ld r17,X
 7403               	.LVL485:
 7404               	.LBE522:
 7405               	.LBE521:
 7406               	.LM595:
 7407 2b84 EF2B      		or r30,r31
 7408 2b86 01F4      		brne .+2
 7409 2b88 00C0      		rjmp .L453
 7410 2b8a B701      		movw r22,r14
 7411 2b8c 8827      		clr r24
 7412 2b8e 77FD      		sbrc r23,7
 7413 2b90 8095      		com r24
 7414 2b92 982F      		mov r25,r24
 7415               	.LVL486:
 7416 2b94 0E94 0000 		call __floatsisf
 7417               	.LVL487:
 7418 2b98 3B01      		movw r6,r22
 7419 2b9a 4C01      		movw r8,r24
 7420               	.L473:
 7421               	.LM596:
 7422 2b9c C401      		movw r24,r8
 7423 2b9e B301      		movw r22,r6
 7424 2ba0 D801      		movw r26,r16
 7425 2ba2 1296      		adiw r26,2
 7426 2ba4 2D91      		ld r18,X+
 7427 2ba6 3D91      		ld r19,X+
 7428 2ba8 4D91      		ld r20,X+
 7429 2baa 5C91      		ld r21,X
 7430 2bac 1597      		sbiw r26,2+3
 7431 2bae 0E94 0000 		call __mulsf3
 7432 2bb2 9B01      		movw r18,r22
 7433 2bb4 AC01      		movw r20,r24
 7434 2bb6 EF89      		ldd r30,Y+23
 7435 2bb8 F88D      		ldd r31,Y+24
 7436 2bba 6281      		ldd r22,Z+2
 7437 2bbc 7381      		ldd r23,Z+3
 7438 2bbe 8481      		ldd r24,Z+4
 7439 2bc0 9581      		ldd r25,Z+5
 7440 2bc2 0E94 0000 		call __addsf3
 7441 2bc6 AF89      		ldd r26,Y+23
 7442 2bc8 B88D      		ldd r27,Y+24
 7443 2bca 1296      		adiw r26,2
 7444 2bcc 6D93      		st X+,r22
 7445 2bce 7D93      		st X+,r23
 7446 2bd0 8D93      		st X+,r24
 7447 2bd2 9C93      		st X,r25
 7448 2bd4 1597      		sbiw r26,2+3
 7449               	.LBB523:
 7450               	.LBB524:
 7451               	.LM597:
 7452 2bd6 ED91      		ld r30,X+
 7453 2bd8 FC91      		ld r31,X
 7454 2bda EF8B      		std Y+23,r30
 7455 2bdc F88F      		std Y+24,r31
 7456               	.LVL488:
 7457               	.LBE524:
 7458               	.LBE523:
 7459               	.LBB525:
 7460               	.LBB526:
 7461 2bde D801      		movw r26,r16
 7462 2be0 0D91      		ld r16,X+
 7463 2be2 1C91      		ld r17,X
 7464               	.LBE526:
 7465               	.LBE525:
 7466               	.LM598:
 7467 2be4 EF2B      		or r30,r31
 7468 2be6 01F4      		brne .L473
 7469 2be8 00C0      		rjmp .L453
 7470               	.LVL489:
 7471               	.L458:
 7472               	.LBE514:
 7473               	.LM599:
 7474 2bea F301      		movw r30,r6
 7475 2bec E080      		ld r14,Z
 7476 2bee F180      		ldd r15,Z+1
 7477 2bf0 0281      		ldd r16,Z+2
 7478 2bf2 1381      		ldd r17,Z+3
 7479 2bf4 C801      		movw r24,r16
 7480 2bf6 B701      		movw r22,r14
 7481               	.LVL490:
 7482 2bf8 D601      		movw r26,r12
 7483 2bfa 2D91      		ld r18,X+
 7484 2bfc 3D91      		ld r19,X+
 7485 2bfe 4D91      		ld r20,X+
 7486 2c00 5C91      		ld r21,X
 7487 2c02 0E94 0000 		call __ltsf2
 7488 2c06 8823      		tst r24
 7489 2c08 04F0      		brlt .+2
 7490 2c0a 00C0      		rjmp .L453
 7491               	.LM600:
 7492 2c0c F601      		movw r30,r12
 7493 2c0e E082      		st Z,r14
 7494 2c10 F182      		std Z+1,r15
 7495 2c12 0283      		std Z+2,r16
 7496 2c14 1383      		std Z+3,r17
 7497 2c16 00C0      		rjmp .L467
 7498               	.LVL491:
 7499               	.L455:
 7500               	.LM601:
 7501 2c18 F301      		movw r30,r6
 7502 2c1a 2081      		ld r18,Z
 7503 2c1c 3181      		ldd r19,Z+1
 7504 2c1e 4281      		ldd r20,Z+2
 7505 2c20 5381      		ldd r21,Z+3
 7506 2c22 F601      		movw r30,r12
 7507 2c24 8081      		ld r24,Z
 7508 2c26 9181      		ldd r25,Z+1
 7509 2c28 A281      		ldd r26,Z+2
 7510 2c2a B381      		ldd r27,Z+3
 7511 2c2c 2817      		cp r18,r24
 7512 2c2e 3907      		cpc r19,r25
 7513 2c30 4A07      		cpc r20,r26
 7514 2c32 5B07      		cpc r21,r27
 7515 2c34 04F0      		brlt .+2
 7516 2c36 00C0      		rjmp .L453
 7517 2c38 00C0      		rjmp .L505
 7518               	.L461:
 7519               	.LBB513:
 7520               	.LM602:
 7521 2c3a F601      		movw r30,r12
 7522 2c3c 0081      		ld r16,Z
 7523 2c3e 1181      		ldd r17,Z+1
 7524               	.LVL492:
 7525               	.LM603:
 7526 2c40 D301      		movw r26,r6
 7527 2c42 4D91      		ld r20,X+
 7528 2c44 5D91      		ld r21,X+
 7529 2c46 6D91      		ld r22,X+
 7530 2c48 7C91      		ld r23,X
 7531 2c4a C801      		movw r24,r16
 7532 2c4c 0E94 0000 		call set_float_insert
 7533               	.LVL493:
 7534               	.LM604:
 7535 2c50 C801      		movw r24,r16
 7536 2c52 0E94 0000 		call set_print
 7537 2c56 4090 0000 		lds r4,arguments
 7538 2c5a 5090 0000 		lds r5,(arguments)+1
 7539 2c5e 00C0      		rjmp .L453
 7540               	.LVL494:
 7541               	.L462:
 7542               	.LBE513:
 7543               	.LBB500:
 7544               	.LM605:
 7545 2c60 F601      		movw r30,r12
 7546 2c62 6081      		ld r22,Z
 7547 2c64 7181      		ldd r23,Z+1
 7548               	.LVL495:
 7549               	.LM606:
 7550 2c66 F301      		movw r30,r6
 7551 2c68 A081      		ld r26,Z
 7552 2c6a B181      		ldd r27,Z+1
 7553               	.LVL496:
 7554               	.LBB511:
 7555               	.LBB512:
 7556               	.LM607:
 7557 2c6c FB01      		movw r30,r22
 7558 2c6e 2481      		ldd r18,Z+4
 7559 2c70 3581      		ldd r19,Z+5
 7560               	.LBE512:
 7561               	.LBE511:
 7562               	.LBB509:
 7563               	.LBB510:
 7564 2c72 1496      		adiw r26,4
 7565 2c74 4D91      		ld r20,X+
 7566 2c76 5C91      		ld r21,X
 7567 2c78 1597      		sbiw r26,4+1
 7568               	.LBE510:
 7569               	.LBE509:
 7570               	.LM608:
 7571 2c7a 2417      		cp r18,r20
 7572 2c7c 3507      		cpc r19,r21
 7573 2c7e 01F0      		breq .+2
 7574 2c80 00C0      		rjmp .L511
 7575               	.LBB507:
 7576               	.LBB508:
 7577               	.LM609:
 7578 2c82 FB01      		movw r30,r22
 7579 2c84 0190      		ld __tmp_reg__,Z+
 7580 2c86 F081      		ld r31,Z
 7581 2c88 E02D      		mov r30,__tmp_reg__
 7582 2c8a EF8B      		std Y+23,r30
 7583 2c8c F88F      		std Y+24,r31
 7584               	.LVL497:
 7585               	.LBE508:
 7586               	.LBE507:
 7587               	.LBB505:
 7588               	.LBB506:
 7589 2c8e 0D91      		ld r16,X+
 7590 2c90 1C91      		ld r17,X
 7591               	.LVL498:
 7592               	.LBE506:
 7593               	.LBE505:
 7594               	.LM610:
 7595 2c92 EF2B      		or r30,r31
 7596 2c94 01F4      		brne .+2
 7597 2c96 00C0      		rjmp .L453
 7598 2c98 3701      		movw r6,r14
 7599 2c9a 8824      		clr r8
 7600 2c9c 77FC      		sbrc r7,7
 7601 2c9e 8094      		com r8
 7602 2ca0 982C      		mov r9,r8
 7603               	.L471:
 7604               	.LM611:
 7605 2ca2 D801      		movw r26,r16
 7606               	.LVL499:
 7607 2ca4 1296      		adiw r26,2
 7608 2ca6 2D91      		ld r18,X+
 7609 2ca8 3D91      		ld r19,X+
 7610 2caa 4D91      		ld r20,X+
 7611 2cac 5C91      		ld r21,X
 7612 2cae 1597      		sbiw r26,2+3
 7613 2cb0 C401      		movw r24,r8
 7614 2cb2 B301      		movw r22,r6
 7615               	.LVL500:
 7616 2cb4 0E94 0000 		call __mulsi3
 7617 2cb8 EF89      		ldd r30,Y+23
 7618 2cba F88D      		ldd r31,Y+24
 7619 2cbc 2281      		ldd r18,Z+2
 7620 2cbe 3381      		ldd r19,Z+3
 7621 2cc0 4481      		ldd r20,Z+4
 7622 2cc2 5581      		ldd r21,Z+5
 7623 2cc4 260F      		add r18,r22
 7624 2cc6 371F      		adc r19,r23
 7625 2cc8 481F      		adc r20,r24
 7626 2cca 591F      		adc r21,r25
 7627 2ccc DF01      		movw r26,r30
 7628 2cce 2283      		std Z+2,r18
 7629 2cd0 3383      		std Z+3,r19
 7630 2cd2 4483      		std Z+4,r20
 7631 2cd4 5583      		std Z+5,r21
 7632               	.LBB503:
 7633               	.LBB504:
 7634               	.LM612:
 7635 2cd6 F801      		movw r30,r16
 7636 2cd8 0081      		ld r16,Z
 7637 2cda 1181      		ldd r17,Z+1
 7638               	.LBE504:
 7639               	.LBE503:
 7640               	.LBB501:
 7641               	.LBB502:
 7642 2cdc 2D91      		ld r18,X+
 7643 2cde 3C91      		ld r19,X
 7644 2ce0 2F8B      		std Y+23,r18
 7645 2ce2 388F      		std Y+24,r19
 7646               	.LVL501:
 7647               	.LBE502:
 7648               	.LBE501:
 7649               	.LM613:
 7650 2ce4 232B      		or r18,r19
 7651 2ce6 01F4      		brne .L471
 7652 2ce8 00C0      		rjmp .L453
 7653               	.LVL502:
 7654               	.L449:
 7655               	.LBE500:
 7656               	.LBE496:
 7657               	.LBE542:
 7658               	.LM614:
 7659 2cea 1982      		std Y+1,__zero_reg__
 7660 2cec 1A82      		std Y+2,__zero_reg__
 7661               	.LVL503:
 7662 2cee 00C0      		rjmp .L450
 7663               	.LVL504:
 7664               	.L459:
 7665               	.LBB543:
 7666               	.LBB529:
 7667               	.LM615:
 7668 2cf0 B701      		movw r22,r14
 7669 2cf2 8827      		clr r24
 7670 2cf4 77FD      		sbrc r23,7
 7671 2cf6 8095      		com r24
 7672 2cf8 982F      		mov r25,r24
 7673               	.LVL505:
 7674 2cfa 0E94 0000 		call __floatsisf
 7675 2cfe D301      		movw r26,r6
 7676 2d00 2D91      		ld r18,X+
 7677 2d02 3D91      		ld r19,X+
 7678 2d04 4D91      		ld r20,X+
 7679 2d06 5C91      		ld r21,X
 7680 2d08 0E94 0000 		call __mulsf3
 7681 2d0c 9B01      		movw r18,r22
 7682 2d0e AC01      		movw r20,r24
 7683 2d10 F601      		movw r30,r12
 7684 2d12 6081      		ld r22,Z
 7685 2d14 7181      		ldd r23,Z+1
 7686 2d16 8281      		ldd r24,Z+2
 7687 2d18 9381      		ldd r25,Z+3
 7688 2d1a 0E94 0000 		call __addsf3
 7689 2d1e D601      		movw r26,r12
 7690 2d20 6D93      		st X+,r22
 7691 2d22 7D93      		st X+,r23
 7692 2d24 8D93      		st X+,r24
 7693 2d26 9C93      		st X,r25
 7694 2d28 1397      		sbiw r26,3
 7695 2d2a 00C0      		rjmp .L453
 7696               	.LVL506:
 7697               	.L456:
 7698               	.LM616:
 7699 2d2c B701      		movw r22,r14
 7700 2d2e 8827      		clr r24
 7701 2d30 77FD      		sbrc r23,7
 7702 2d32 8095      		com r24
 7703 2d34 982F      		mov r25,r24
 7704               	.LVL507:
 7705 2d36 F301      		movw r30,r6
 7706 2d38 2081      		ld r18,Z
 7707 2d3a 3181      		ldd r19,Z+1
 7708 2d3c 4281      		ldd r20,Z+2
 7709 2d3e 5381      		ldd r21,Z+3
 7710 2d40 0E94 0000 		call __mulsi3
 7711 2d44 D601      		movw r26,r12
 7712 2d46 2D91      		ld r18,X+
 7713 2d48 3D91      		ld r19,X+
 7714 2d4a 4D91      		ld r20,X+
 7715 2d4c 5C91      		ld r21,X
 7716 2d4e 260F      		add r18,r22
 7717 2d50 371F      		adc r19,r23
 7718 2d52 481F      		adc r20,r24
 7719 2d54 591F      		adc r21,r25
 7720 2d56 F601      		movw r30,r12
 7721 2d58 2083      		st Z,r18
 7722 2d5a 3183      		std Z+1,r19
 7723 2d5c 4283      		std Z+2,r20
 7724 2d5e 5383      		std Z+3,r21
 7725 2d60 00C0      		rjmp .L453
 7726               	.LVL508:
 7727               	.L507:
 7728               	.LBE529:
 7729               	.LBE543:
 7730               	.LBB544:
 7731               	.LBB489:
 7732               	.LM617:
 7733 2d62 F4E0      		ldi r31,lo8(4)
 7734 2d64 AF16      		cp r10,r31
 7735 2d66 B104      		cpc r11,__zero_reg__
 7736 2d68 04F4      		brge .+2
 7737 2d6a 00C0      		rjmp .L512
 7738               	.LM618:
 7739 2d6c 9401      		movw r18,r8
 7740 2d6e 4427      		clr r20
 7741 2d70 37FD      		sbrc r19,7
 7742 2d72 4095      		com r20
 7743 2d74 542F      		mov r21,r20
 7744 2d76 D701      		movw r26,r14
 7745 2d78 6D91      		ld r22,X+
 7746 2d7a 7D91      		ld r23,X+
 7747 2d7c 8D91      		ld r24,X+
 7748 2d7e 9C91      		ld r25,X
 7749 2d80 0E94 0000 		call __mulsi3
 7750 2d84 F601      		movw r30,r12
 7751               	.LVL509:
 7752 2d86 6083      		st Z,r22
 7753 2d88 7183      		std Z+1,r23
 7754 2d8a 8283      		std Z+2,r24
 7755 2d8c 9383      		std Z+3,r25
 7756 2d8e 00C0      		rjmp .L443
 7757               	.LVL510:
 7758               	.L440:
 7759               	.LM619:
 7760 2d90 89E0      		ldi r24,lo8(9)
 7761 2d92 A816      		cp r10,r24
 7762 2d94 B104      		cpc r11,__zero_reg__
 7763 2d96 01F4      		brne .+2
 7764 2d98 00C0      		rjmp .L437
 7765 2d9a 9AE0      		ldi r25,lo8(10)
 7766 2d9c A916      		cp r10,r25
 7767 2d9e B104      		cpc r11,__zero_reg__
 7768 2da0 04F4      		brge .L441
 7769 2da2 A7E0      		ldi r26,lo8(7)
 7770 2da4 AA16      		cp r10,r26
 7771 2da6 B104      		cpc r11,__zero_reg__
 7772 2da8 01F4      		brne .+2
 7773 2daa 00C0      		rjmp .L435
 7774 2dac B8E0      		ldi r27,lo8(8)
 7775 2dae AB16      		cp r10,r27
 7776 2db0 B104      		cpc r11,__zero_reg__
 7777 2db2 01F4      		brne .+2
 7778 2db4 00C0      		rjmp .L513
 7779               	.L430:
 7780               	.LM620:
 7781 2db6 80E0      		ldi r24,lo8(.LC19)
 7782 2db8 90E0      		ldi r25,hi8(.LC19)
 7783 2dba 66EE      		ldi r22,lo8(742)
 7784 2dbc 72E0      		ldi r23,hi8(742)
 7785 2dbe 40E0      		ldi r20,lo8(.LC20)
 7786 2dc0 50E0      		ldi r21,hi8(.LC20)
 7787 2dc2 0E94 0000 		call __myassert
 7788               	.L448:
 7789 2dc6 00C0      		rjmp .L448
 7790               	.L441:
 7791               	.LM621:
 7792 2dc8 EAE0      		ldi r30,lo8(10)
 7793 2dca AE16      		cp r10,r30
 7794 2dcc B104      		cpc r11,__zero_reg__
 7795 2dce 01F4      		brne .+2
 7796 2dd0 00C0      		rjmp .L438
 7797 2dd2 FBE0      		ldi r31,lo8(11)
 7798 2dd4 AF16      		cp r10,r31
 7799 2dd6 B104      		cpc r11,__zero_reg__
 7800 2dd8 01F4      		brne .L430
 7801               	.LBE489:
 7802               	.LM622:
 7803 2dda 0E94 0000 		call list_float_create
 7804 2dde 3C01      		movw r6,r24
 7805               	.LVL511:
 7806               	.LBB490:
 7807               	.LBB476:
 7808               	.LBB477:
 7809               	.LBB478:
 7810               	.LM623:
 7811 2de0 D701      		movw r26,r14
 7812 2de2 ED91      		ld r30,X+
 7813 2de4 FC91      		ld r31,X
 7814 2de6 4080      		ld r4,Z
 7815 2de8 5180      		ldd r5,Z+1
 7816               	.LVL512:
 7817               	.LBE478:
 7818               	.LBE477:
 7819               	.LM624:
 7820 2dea 4114      		cp r4,__zero_reg__
 7821 2dec 5104      		cpc r5,__zero_reg__
 7822 2dee 01F0      		breq .L446
 7823 2df0 B401      		movw r22,r8
 7824 2df2 8827      		clr r24
 7825 2df4 77FD      		sbrc r23,7
 7826 2df6 8095      		com r24
 7827 2df8 982F      		mov r25,r24
 7828 2dfa 0E94 0000 		call __floatsisf
 7829 2dfe 7B01      		movw r14,r22
 7830 2e00 8C01      		movw r16,r24
 7831               	.LVL513:
 7832               	.L447:
 7833               	.LBB479:
 7834               	.LM625:
 7835 2e02 C801      		movw r24,r16
 7836 2e04 B701      		movw r22,r14
 7837 2e06 F201      		movw r30,r4
 7838 2e08 2281      		ldd r18,Z+2
 7839 2e0a 3381      		ldd r19,Z+3
 7840 2e0c 4481      		ldd r20,Z+4
 7841 2e0e 5581      		ldd r21,Z+5
 7842 2e10 0E94 0000 		call __mulsf3
 7843 2e14 AB01      		movw r20,r22
 7844 2e16 BC01      		movw r22,r24
 7845 2e18 C301      		movw r24,r6
 7846 2e1a 0E94 0000 		call list_float_push_tail
 7847               	.LBE479:
 7848               	.LBB480:
 7849               	.LBB481:
 7850               	.LM626:
 7851 2e1e D201      		movw r26,r4
 7852 2e20 4D90      		ld r4,X+
 7853 2e22 5C90      		ld r5,X
 7854               	.LBE481:
 7855               	.LBE480:
 7856               	.LM627:
 7857 2e24 4114      		cp r4,__zero_reg__
 7858 2e26 5104      		cpc r5,__zero_reg__
 7859 2e28 01F4      		brne .L447
 7860               	.LVL514:
 7861               	.L446:
 7862               	.LM628:
 7863 2e2a F601      		movw r30,r12
 7864               	.LVL515:
 7865 2e2c 6082      		st Z,r6
 7866 2e2e 7182      		std Z+1,r7
 7867 2e30 00C0      		rjmp .L443
 7868               	.LVL516:
 7869               	.L512:
 7870               	.LBE476:
 7871               	.LM629:
 7872 2e32 22E0      		ldi r18,lo8(2)
 7873 2e34 A216      		cp r10,r18
 7874 2e36 B104      		cpc r11,__zero_reg__
 7875 2e38 04F4      		brge .+2
 7876 2e3a 00C0      		rjmp .L514
 7877               	.LM630:
 7878 2e3c F701      		movw r30,r14
 7879 2e3e 8081      		ld r24,Z
 7880 2e40 9181      		ldd r25,Z+1
 7881 2e42 A281      		ldd r26,Z+2
 7882 2e44 B381      		ldd r27,Z+3
 7883 2e46 F601      		movw r30,r12
 7884               	.LVL517:
 7885 2e48 8083      		st Z,r24
 7886 2e4a 9183      		std Z+1,r25
 7887 2e4c A283      		std Z+2,r26
 7888 2e4e B383      		std Z+3,r27
 7889 2e50 00C0      		rjmp .L443
 7890               	.LVL518:
 7891               	.L513:
 7892               	.LBE490:
 7893               	.LM631:
 7894 2e52 0E94 0000 		call set_int_create
 7895 2e56 8C01      		movw r16,r24
 7896               	.LVL519:
 7897               	.LBB491:
 7898               	.LBB475:
 7899               	.LM632:
 7900 2e58 D701      		movw r26,r14
 7901 2e5a 6D91      		ld r22,X+
 7902 2e5c 7C91      		ld r23,X
 7903 2e5e 0E94 0000 		call set_int_insert
 7904               	.LM633:
 7905 2e62 C801      		movw r24,r16
 7906 2e64 0E94 0000 		call set_print
 7907               	.LM634:
 7908 2e68 F601      		movw r30,r12
 7909               	.LVL520:
 7910 2e6a 0083      		st Z,r16
 7911 2e6c 1183      		std Z+1,r17
 7912 2e6e 00C0      		rjmp .L443
 7913               	.LVL521:
 7914               	.L479:
 7915               	.LBE475:
 7916               	.LBE491:
 7917               	.LBE544:
 7918               	.LBB545:
 7919               	.LBB539:
 7920               	.LM635:
 7921 2e70 80E0      		ldi r24,lo8(.LC19)
 7922 2e72 90E0      		ldi r25,hi8(.LC19)
 7923 2e74 69E9      		ldi r22,lo8(665)
 7924 2e76 72E0      		ldi r23,hi8(665)
 7925               	.LVL522:
 7926 2e78 40E0      		ldi r20,lo8(.LC20)
 7927 2e7a 50E0      		ldi r21,hi8(.LC20)
 7928 2e7c 0E94 0000 		call __myassert
 7929               	.LVL523:
 7930               	.L489:
 7931               	.LBE539:
 7932               	.LBE545:
 7933               	.LM636:
 7934 2e80 AF85      		ldd r26,Y+15
 7935 2e82 B889      		ldd r27,Y+16
 7936 2e84 1496      		adiw r26,4
 7937 2e86 0D91      		ld r16,X+
 7938 2e88 1C91      		ld r17,X
 7939 2e8a 1597      		sbiw r26,4+1
 7940               	.LVL524:
 7941 2e8c 00C0      		rjmp .L493
 7942               	.LVL525:
 7943               	.L481:
 7944               	.LBB546:
 7945               	.LBB533:
 7946               	.LM637:
 7947 2e8e D401      		movw r26,r8
 7948 2e90 6D91      		ld r22,X+
 7949 2e92 7D91      		ld r23,X+
 7950 2e94 8D91      		ld r24,X+
 7951 2e96 9C91      		ld r25,X
 7952               	.LVL526:
 7953 2e98 F601      		movw r30,r12
 7954 2e9a 2081      		ld r18,Z
 7955 2e9c 3181      		ldd r19,Z+1
 7956 2e9e 4281      		ldd r20,Z+2
 7957 2ea0 5381      		ldd r21,Z+3
 7958 2ea2 0E94 0000 		call __nesf2
 7959 2ea6 8823      		tst r24
 7960 2ea8 01F0      		breq .+2
 7961 2eaa 00C0      		rjmp .L493
 7962 2eac 00C0      		rjmp .L478
 7963               	.LVL527:
 7964               	.L484:
 7965               	.LM638:
 7966 2eae 8AE0      		ldi r24,lo8(10)
 7967 2eb0 A816      		cp r10,r24
 7968 2eb2 B104      		cpc r11,__zero_reg__
 7969 2eb4 04F4      		brge .+2
 7970 2eb6 00C0      		rjmp .L482
 7971 2eb8 9CE0      		ldi r25,lo8(12)
 7972 2eba A916      		cp r10,r25
 7973 2ebc B104      		cpc r11,__zero_reg__
 7974 2ebe 04F4      		brge .L479
 7975               	.LBB536:
 7976               	.LM639:
 7977 2ec0 D601      		movw r26,r12
 7978 2ec2 0D91      		ld r16,X+
 7979 2ec4 1C91      		ld r17,X
 7980               	.LVL528:
 7981               	.LBE536:
 7982               	.LBE533:
 7983               	.LM640:
 7984 2ec6 F401      		movw r30,r8
 7985 2ec8 8081      		ld r24,Z
 7986 2eca 9181      		ldd r25,Z+1
 7987 2ecc B801      		movw r22,r16
 7988               	.LVL529:
 7989 2ece 0E94 0000 		call list_equal
 7990               	.LBB532:
 7991               	.LBB537:
 7992 2ed2 892B      		or r24,r25
 7993 2ed4 01F0      		breq .L489
 7994               	.LM641:
 7995 2ed6 C801      		movw r24,r16
 7996 2ed8 0E94 0000 		call list_delete
 7997 2edc 00C0      		rjmp .L478
 7998               	.LVL530:
 7999               	.L509:
 8000               	.LBE537:
 8001               	.LBE532:
 8002               	.LBE546:
 8003               	.LM642:
 8004 2ede C401      		movw r24,r8
 8005               	.LVL531:
 8006 2ee0 B601      		movw r22,r12
 8007               	.LVL532:
 8008 2ee2 4C89      		ldd r20,Y+20
 8009 2ee4 50E0      		ldi r21,lo8(0)
 8010 2ee6 0E94 0000 		call memcpy
 8011 2eea 00C0      		rjmp .L478
 8012               	.LVL533:
 8013               	.L511:
 8014               	.LBB547:
 8015               	.LBB495:
 8016               	.LBB499:
 8017               	.LM643:
 8018 2eec 8DB7      		in r24,__SP_L__
 8019 2eee 9EB7      		in r25,__SP_H__
 8020 2ef0 0897      		sbiw r24,8
 8021 2ef2 8DBF      		out __SP_L__,r24
 8022 2ef4 9EBF      		out __SP_H__,r25
 8023 2ef6 EDB7      		in r30,__SP_L__
 8024 2ef8 FEB7      		in r31,__SP_H__
 8025 2efa 3196      		adiw r30,1
 8026 2efc 8091 0000 		lds r24,__iob+4
 8027 2f00 9091 0000 		lds r25,(__iob+4)+1
 8028 2f04 ADB7      		in r26,__SP_L__
 8029 2f06 BEB7      		in r27,__SP_H__
 8030               	.LVL534:
 8031 2f08 1196      		adiw r26,1
 8032 2f0a 8D93      		st X+,r24
 8033 2f0c 9C93      		st X,r25
 8034 2f0e 1297      		sbiw r26,1+1
 8035 2f10 80E0      		ldi r24,lo8(.LC31)
 8036 2f12 90E0      		ldi r25,hi8(.LC31)
 8037               	.LVL535:
 8038               	.L506:
 8039               	.LBE499:
 8040               	.LBB498:
 8041               	.LM644:
 8042 2f14 8283      		std Z+2,r24
 8043 2f16 9383      		std Z+3,r25
 8044 2f18 2483      		std Z+4,r18
 8045 2f1a 3583      		std Z+5,r19
 8046 2f1c 4683      		std Z+6,r20
 8047 2f1e 5783      		std Z+7,r21
 8048 2f20 0E94 0000 		call fprintf
 8049               	.LVL536:
 8050               	.LM645:
 8051 2f24 EDB7      		in r30,__SP_L__
 8052 2f26 FEB7      		in r31,__SP_H__
 8053 2f28 3896      		adiw r30,8
 8054 2f2a EDBF      		out __SP_L__,r30
 8055 2f2c FEBF      		out __SP_H__,r31
 8056 2f2e 81E0      		ldi r24,lo8(1)
 8057 2f30 90E0      		ldi r25,hi8(1)
 8058 2f32 0E94 0000 		call exit
 8059               	.LVL537:
 8060               	.L437:
 8061               	.LBE498:
 8062               	.LBE495:
 8063               	.LBE547:
 8064               	.LBB548:
 8065               	.LM646:
 8066 2f36 0E94 0000 		call set_float_create
 8067 2f3a 8C01      		movw r16,r24
 8068               	.LVL538:
 8069               	.LBB473:
 8070               	.LBB482:
 8071               	.LM647:
 8072 2f3c D701      		movw r26,r14
 8073 2f3e 4D91      		ld r20,X+
 8074 2f40 5D91      		ld r21,X+
 8075 2f42 6D91      		ld r22,X+
 8076 2f44 7C91      		ld r23,X
 8077 2f46 0E94 0000 		call set_float_insert
 8078               	.LM648:
 8079 2f4a C801      		movw r24,r16
 8080 2f4c 0E94 0000 		call set_print
 8081               	.LM649:
 8082 2f50 F601      		movw r30,r12
 8083               	.LVL539:
 8084 2f52 0083      		st Z,r16
 8085 2f54 1183      		std Z+1,r17
 8086 2f56 00C0      		rjmp .L443
 8087               	.LVL540:
 8088               	.L510:
 8089               	.LBE482:
 8090               	.LBE473:
 8091               	.LBE548:
 8092               	.LBB549:
 8093               	.LBB530:
 8094               	.LBB528:
 8095               	.LM650:
 8096 2f58 8DB7      		in r24,__SP_L__
 8097 2f5a 9EB7      		in r25,__SP_H__
 8098 2f5c 0897      		sbiw r24,8
 8099 2f5e 8DBF      		out __SP_L__,r24
 8100 2f60 9EBF      		out __SP_H__,r25
 8101 2f62 EDB7      		in r30,__SP_L__
 8102 2f64 FEB7      		in r31,__SP_H__
 8103 2f66 3196      		adiw r30,1
 8104 2f68 8091 0000 		lds r24,__iob+4
 8105 2f6c 9091 0000 		lds r25,(__iob+4)+1
 8106 2f70 ADB7      		in r26,__SP_L__
 8107 2f72 BEB7      		in r27,__SP_H__
 8108               	.LVL541:
 8109 2f74 1196      		adiw r26,1
 8110 2f76 8D93      		st X+,r24
 8111 2f78 9C93      		st X,r25
 8112 2f7a 1297      		sbiw r26,1+1
 8113 2f7c 80E0      		ldi r24,lo8(.LC32)
 8114 2f7e 90E0      		ldi r25,hi8(.LC32)
 8115 2f80 00C0      		rjmp .L506
 8116               	.LVL542:
 8117               	.L435:
 8118               	.LBE528:
 8119               	.LBE530:
 8120               	.LBE549:
 8121               	.LBB550:
 8122               	.LBB492:
 8123               	.LM651:
 8124 2f82 B401      		movw r22,r8
 8125 2f84 8827      		clr r24
 8126 2f86 77FD      		sbrc r23,7
 8127 2f88 8095      		com r24
 8128 2f8a 982F      		mov r25,r24
 8129 2f8c 0E94 0000 		call __floatsisf
 8130 2f90 9B01      		movw r18,r22
 8131 2f92 AC01      		movw r20,r24
 8132 2f94 D701      		movw r26,r14
 8133 2f96 6D91      		ld r22,X+
 8134 2f98 7D91      		ld r23,X+
 8135 2f9a 8D91      		ld r24,X+
 8136 2f9c 9C91      		ld r25,X
 8137 2f9e 0E94 0000 		call __mulsf3
 8138 2fa2 F601      		movw r30,r12
 8139               	.LVL543:
 8140 2fa4 6083      		st Z,r22
 8141 2fa6 7183      		std Z+1,r23
 8142 2fa8 8283      		std Z+2,r24
 8143 2faa 9383      		std Z+3,r25
 8144 2fac 00C0      		rjmp .L443
 8145               	.LVL544:
 8146               	.L514:
 8147               	.LM652:
 8148 2fae 31E0      		ldi r19,lo8(1)
 8149 2fb0 A316      		cp r10,r19
 8150 2fb2 B104      		cpc r11,__zero_reg__
 8151 2fb4 01F0      		breq .+2
 8152 2fb6 00C0      		rjmp .L430
 8153               	.LM653:
 8154 2fb8 B701      		movw r22,r14
 8155               	.LVL545:
 8156 2fba 4C89      		ldd r20,Y+20
 8157 2fbc 50E0      		ldi r21,lo8(0)
 8158 2fbe 0E94 0000 		call memcpy
 8159 2fc2 00C0      		rjmp .L443
 8160               	.LVL546:
 8161               	.L438:
 8162               	.LBE492:
 8163               	.LM654:
 8164 2fc4 0E94 0000 		call list_int_create
 8165 2fc8 3C01      		movw r6,r24
 8166               	.LVL547:
 8167               	.LBB493:
 8168               	.LBB483:
 8169               	.LBB484:
 8170               	.LBB485:
 8171               	.LM655:
 8172 2fca D701      		movw r26,r14
 8173 2fcc ED91      		ld r30,X+
 8174 2fce FC91      		ld r31,X
 8175 2fd0 4080      		ld r4,Z
 8176 2fd2 5180      		ldd r5,Z+1
 8177               	.LVL548:
 8178               	.LBE485:
 8179               	.LBE484:
 8180               	.LM656:
 8181 2fd4 4114      		cp r4,__zero_reg__
 8182 2fd6 5104      		cpc r5,__zero_reg__
 8183 2fd8 01F4      		brne .+2
 8184 2fda 00C0      		rjmp .L446
 8185 2fdc 7401      		movw r14,r8
 8186 2fde 0027      		clr r16
 8187 2fe0 F7FC      		sbrc r15,7
 8188 2fe2 0095      		com r16
 8189 2fe4 102F      		mov r17,r16
 8190               	.LVL549:
 8191               	.L445:
 8192               	.LBB486:
 8193               	.LM657:
 8194 2fe6 F201      		movw r30,r4
 8195 2fe8 2281      		ldd r18,Z+2
 8196 2fea 3381      		ldd r19,Z+3
 8197 2fec 4481      		ldd r20,Z+4
 8198 2fee 5581      		ldd r21,Z+5
 8199 2ff0 C801      		movw r24,r16
 8200 2ff2 B701      		movw r22,r14
 8201 2ff4 0E94 0000 		call __mulsi3
 8202 2ff8 AB01      		movw r20,r22
 8203 2ffa BC01      		movw r22,r24
 8204 2ffc C301      		movw r24,r6
 8205 2ffe 0E94 0000 		call list_int_push_tail
 8206               	.LBE486:
 8207               	.LBB487:
 8208               	.LBB488:
 8209               	.LM658:
 8210 3002 D201      		movw r26,r4
 8211 3004 4D90      		ld r4,X+
 8212 3006 5C90      		ld r5,X
 8213               	.LBE488:
 8214               	.LBE487:
 8215               	.LM659:
 8216 3008 4114      		cp r4,__zero_reg__
 8217 300a 5104      		cpc r5,__zero_reg__
 8218 300c 01F4      		brne .L445
 8219 300e 00C0      		rjmp .L446
 8220               	.LVL550:
 8221               	.L482:
 8222               	.LBE483:
 8223               	.LBE493:
 8224               	.LBE550:
 8225               	.LBB551:
 8226               	.LBB540:
 8227               	.LBB535:
 8228               	.LM660:
 8229 3010 D601      		movw r26,r12
 8230 3012 0D91      		ld r16,X+
 8231 3014 1C91      		ld r17,X
 8232               	.LVL551:
 8233               	.LBE535:
 8234               	.LBE540:
 8235               	.LM661:
 8236 3016 F401      		movw r30,r8
 8237 3018 8081      		ld r24,Z
 8238 301a 9181      		ldd r25,Z+1
 8239 301c B801      		movw r22,r16
 8240               	.LVL552:
 8241 301e 0E94 0000 		call set_equal
 8242               	.LBB541:
 8243               	.LBB538:
 8244 3022 892B      		or r24,r25
 8245 3024 01F4      		brne .+2
 8246 3026 00C0      		rjmp .L489
 8247               	.LM662:
 8248 3028 C801      		movw r24,r16
 8249 302a 0E94 0000 		call set_delete
 8250 302e 00C0      		rjmp .L478
 8251               	.LBE538:
 8252               	.LBE541:
 8253               	.LBE551:
 8254               	.LFE40:
 8256               		.data
 8257               	.LC33:
 8258 020e 556E 7265 		.string	"Unrecognized type: %d\n"
 8258      636F 676E 
 8258      697A 6564 
 8258      2074 7970 
 8258      653A 2025 
 8259               	.LC34:
 8260 0225 6D65 6C64 		.string	"meld: persistent types can't be deleted\n"
 8260      3A20 7065 
 8260      7273 6973 
 8260      7465 6E74 
 8260      2074 7970 
 8261               		.text
 8262               	.global	tuple_do_handle
 8264               	tuple_do_handle:
 8265               	.LFB43:
 8266               	.LM663:
 8267               	.LVL553:
 8268 3030 2F92      		push r2
 8269 3032 3F92      		push r3
 8270 3034 4F92      		push r4
 8271 3036 5F92      		push r5
 8272 3038 6F92      		push r6
 8273 303a 7F92      		push r7
 8274 303c 8F92      		push r8
 8275 303e 9F92      		push r9
 8276 3040 AF92      		push r10
 8277 3042 BF92      		push r11
 8278 3044 CF92      		push r12
 8279 3046 DF92      		push r13
 8280 3048 EF92      		push r14
 8281 304a FF92      		push r15
 8282 304c 0F93      		push r16
 8283 304e 1F93      		push r17
 8284 3050 DF93      		push r29
 8285 3052 CF93      		push r28
 8286 3054 CDB7      		in r28,__SP_L__
 8287 3056 DEB7      		in r29,__SP_H__
 8288 3058 6797      		sbiw r28,23
 8289 305a CDBF      		out __SP_L__,r28
 8290 305c DEBF      		out __SP_H__,r29
 8291               	/* prologue: function */
 8292               	/* frame size = 23 */
 8293 305e 5C01      		movw r10,r24
 8294 3060 3B01      		movw r6,r22
 8295 3062 498B      		std Y+17,r20
 8296 3064 5A8B      		std Y+18,r21
 8297 3066 2B8B      		std Y+19,r18
 8298 3068 3C8B      		std Y+20,r19
 8299               	.LM664:
 8300 306a 9C01      		movw r18,r24
 8301               	.LVL554:
 8302 306c 2050      		subi r18,lo8(-(meld_prog+1))
 8303 306e 3040      		sbci r19,hi8(-(meld_prog+1))
 8304 3070 2E8B      		std Y+22,r18
 8305 3072 3F8B      		std Y+23,r19
 8306 3074 D901      		movw r26,r18
 8307 3076 8C91      		ld r24,X
 8308               	.LVL555:
 8309 3078 C82E      		mov r12,r24
 8310 307a DD24      		clr r13
 8311 307c E0E0      		ldi r30,lo8(meld_prog)
 8312 307e F0E0      		ldi r31,hi8(meld_prog)
 8313 3080 CE0E      		add r12,r30
 8314 3082 DF1E      		adc r13,r31
 8315 3084 D601      		movw r26,r12
 8316 3086 1296      		adiw r26,2
 8317 3088 8C91      		ld r24,X
 8318 308a 282F      		mov r18,r24
 8319 308c 86FF      		sbrs r24,6
 8320 308e 00C0      		rjmp .L516
 8321               	.LVL556:
 8322               	.LBB575:
 8323               	.LM665:
 8324 3090 C501      		movw r24,r10
 8325 3092 880F      		lsl r24
 8326 3094 991F      		rol r25
 8327 3096 880F      		lsl r24
 8328 3098 991F      		rol r25
 8329 309a E091 0000 		lds r30,proved
 8330 309e F091 0000 		lds r31,(proved)+1
 8331 30a2 E80F      		add r30,r24
 8332 30a4 F91F      		adc r31,r25
 8333 30a6 CA01      		movw r24,r20
 8334 30a8 9C01      		movw r18,r24
 8335 30aa 4427      		clr r20
 8336 30ac 37FD      		sbrc r19,7
 8337 30ae 4095      		com r20
 8338 30b0 542F      		mov r21,r20
 8339               	.LVL557:
 8340 30b2 8081      		ld r24,Z
 8341 30b4 9181      		ldd r25,Z+1
 8342 30b6 A281      		ldd r26,Z+2
 8343 30b8 B381      		ldd r27,Z+3
 8344 30ba 820F      		add r24,r18
 8345 30bc 931F      		adc r25,r19
 8346 30be A41F      		adc r26,r20
 8347 30c0 B51F      		adc r27,r21
 8348 30c2 8083      		st Z,r24
 8349 30c4 9183      		std Z+1,r25
 8350 30c6 A283      		std Z+2,r26
 8351 30c8 B383      		std Z+3,r27
 8352               	.LM666:
 8353 30ca 8983      		std Y+1,r24
 8354 30cc 9A83      		std Y+2,r25
 8355 30ce AB83      		std Y+3,r26
 8356 30d0 BC83      		std Y+4,r27
 8357               	.LVL558:
 8358               	.LBB576:
 8359               	.LBB577:
 8360               	.LM667:
 8361 30d2 E090 0000 		lds r14,TYPE_PROVED
 8362 30d6 F090 0000 		lds r15,(TYPE_PROVED)+1
 8363               	.LBB578:
 8364               	.LBB579:
 8365               	.LM668:
 8366 30da 8091 0000 		lds r24,meld_prog
 8367 30de 90E0      		ldi r25,lo8(0)
 8368 30e0 E816      		cp r14,r24
 8369 30e2 F906      		cpc r15,r25
 8370 30e4 04F4      		brge .L517
 8371 30e6 F7FE      		sbrs r15,7
 8372 30e8 00C0      		rjmp .L518
 8373               	.L517:
 8374               	.LM669:
 8375 30ea 00D0      		rcall .
 8376 30ec 00D0      		rcall .
 8377 30ee EDB7      		in r30,__SP_L__
 8378 30f0 FEB7      		in r31,__SP_H__
 8379 30f2 3196      		adiw r30,1
 8380 30f4 8091 0000 		lds r24,__iob+4
 8381 30f8 9091 0000 		lds r25,(__iob+4)+1
 8382 30fc ADB7      		in r26,__SP_L__
 8383 30fe BEB7      		in r27,__SP_H__
 8384 3100 1196      		adiw r26,1
 8385 3102 8D93      		st X+,r24
 8386 3104 9C93      		st X,r25
 8387 3106 1297      		sbiw r26,1+1
 8388 3108 80E0      		ldi r24,lo8(.LC33)
 8389 310a 90E0      		ldi r25,hi8(.LC33)
 8390 310c 8283      		std Z+2,r24
 8391 310e 9383      		std Z+3,r25
 8392 3110 E482      		std Z+4,r14
 8393 3112 F582      		std Z+5,r15
 8394 3114 0E94 0000 		call fprintf
 8395               	.LVL559:
 8396               	.LM670:
 8397 3118 EDB7      		in r30,__SP_L__
 8398 311a FEB7      		in r31,__SP_H__
 8399 311c 3696      		adiw r30,6
 8400 311e EDBF      		out __SP_L__,r30
 8401 3120 FEBF      		out __SP_H__,r31
 8402 3122 8FEF      		ldi r24,lo8(-1)
 8403 3124 9FEF      		ldi r25,hi8(-1)
 8404 3126 0E94 0000 		call exit
 8405               	.LVL560:
 8406               	.L516:
 8407               	.LBE579:
 8408               	.LBE578:
 8409               	.LBE577:
 8410               	.LBE576:
 8411               	.LBE575:
 8412               	.LM671:
 8413 312a 8091 0000 		lds r24,TYPE_PROVED
 8414 312e 9091 0000 		lds r25,(TYPE_PROVED)+1
 8415 3132 A816      		cp r10,r24
 8416 3134 B906      		cpc r11,r25
 8417 3136 01F4      		brne .+2
 8418 3138 00C0      		rjmp .L579
 8419               	.LM672:
 8420 313a 8091 0000 		lds r24,TYPE_TERMINATE
 8421 313e 9091 0000 		lds r25,(TYPE_TERMINATE)+1
 8422 3142 A816      		cp r10,r24
 8423 3144 B906      		cpc r11,r25
 8424 3146 01F4      		brne .+2
 8425 3148 00C0      		rjmp .L577
 8426               	.LVL561:
 8427               	.L521:
 8428               	.LM673:
 8429 314a 20FF      		sbrs r18,0
 8430 314c 00C0      		rjmp .L580
 8431               	.LM674:
 8432 314e 22FF      		sbrs r18,2
 8433 3150 00C0      		rjmp .L536
 8434               	.L526:
 8435               	.LBB584:
 8436               	.LM675:
 8437 3152 C501      		movw r24,r10
 8438 3154 880F      		lsl r24
 8439 3156 991F      		rol r25
 8440 3158 880F      		lsl r24
 8441 315a 991F      		rol r25
 8442 315c C090 0000 		lds r12,tuples
 8443 3160 D090 0000 		lds r13,(tuples)+1
 8444               	.LVL562:
 8445 3164 C80E      		add r12,r24
 8446 3166 D91E      		adc r13,r25
 8447 3168 F601      		movw r30,r12
 8448 316a E080      		ld r14,Z
 8449 316c F180      		ldd r15,Z+1
 8450               	.LM676:
 8451 316e E114      		cp r14,__zero_reg__
 8452 3170 F104      		cpc r15,__zero_reg__
 8453 3172 01F4      		brne .+2
 8454 3174 00C0      		rjmp .L537
 8455               	.LM677:
 8456 3176 0C2D      		mov r16,r12
 8457               	.LVL563:
 8458 3178 5D2C      		mov r5,r13
 8459               	.LVL564:
 8460 317a 4501      		movw r8,r10
 8461 317c 880C      		lsl r8
 8462 317e 991C      		rol r9
 8463               	.LM678:
 8464 3180 E091 0000 		lds r30,arguments
 8465 3184 F091 0000 		lds r31,(arguments)+1
 8466 3188 E80D      		add r30,r8
 8467 318a F91D      		adc r31,r9
 8468 318c 1181      		ldd r17,Z+1
 8469 318e 00C0      		rjmp .L543
 8470               	.LVL565:
 8471               	.L538:
 8472               	.LM679:
 8473 3190 D701      		movw r26,r14
 8474 3192 8D91      		ld r24,X+
 8475 3194 9C91      		ld r25,X
 8476               	.LM680:
 8477 3196 0097      		sbiw r24,0
 8478 3198 01F4      		brne .+2
 8479 319a 00C0      		rjmp .L537
 8480               	.LM681:
 8481 319c 0E2D      		mov r16,r14
 8482 319e 5F2C      		mov r5,r15
 8483 31a0 7C01      		movw r14,r24
 8484               	.LVL566:
 8485               	.L543:
 8486               	.LM682:
 8487 31a2 D701      		movw r26,r14
 8488 31a4 1496      		adiw r26,4
 8489 31a6 8D91      		ld r24,X+
 8490 31a8 9C91      		ld r25,X
 8491 31aa 1597      		sbiw r26,4+1
 8492 31ac B301      		movw r22,r6
 8493 31ae 412F      		mov r20,r17
 8494 31b0 50E0      		ldi r21,lo8(0)
 8495 31b2 0E94 0000 		call memcmp
 8496 31b6 0097      		sbiw r24,0
 8497 31b8 01F4      		brne .L538
 8498               	.LM683:
 8499 31ba F701      		movw r30,r14
 8500 31bc 8281      		ldd r24,Z+2
 8501 31be 9381      		ldd r25,Z+3
 8502 31c0 2989      		ldd r18,Y+17
 8503 31c2 3A89      		ldd r19,Y+18
 8504 31c4 820F      		add r24,r18
 8505 31c6 931F      		adc r25,r19
 8506 31c8 8283      		std Z+2,r24
 8507 31ca 9383      		std Z+3,r25
 8508               	.LM684:
 8509 31cc 1816      		cp __zero_reg__,r24
 8510 31ce 1906      		cpc __zero_reg__,r25
 8511 31d0 04F0      		brlt .L577
 8512               	.LM685:
 8513 31d2 AE89      		ldd r26,Y+22
 8514 31d4 BF89      		ldd r27,Y+23
 8515 31d6 EC91      		ld r30,X
 8516 31d8 F0E0      		ldi r31,lo8(0)
 8517 31da E050      		subi r30,lo8(-(meld_prog))
 8518 31dc F040      		sbci r31,hi8(-(meld_prog))
 8519 31de 8281      		ldd r24,Z+2
 8520 31e0 82FF      		sbrs r24,2
 8521 31e2 00C0      		rjmp .L581
 8522               	.LM686:
 8523 31e4 E091 0000 		lds r30,delta_sizes
 8524 31e8 F091 0000 		lds r31,(delta_sizes)+1
 8525 31ec E80D      		add r30,r8
 8526 31ee F91D      		adc r31,r9
 8527 31f0 8081      		ld r24,Z
 8528 31f2 9181      		ldd r25,Z+1
 8529 31f4 892B      		or r24,r25
 8530 31f6 01F4      		brne .+2
 8531 31f8 00C0      		rjmp .L541
 8532               	.LM687:
 8533 31fa 2091 0000 		lds r18,oldTuples
 8534 31fe 3091 0000 		lds r19,(oldTuples)+1
 8535 3202 F901      		movw r30,r18
 8536 3204 E80D      		add r30,r8
 8537 3206 F91D      		adc r31,r9
 8538 3208 8081      		ld r24,Z
 8539 320a 9181      		ldd r25,Z+1
 8540 320c 0097      		sbiw r24,0
 8541 320e 01F0      		breq .L542
 8542               	.LM688:
 8543 3210 0E94 0000 		call free
 8544 3214 2091 0000 		lds r18,oldTuples
 8545 3218 3091 0000 		lds r19,(oldTuples)+1
 8546               	.L542:
 8547               	.LM689:
 8548 321c 820E      		add r8,r18
 8549 321e 931E      		adc r9,r19
 8550 3220 C601      		movw r24,r12
 8551 3222 602F      		mov r22,r16
 8552 3224 752D      		mov r23,r5
 8553 3226 0E94 0000 		call queue_dequeue_pos
 8554 322a F401      		movw r30,r8
 8555 322c 8083      		st Z,r24
 8556 322e 9183      		std Z+1,r25
 8557               	.LVL567:
 8558               	.L577:
 8559               	.LBE584:
 8560               	.LM690:
 8561 3230 C301      		movw r24,r6
 8562 3232 0E94 0000 		call free
 8563               	.LVL568:
 8564               	.L572:
 8565               	/* epilogue start */
 8566               	.LM691:
 8567 3236 6796      		adiw r28,23
 8568 3238 CDBF      		out __SP_L__,r28
 8569 323a DEBF      		out __SP_H__,r29
 8570 323c CF91      		pop r28
 8571 323e DF91      		pop r29
 8572 3240 1F91      		pop r17
 8573               	.LVL569:
 8574 3242 0F91      		pop r16
 8575               	.LVL570:
 8576 3244 FF90      		pop r15
 8577 3246 EF90      		pop r14
 8578 3248 DF90      		pop r13
 8579               	.LVL571:
 8580 324a CF90      		pop r12
 8581               	.LVL572:
 8582 324c BF90      		pop r11
 8583               	.LVL573:
 8584 324e AF90      		pop r10
 8585               	.LVL574:
 8586 3250 9F90      		pop r9
 8587               	.LVL575:
 8588 3252 8F90      		pop r8
 8589               	.LVL576:
 8590 3254 7F90      		pop r7
 8591 3256 6F90      		pop r6
 8592               	.LVL577:
 8593 3258 5F90      		pop r5
 8594               	.LVL578:
 8595 325a 4F90      		pop r4
 8596               	.LVL579:
 8597 325c 3F90      		pop r3
 8598               	.LVL580:
 8599 325e 2F90      		pop r2
 8600               	.LVL581:
 8601 3260 0895      		ret
 8602               	.LVL582:
 8603               	.L580:
 8604               	.LM692:
 8605 3262 21FF      		sbrs r18,1
 8606 3264 00C0      		rjmp .L526
 8607               	.LBB602:
 8608               	.LM693:
 8609 3266 8091 0000 		lds r24,persistent
 8610 326a 9091 0000 		lds r25,(persistent)+1
 8611               	.LM694:
 8612 326e 4501      		movw r8,r10
 8613 3270 880C      		lsl r8
 8614 3272 991C      		rol r9
 8615 3274 E091 0000 		lds r30,arguments
 8616 3278 F091 0000 		lds r31,(arguments)+1
 8617 327c E80D      		add r30,r8
 8618 327e F91D      		adc r31,r9
 8619 3280 4181      		ldd r20,Z+1
 8620               	.LM695:
 8621 3282 2989      		ldd r18,Y+17
 8622 3284 3A89      		ldd r19,Y+18
 8623 3286 37FD      		sbrc r19,7
 8624 3288 00C0      		rjmp .L527
 8625               	.LM696:
 8626 328a 8A0C      		add r8,r10
 8627 328c 9B1C      		adc r9,r11
 8628               	.LVL583:
 8629 328e 880C      		lsl r8
 8630 3290 991C      		rol r9
 8631 3292 880E      		add r8,r24
 8632 3294 991E      		adc r9,r25
 8633               	.LM697:
 8634 3296 A42E      		mov r10,r20
 8635               	.LVL584:
 8636 3298 BB24      		clr r11
 8637               	.LVL585:
 8638               	.LM698:
 8639 329a D401      		movw r26,r8
 8640 329c 1296      		adiw r26,2
 8641 329e CD90      		ld r12,X+
 8642 32a0 DC90      		ld r13,X
 8643 32a2 1397      		sbiw r26,2+1
 8644 32a4 1C14      		cp __zero_reg__,r12
 8645 32a6 1D04      		cpc __zero_reg__,r13
 8646 32a8 04F0      		brlt .+2
 8647 32aa 00C0      		rjmp .L582
 8648               	.LM699:
 8649 32ac F401      		movw r30,r8
 8650 32ae 4080      		ld r4,Z
 8651 32b0 5180      		ldd r5,Z+1
 8652 32b2 7201      		movw r14,r4
 8653 32b4 00E0      		ldi r16,lo8(0)
 8654 32b6 10E0      		ldi r17,hi8(0)
 8655               	.LVL586:
 8656 32b8 00C0      		rjmp .L531
 8657               	.L530:
 8658               	.LM700:
 8659 32ba 0F5F      		subi r16,lo8(-(1))
 8660 32bc 1F4F      		sbci r17,hi8(-(1))
 8661 32be EA0C      		add r14,r10
 8662 32c0 FB1C      		adc r15,r11
 8663 32c2 0C15      		cp r16,r12
 8664 32c4 1D05      		cpc r17,r13
 8665 32c6 04F0      		brlt .+2
 8666 32c8 00C0      		rjmp .L529
 8667               	.L531:
 8668               	.LBB603:
 8669               	.LM701:
 8670 32ca C701      		movw r24,r14
 8671 32cc B301      		movw r22,r6
 8672 32ce A501      		movw r20,r10
 8673 32d0 0E94 0000 		call memcmp
 8674 32d4 0097      		sbiw r24,0
 8675 32d6 01F4      		brne .L530
 8676 32d8 00C0      		rjmp .L577
 8677               	.LVL587:
 8678               	.L518:
 8679               	.LBE603:
 8680               	.LBE602:
 8681               	.LBB604:
 8682               	.LBB583:
 8683               	.LBB582:
 8684               	.LBB581:
 8685               	.LM702:
 8686 32da C701      		movw r24,r14
 8687 32dc 880F      		lsl r24
 8688 32de 991F      		rol r25
 8689               	.LVL588:
 8690 32e0 E091 0000 		lds r30,arguments
 8691 32e4 F091 0000 		lds r31,(arguments)+1
 8692 32e8 E80F      		add r30,r24
 8693 32ea F91F      		adc r31,r25
 8694 32ec 8181      		ldd r24,Z+1
 8695 32ee 90E0      		ldi r25,lo8(0)
 8696 32f0 0E94 0000 		call malloc
 8697 32f4 8C01      		movw r16,r24
 8698               	.LBB580:
 8699               	.LM703:
 8700 32f6 DC01      		movw r26,r24
 8701               	.LVL589:
 8702 32f8 EC92      		st X,r14
 8703               	.LBE580:
 8704               	.LBE581:
 8705               	.LM704:
 8706 32fa C501      		movw r24,r10
 8707 32fc AA27      		clr r26
 8708 32fe 97FD      		sbrc r25,7
 8709 3300 A095      		com r26
 8710 3302 BA2F      		mov r27,r26
 8711               	.LVL590:
 8712 3304 8D83      		std Y+5,r24
 8713 3306 9E83      		std Y+6,r25
 8714 3308 AF83      		std Y+7,r26
 8715 330a B887      		std Y+8,r27
 8716               	.LVL591:
 8717               	.LM705:
 8718 330c A091 0000 		lds r26,arguments
 8719 3310 B091 0000 		lds r27,(arguments)+1
 8720 3314 EE2D      		mov r30,r14
 8721 3316 F0E0      		ldi r31,lo8(0)
 8722 3318 EE0F      		lsl r30
 8723 331a FF1F      		rol r31
 8724               	.LVL592:
 8725 331c EA0F      		add r30,r26
 8726 331e FB1F      		adc r31,r27
 8727 3320 8081      		ld r24,Z
 8728 3322 A80F      		add r26,r24
 8729 3324 B11D      		adc r27,__zero_reg__
 8730 3326 1196      		adiw r26,1
 8731 3328 2C91      		ld r18,X
 8732 332a 1197      		sbiw r26,1
 8733 332c 30E0      		ldi r19,lo8(0)
 8734 332e 2F5F      		subi r18,lo8(-(1))
 8735 3330 3F4F      		sbci r19,hi8(-(1))
 8736 3332 200F      		add r18,r16
 8737 3334 311F      		adc r19,r17
 8738               	.LVL593:
 8739 3336 4C91      		ld r20,X
 8740 3338 FE01      		movw r30,r28
 8741 333a 3596      		adiw r30,5
 8742 333c C901      		movw r24,r18
 8743 333e BF01      		movw r22,r30
 8744 3340 50E0      		ldi r21,lo8(0)
 8745 3342 0E94 0000 		call memcpy
 8746               	.LM706:
 8747 3346 A091 0000 		lds r26,arguments
 8748 334a B091 0000 		lds r27,(arguments)+1
 8749 334e F801      		movw r30,r16
 8750 3350 8081      		ld r24,Z
 8751 3352 E82F      		mov r30,r24
 8752 3354 F0E0      		ldi r31,lo8(0)
 8753 3356 EE0F      		lsl r30
 8754 3358 FF1F      		rol r31
 8755 335a EA0F      		add r30,r26
 8756 335c FB1F      		adc r31,r27
 8757 335e 8081      		ld r24,Z
 8758 3360 A80F      		add r26,r24
 8759 3362 B11D      		adc r27,__zero_reg__
 8760 3364 1396      		adiw r26,3
 8761 3366 2C91      		ld r18,X
 8762 3368 1397      		sbiw r26,3
 8763 336a 30E0      		ldi r19,lo8(0)
 8764 336c 2F5F      		subi r18,lo8(-(1))
 8765 336e 3F4F      		sbci r19,hi8(-(1))
 8766 3370 200F      		add r18,r16
 8767 3372 311F      		adc r19,r17
 8768 3374 1296      		adiw r26,2
 8769 3376 4C91      		ld r20,X
 8770 3378 C901      		movw r24,r18
 8771 337a BE01      		movw r22,r28
 8772 337c 6F5F      		subi r22,lo8(-(1))
 8773 337e 7F4F      		sbci r23,hi8(-(1))
 8774 3380 50E0      		ldi r21,lo8(0)
 8775 3382 0E94 0000 		call memcpy
 8776               	.LBE582:
 8777               	.LBE583:
 8778               	.LM707:
 8779 3386 C801      		movw r24,r16
 8780 3388 61E0      		ldi r22,lo8(1)
 8781 338a 70E0      		ldi r23,hi8(1)
 8782 338c 0E94 0000 		call enqueueNewTuple
 8783 3390 D601      		movw r26,r12
 8784 3392 1296      		adiw r26,2
 8785 3394 8C91      		ld r24,X
 8786 3396 282F      		mov r18,r24
 8787 3398 00C0      		rjmp .L521
 8788               	.LVL594:
 8789               	.L536:
 8790               	.LBE604:
 8791               	.LM708:
 8792 339a F601      		movw r30,r12
 8793 339c 3380      		ldd r3,Z+3
 8794               	.LVL595:
 8795               	.LM709:
 8796 339e 9501      		movw r18,r10
 8797 33a0 220F      		lsl r18
 8798 33a2 331F      		rol r19
 8799 33a4 220F      		lsl r18
 8800 33a6 331F      		rol r19
 8801               	.LVL596:
 8802 33a8 2B87      		std Y+11,r18
 8803 33aa 3C87      		std Y+12,r19
 8804 33ac 4090 0000 		lds r4,tuples
 8805 33b0 5090 0000 		lds r5,(tuples)+1
 8806               	.LVL597:
 8807 33b4 420E      		add r4,r18
 8808 33b6 531E      		adc r5,r19
 8809 33b8 D201      		movw r26,r4
 8810 33ba ED90      		ld r14,X+
 8811 33bc FC90      		ld r15,X
 8812               	.LM710:
 8813 33be E114      		cp r14,__zero_reg__
 8814 33c0 F104      		cpc r15,__zero_reg__
 8815 33c2 01F4      		brne .+2
 8816 33c4 00C0      		rjmp .L559
 8817               	.LM711:
 8818 33c6 B32D      		mov r27,r3
 8819 33c8 BF70      		andi r27,lo8(15)
 8820 33ca BF87      		std Y+15,r27
 8821               	.LVL598:
 8822               	.LM712:
 8823 33cc 4D8A      		std Y+21,r4
 8824 33ce 252C      		mov r2,r5
 8825               	.LVL599:
 8826 33d0 4501      		movw r8,r10
 8827 33d2 880C      		lsl r8
 8828 33d4 991C      		rol r9
 8829 33d6 8B2F      		mov r24,r27
 8830 33d8 90E0      		ldi r25,lo8(0)
 8831               	.LBB605:
 8832               	.LM713:
 8833 33da E091 0000 		lds r30,arguments
 8834 33de F091 0000 		lds r31,(arguments)+1
 8835 33e2 8E0E      		add r8,r30
 8836 33e4 9F1E      		adc r9,r31
 8837 33e6 D401      		movw r26,r8
 8838 33e8 2C91      		ld r18,X
 8839 33ea 880F      		lsl r24
 8840 33ec 991F      		rol r25
 8841 33ee E80F      		add r30,r24
 8842 33f0 F91F      		adc r31,r25
 8843 33f2 E20F      		add r30,r18
 8844 33f4 F11D      		adc r31,__zero_reg__
 8845 33f6 8181      		ldd r24,Z+1
 8846 33f8 082F      		mov r16,r24
 8847               	.LVL600:
 8848 33fa 10E0      		ldi r17,lo8(0)
 8849               	.LVL601:
 8850 33fc 0F5F      		subi r16,lo8(-(1))
 8851 33fe 1F4F      		sbci r17,hi8(-(1))
 8852               	.LVL602:
 8853 3400 00C0      		rjmp .L569
 8854               	.LVL603:
 8855               	.L560:
 8856               	.LM714:
 8857 3402 D701      		movw r26,r14
 8858 3404 8D91      		ld r24,X+
 8859 3406 9C91      		ld r25,X
 8860               	.LBE605:
 8861               	.LM715:
 8862 3408 0097      		sbiw r24,0
 8863 340a 01F4      		brne .+2
 8864 340c 00C0      		rjmp .L559
 8865               	.LM716:
 8866 340e ED8A      		std Y+21,r14
 8867 3410 2F2C      		mov r2,r15
 8868 3412 7C01      		movw r14,r24
 8869               	.LVL604:
 8870               	.L569:
 8871               	.LBB607:
 8872               	.LM717:
 8873 3414 F701      		movw r30,r14
 8874 3416 8481      		ldd r24,Z+4
 8875 3418 9581      		ldd r25,Z+5
 8876 341a B301      		movw r22,r6
 8877 341c A801      		movw r20,r16
 8878 341e 0E94 0000 		call memcmp
 8879 3422 0097      		sbiw r24,0
 8880 3424 01F4      		brne .L560
 8881               	.LM718:
 8882 3426 D701      		movw r26,r14
 8883 3428 1296      		adiw r26,2
 8884 342a AD90      		ld r10,X+
 8885 342c BC90      		ld r11,X
 8886 342e 1397      		sbiw r26,2+1
 8887               	.LVL605:
 8888               	.LM719:
 8889 3430 3694      		lsr r3
 8890 3432 3694      		lsr r3
 8891 3434 3694      		lsr r3
 8892 3436 3694      		lsr r3
 8893 3438 388A      		std Y+16,r3
 8894 343a B32D      		mov r27,r3
 8895 343c B130      		cpi r27,lo8(1)
 8896 343e 01F4      		brne .+2
 8897 3440 00C0      		rjmp .L583
 8898               	.L561:
 8899               	.LM720:
 8900 3442 F501      		movw r30,r10
 8901 3444 0081      		ld r16,Z
 8902 3446 1181      		ldd r17,Z+1
 8903               	.LVL606:
 8904               	.LM721:
 8905 3448 0115      		cp r16,__zero_reg__
 8906 344a 1105      		cpc r17,__zero_reg__
 8907 344c 01F4      		brne .+2
 8908 344e 00C0      		rjmp .L563
 8909               	.LM722:
 8910 3450 3A2C      		mov r3,r10
 8911               	.LVL607:
 8912 3452 CB2C      		mov r12,r11
 8913               	.LVL608:
 8914               	.LM723:
 8915 3454 D401      		movw r26,r8
 8916 3456 1196      		adiw r26,1
 8917 3458 DC90      		ld r13,X
 8918 345a 00C0      		rjmp .L568
 8919               	.L564:
 8920               	.LM724:
 8921 345c F801      		movw r30,r16
 8922 345e 8081      		ld r24,Z
 8923 3460 9181      		ldd r25,Z+1
 8924               	.LM725:
 8925 3462 0097      		sbiw r24,0
 8926 3464 01F4      		brne .+2
 8927 3466 00C0      		rjmp .L563
 8928               	.LM726:
 8929 3468 302E      		mov r3,r16
 8930 346a C12E      		mov r12,r17
 8931               	.LVL609:
 8932 346c 8C01      		movw r16,r24
 8933               	.LVL610:
 8934               	.L568:
 8935               	.LM727:
 8936 346e F801      		movw r30,r16
 8937 3470 8481      		ldd r24,Z+4
 8938 3472 9581      		ldd r25,Z+5
 8939 3474 B301      		movw r22,r6
 8940 3476 4D2D      		mov r20,r13
 8941 3478 50E0      		ldi r21,lo8(0)
 8942 347a 0E94 0000 		call memcmp
 8943 347e 0097      		sbiw r24,0
 8944 3480 01F4      		brne .L564
 8945               	.LM728:
 8946 3482 D801      		movw r26,r16
 8947 3484 1296      		adiw r26,2
 8948 3486 8D91      		ld r24,X+
 8949 3488 9C91      		ld r25,X
 8950 348a 1397      		sbiw r26,2+1
 8951 348c E989      		ldd r30,Y+17
 8952 348e FA89      		ldd r31,Y+18
 8953 3490 8E0F      		add r24,r30
 8954 3492 9F1F      		adc r25,r31
 8955 3494 1296      		adiw r26,2
 8956 3496 8D93      		st X+,r24
 8957 3498 9C93      		st X,r25
 8958 349a 1397      		sbiw r26,2+1
 8959               	.LM729:
 8960 349c 1816      		cp __zero_reg__,r24
 8961 349e 1906      		cpc __zero_reg__,r25
 8962 34a0 04F0      		brlt .+2
 8963 34a2 00C0      		rjmp .L584
 8964               	.L565:
 8965               	.LM730:
 8966 34a4 C701      		movw r24,r14
 8967 34a6 6B89      		ldd r22,Y+19
 8968 34a8 7C89      		ldd r23,Y+20
 8969 34aa 40E0      		ldi r20,lo8(0)
 8970 34ac 0E94 0000 		call aggregate_recalc
 8971 34b0 00C0      		rjmp .L577
 8972               	.LVL611:
 8973               	.L579:
 8974               	.LBE607:
 8975               	.LM731:
 8976 34b2 F601      		movw r30,r12
 8977 34b4 6081      		ld r22,Z
 8978 34b6 7181      		ldd r23,Z+1
 8979 34b8 6050      		subi r22,lo8(-(meld_prog))
 8980 34ba 7040      		sbci r23,hi8(-(meld_prog))
 8981 34bc C301      		movw r24,r6
 8982 34be 4989      		ldd r20,Y+17
 8983 34c0 5A89      		ldd r21,Y+18
 8984 34c2 2B89      		ldd r18,Y+19
 8985 34c4 3C89      		ldd r19,Y+20
 8986 34c6 0E94 0000 		call tuple_process
 8987               	.LM732:
 8988 34ca C301      		movw r24,r6
 8989 34cc 0E94 0000 		call free
 8990 34d0 00C0      		rjmp .L572
 8991               	.LVL612:
 8992               	.L537:
 8993               	.LBB608:
 8994               	.LM733:
 8995 34d2 E989      		ldd r30,Y+17
 8996 34d4 FA89      		ldd r31,Y+18
 8997 34d6 1E16      		cp __zero_reg__,r30
 8998 34d8 1F06      		cpc __zero_reg__,r31
 8999 34da 04F0      		brlt .+2
 9000 34dc 00C0      		rjmp .L577
 9001               	.LBB594:
 9002               	.LM734:
 9003 34de 86E0      		ldi r24,lo8(6)
 9004 34e0 90E0      		ldi r25,hi8(6)
 9005 34e2 0E94 0000 		call malloc
 9006               	.LBB595:
 9007 34e6 DC01      		movw r26,r24
 9008               	.LM735:
 9009 34e8 1496      		adiw r26,4
 9010 34ea 6D92      		st X+,r6
 9011 34ec 7C92      		st X,r7
 9012 34ee 1597      		sbiw r26,4+1
 9013               	.LVL613:
 9014               	.LM736:
 9015 34f0 F989      		ldd r31,Y+17
 9016 34f2 1296      		adiw r26,2
 9017 34f4 FC93      		st X,r31
 9018 34f6 1297      		sbiw r26,2
 9019 34f8 2A89      		ldd r18,Y+18
 9020               	.LVL614:
 9021 34fa 1396      		adiw r26,3
 9022 34fc 2C93      		st X,r18
 9023 34fe 1397      		sbiw r26,3
 9024               	.LM737:
 9025 3500 1D92      		st X+,__zero_reg__
 9026 3502 1C92      		st X,__zero_reg__
 9027 3504 1197      		sbiw r26,1
 9028               	.LBB596:
 9029               	.LBB597:
 9030               	.LM738:
 9031 3506 F601      		movw r30,r12
 9032 3508 8081      		ld r24,Z
 9033 350a 9181      		ldd r25,Z+1
 9034 350c 892B      		or r24,r25
 9035 350e 01F4      		brne .+2
 9036 3510 00C0      		rjmp .L585
 9037               	.LVL615:
 9038               	.LM739:
 9039 3512 F601      		movw r30,r12
 9040 3514 8281      		ldd r24,Z+2
 9041 3516 9381      		ldd r25,Z+3
 9042 3518 FC01      		movw r30,r24
 9043 351a A083      		st Z,r26
 9044 351c B183      		std Z+1,r27
 9045               	.LM740:
 9046 351e F601      		movw r30,r12
 9047 3520 A283      		std Z+2,r26
 9048 3522 B383      		std Z+3,r27
 9049               	.L546:
 9050               	.LBE597:
 9051               	.LBE596:
 9052               	.LBE595:
 9053               	.LBE594:
 9054               	.LM741:
 9055 3524 AE89      		ldd r26,Y+22
 9056 3526 BF89      		ldd r27,Y+23
 9057               	.LVL616:
 9058 3528 EC91      		ld r30,X
 9059 352a F0E0      		ldi r31,lo8(0)
 9060 352c E050      		subi r30,lo8(-(meld_prog))
 9061 352e F040      		sbci r31,hi8(-(meld_prog))
 9062 3530 8281      		ldd r24,Z+2
 9063 3532 82FF      		sbrs r24,2
 9064 3534 00C0      		rjmp .L548
 9065 3536 F501      		movw r30,r10
 9066 3538 EE0F      		lsl r30
 9067 353a FF1F      		rol r31
 9068               	.LVL617:
 9069 353c E987      		std Y+9,r30
 9070 353e FA87      		std Y+10,r31
 9071 3540 E091 0000 		lds r30,delta_sizes
 9072 3544 F091 0000 		lds r31,(delta_sizes)+1
 9073 3548 2985      		ldd r18,Y+9
 9074 354a 3A85      		ldd r19,Y+10
 9075 354c E20F      		add r30,r18
 9076 354e F31F      		adc r31,r19
 9077 3550 0190      		ld __tmp_reg__,Z+
 9078 3552 F081      		ld r31,Z
 9079 3554 E02D      		mov r30,__tmp_reg__
 9080 3556 3097      		sbiw r30,0
 9081 3558 01F4      		brne .+2
 9082 355a 00C0      		rjmp .L548
 9083               	.LBB586:
 9084               	.LBB588:
 9085               	.LM742:
 9086 355c A091 0000 		lds r26,oldTuples
 9087 3560 B091 0000 		lds r27,(oldTuples)+1
 9088 3564 A20F      		add r26,r18
 9089 3566 B31F      		adc r27,r19
 9090 3568 4D90      		ld r4,X+
 9091 356a 5C90      		ld r5,X
 9092 356c 1197      		sbiw r26,1
 9093               	.LVL618:
 9094               	.LM743:
 9095 356e 4114      		cp r4,__zero_reg__
 9096 3570 5104      		cpc r5,__zero_reg__
 9097 3572 01F4      		brne .+2
 9098 3574 00C0      		rjmp .L548
 9099               	.LM744:
 9100 3576 1D92      		st X+,__zero_reg__
 9101 3578 1C92      		st X,__zero_reg__
 9102               	.LM745:
 9103 357a 1E16      		cp __zero_reg__,r30
 9104 357c 1F06      		cpc __zero_reg__,r31
 9105 357e 04F0      		brlt .+2
 9106 3580 00C0      		rjmp .L552
 9107 3582 2224      		clr r2
 9108 3584 3324      		clr r3
 9109               	.LVL619:
 9110 3586 A1E0      		ldi r26,lo8(1)
 9111 3588 B0E0      		ldi r27,hi8(1)
 9112 358a AD87      		std Y+13,r26
 9113 358c BE87      		std Y+14,r27
 9114 358e 2985      		ldd r18,Y+9
 9115 3590 3A85      		ldd r19,Y+10
 9116 3592 00C0      		rjmp .L558
 9117               	.LVL620:
 9118               	.L555:
 9119               	.LBB590:
 9120               	.LM746:
 9121 3594 8081      		ld r24,Z
 9122 3596 9181      		ldd r25,Z+1
 9123 3598 A281      		ldd r26,Z+2
 9124 359a B381      		ldd r27,Z+3
 9125 359c FA01      		movw r30,r20
 9126               	.LVL621:
 9127 359e 2081      		ld r18,Z
 9128 35a0 3181      		ldd r19,Z+1
 9129 35a2 4281      		ldd r20,Z+2
 9130 35a4 5381      		ldd r21,Z+3
 9131 35a6 821B      		sub r24,r18
 9132 35a8 930B      		sbc r25,r19
 9133 35aa A40B      		sbc r26,r20
 9134 35ac B50B      		sbc r27,r21
 9135 35ae F801      		movw r30,r16
 9136 35b0 8083      		st Z,r24
 9137 35b2 9183      		std Z+1,r25
 9138 35b4 A283      		std Z+2,r26
 9139 35b6 B383      		std Z+3,r27
 9140               	.L557:
 9141               	.LM747:
 9142 35b8 D501      		movw r26,r10
 9143 35ba EC91      		ld r30,X
 9144 35bc F0E0      		ldi r31,lo8(0)
 9145               	.LVL622:
 9146 35be E050      		subi r30,lo8(-(meld_prog))
 9147 35c0 F040      		sbci r31,hi8(-(meld_prog))
 9148 35c2 E181      		ldd r30,Z+1
 9149 35c4 F0E0      		ldi r31,lo8(0)
 9150 35c6 E050      		subi r30,lo8(-(meld_prog))
 9151 35c8 F040      		sbci r31,hi8(-(meld_prog))
 9152 35ca 6081      		ld r22,Z
 9153 35cc 7181      		ldd r23,Z+1
 9154 35ce 6050      		subi r22,lo8(-(meld_prog))
 9155 35d0 7040      		sbci r23,hi8(-(meld_prog))
 9156 35d2 C501      		movw r24,r10
 9157 35d4 41E0      		ldi r20,lo8(1)
 9158 35d6 50E0      		ldi r21,hi8(1)
 9159               	.LVL623:
 9160 35d8 2B89      		ldd r18,Y+19
 9161 35da 3C89      		ldd r19,Y+20
 9162 35dc 0E94 0000 		call tuple_process
 9163               	.LVL624:
 9164               	.LBE590:
 9165               	.LM748:
 9166 35e0 0894      		sec
 9167 35e2 211C      		adc r2,__zero_reg__
 9168 35e4 311C      		adc r3,__zero_reg__
 9169 35e6 ED85      		ldd r30,Y+13
 9170 35e8 FE85      		ldd r31,Y+14
 9171 35ea 3296      		adiw r30,2
 9172 35ec ED87      		std Y+13,r30
 9173 35ee FE87      		std Y+14,r31
 9174 35f0 E091 0000 		lds r30,delta_sizes
 9175 35f4 F091 0000 		lds r31,(delta_sizes)+1
 9176 35f8 2985      		ldd r18,Y+9
 9177 35fa 3A85      		ldd r19,Y+10
 9178 35fc E20F      		add r30,r18
 9179 35fe F31F      		adc r31,r19
 9180 3600 8081      		ld r24,Z
 9181 3602 9181      		ldd r25,Z+1
 9182 3604 2816      		cp r2,r24
 9183 3606 3906      		cpc r3,r25
 9184 3608 04F0      		brlt .+2
 9185 360a 00C0      		rjmp .L552
 9186               	.LVL625:
 9187               	.L558:
 9188               	.LBB591:
 9189               	.LM749:
 9190 360c E091 0000 		lds r30,deltas
 9191 3610 F091 0000 		lds r31,(deltas)+1
 9192 3614 E20F      		add r30,r18
 9193 3616 F31F      		adc r31,r19
 9194 3618 A081      		ld r26,Z
 9195 361a B181      		ldd r27,Z+1
 9196 361c F101      		movw r30,r2
 9197 361e EE0F      		lsl r30
 9198 3620 FF1F      		rol r31
 9199               	.LVL626:
 9200 3622 EA0F      		add r30,r26
 9201 3624 FB1F      		adc r31,r27
 9202 3626 D080      		ld r13,Z
 9203               	.LVL627:
 9204               	.LM750:
 9205 3628 8D85      		ldd r24,Y+13
 9206 362a 9E85      		ldd r25,Y+14
 9207 362c A80F      		add r26,r24
 9208 362e B91F      		adc r27,r25
 9209 3630 AC91      		ld r26,X
 9210 3632 8A2E      		mov r8,r26
 9211               	.LVL628:
 9212 3634 9924      		clr r9
 9213               	.LM751:
 9214 3636 0D2D      		mov r16,r13
 9215               	.LVL629:
 9216 3638 10E0      		ldi r17,lo8(0)
 9217 363a 000F      		lsl r16
 9218 363c 111F      		rol r17
 9219 363e 7801      		movw r14,r16
 9220 3640 0894      		sec
 9221 3642 E11C      		adc r14,__zero_reg__
 9222 3644 F11C      		adc r15,__zero_reg__
 9223               	.LBE591:
 9224               	.LBE588:
 9225 3646 E091 0000 		lds r30,arguments
 9226 364a F091 0000 		lds r31,(arguments)+1
 9227 364e EE0D      		add r30,r14
 9228 3650 FF1D      		adc r31,r15
 9229 3652 8081      		ld r24,Z
 9230 3654 90E0      		ldi r25,lo8(0)
 9231 3656 0E94 0000 		call malloc
 9232 365a 5C01      		movw r10,r24
 9233               	.LVL630:
 9234               	.LBB587:
 9235               	.LBB589:
 9236               	.LM752:
 9237 365c E091 0000 		lds r30,arguments
 9238 3660 F091 0000 		lds r31,(arguments)+1
 9239 3664 EE0D      		add r30,r14
 9240 3666 FF1D      		adc r31,r15
 9241 3668 4081      		ld r20,Z
 9242 366a B201      		movw r22,r4
 9243               	.LVL631:
 9244 366c 50E0      		ldi r21,lo8(0)
 9245 366e 0E94 0000 		call memcpy
 9246               	.LM753:
 9247 3672 D501      		movw r26,r10
 9248               	.LVL632:
 9249 3674 DC92      		st X,r13
 9250               	.LM754:
 9251 3676 2091 0000 		lds r18,arguments
 9252 367a 3091 0000 		lds r19,(arguments)+1
 9253 367e D401      		movw r26,r8
 9254 3680 AA0F      		lsl r26
 9255 3682 BB1F      		rol r27
 9256 3684 020F      		add r16,r18
 9257 3686 131F      		adc r17,r19
 9258 3688 F801      		movw r30,r16
 9259 368a 8081      		ld r24,Z
 9260 368c A20F      		add r26,r18
 9261 368e B31F      		adc r27,r19
 9262 3690 FD01      		movw r30,r26
 9263 3692 E80F      		add r30,r24
 9264 3694 F11D      		adc r31,__zero_reg__
 9265 3696 8181      		ldd r24,Z+1
 9266 3698 082F      		mov r16,r24
 9267               	.LVL633:
 9268 369a 10E0      		ldi r17,lo8(0)
 9269               	.LVL634:
 9270 369c 0F5F      		subi r16,lo8(-(1))
 9271 369e 1F4F      		sbci r17,hi8(-(1))
 9272               	.LVL635:
 9273 36a0 0A0D      		add r16,r10
 9274 36a2 1B1D      		adc r17,r11
 9275               	.LM755:
 9276 36a4 F201      		movw r30,r4
 9277               	.LVL636:
 9278 36a6 8081      		ld r24,Z
 9279 36a8 E82F      		mov r30,r24
 9280 36aa F0E0      		ldi r31,lo8(0)
 9281 36ac EE0F      		lsl r30
 9282 36ae FF1F      		rol r31
 9283 36b0 E20F      		add r30,r18
 9284 36b2 F31F      		adc r31,r19
 9285 36b4 8081      		ld r24,Z
 9286 36b6 FD01      		movw r30,r26
 9287 36b8 E80F      		add r30,r24
 9288 36ba F11D      		adc r31,__zero_reg__
 9289 36bc 8181      		ldd r24,Z+1
 9290 36be 482F      		mov r20,r24
 9291               	.LVL637:
 9292 36c0 50E0      		ldi r21,lo8(0)
 9293               	.LVL638:
 9294 36c2 4F5F      		subi r20,lo8(-(1))
 9295 36c4 5F4F      		sbci r21,hi8(-(1))
 9296               	.LVL639:
 9297 36c6 440D      		add r20,r4
 9298 36c8 551D      		adc r21,r5
 9299               	.LM756:
 9300 36ca F301      		movw r30,r6
 9301 36cc 8081      		ld r24,Z
 9302 36ce 90E0      		ldi r25,lo8(0)
 9303 36d0 880F      		lsl r24
 9304 36d2 991F      		rol r25
 9305 36d4 280F      		add r18,r24
 9306 36d6 391F      		adc r19,r25
 9307 36d8 F901      		movw r30,r18
 9308 36da 8081      		ld r24,Z
 9309 36dc A80F      		add r26,r24
 9310 36de B11D      		adc r27,__zero_reg__
 9311 36e0 1196      		adiw r26,1
 9312 36e2 8C91      		ld r24,X
 9313 36e4 E82F      		mov r30,r24
 9314               	.LVL640:
 9315 36e6 F0E0      		ldi r31,lo8(0)
 9316               	.LVL641:
 9317 36e8 3196      		adiw r30,1
 9318               	.LVL642:
 9319 36ea E60D      		add r30,r6
 9320 36ec F71D      		adc r31,r7
 9321               	.LM757:
 9322 36ee AE89      		ldd r26,Y+22
 9323 36f0 BF89      		ldd r27,Y+23
 9324 36f2 8C91      		ld r24,X
 9325 36f4 20E0      		ldi r18,lo8(meld_prog)
 9326 36f6 30E0      		ldi r19,hi8(meld_prog)
 9327 36f8 820E      		add r8,r18
 9328 36fa 931E      		adc r9,r19
 9329               	.LVL643:
 9330 36fc 880E      		add r8,r24
 9331 36fe 911C      		adc r9,__zero_reg__
 9332 3700 D401      		movw r26,r8
 9333 3702 1796      		adiw r26,7
 9334 3704 8C91      		ld r24,X
 9335 3706 8823      		tst r24
 9336 3708 01F4      		brne .+2
 9337 370a 00C0      		rjmp .L555
 9338 370c 8130      		cpi r24,lo8(1)
 9339 370e 01F4      		brne .+2
 9340 3710 00C0      		rjmp .L586
 9341               	.LM758:
 9342 3712 80E0      		ldi r24,lo8(.LC19)
 9343 3714 90E0      		ldi r25,hi8(.LC19)
 9344 3716 6CE5      		ldi r22,lo8(860)
 9345 3718 73E0      		ldi r23,hi8(860)
 9346 371a 40E0      		ldi r20,lo8(.LC20)
 9347 371c 50E0      		ldi r21,hi8(.LC20)
 9348               	.LVL644:
 9349 371e 0E94 0000 		call __myassert
 9350               	.LVL645:
 9351 3722 00C0      		rjmp .L557
 9352               	.LVL646:
 9353               	.L552:
 9354               	.LBE589:
 9355               	.LM759:
 9356 3724 C201      		movw r24,r4
 9357 3726 0E94 0000 		call free
 9358               	.LVL647:
 9359               	.L548:
 9360               	.LBE587:
 9361               	.LBE586:
 9362               	.LM760:
 9363 372a D301      		movw r26,r6
 9364 372c EC91      		ld r30,X
 9365 372e F0E0      		ldi r31,lo8(0)
 9366 3730 E050      		subi r30,lo8(-(meld_prog))
 9367 3732 F040      		sbci r31,hi8(-(meld_prog))
 9368 3734 E181      		ldd r30,Z+1
 9369 3736 F0E0      		ldi r31,lo8(0)
 9370 3738 E050      		subi r30,lo8(-(meld_prog))
 9371 373a F040      		sbci r31,hi8(-(meld_prog))
 9372 373c 6081      		ld r22,Z
 9373 373e 7181      		ldd r23,Z+1
 9374               	.LVL648:
 9375               	.L578:
 9376               	.LBE608:
 9377               	.LM761:
 9378 3740 6050      		subi r22,lo8(-(meld_prog))
 9379 3742 7040      		sbci r23,hi8(-(meld_prog))
 9380 3744 C301      		movw r24,r6
 9381 3746 4989      		ldd r20,Y+17
 9382 3748 5A89      		ldd r21,Y+18
 9383 374a 2B89      		ldd r18,Y+19
 9384 374c 3C89      		ldd r19,Y+20
 9385 374e 0E94 0000 		call tuple_process
 9386 3752 00C0      		rjmp .L572
 9387               	.LVL649:
 9388               	.L582:
 9389 3754 4D90      		ld r4,X+
 9390 3756 5C90      		ld r5,X
 9391               	.LVL650:
 9392               	.L529:
 9393               	.LBB609:
 9394               	.LM762:
 9395 3758 D401      		movw r26,r8
 9396 375a 1496      		adiw r26,4
 9397 375c 8D91      		ld r24,X+
 9398 375e 9C91      		ld r25,X
 9399 3760 1597      		sbiw r26,4+1
 9400 3762 8C15      		cp r24,r12
 9401 3764 9D05      		cpc r25,r13
 9402 3766 01F4      		brne .+2
 9403 3768 00C0      		rjmp .L587
 9404               	.L532:
 9405               	.LM763:
 9406 376a 8A9D      		mul r24,r10
 9407 376c 9001      		movw r18,r0
 9408 376e 8B9D      		mul r24,r11
 9409 3770 300D      		add r19,r0
 9410 3772 9A9D      		mul r25,r10
 9411 3774 300D      		add r19,r0
 9412 3776 1124      		clr r1
 9413 3778 240D      		add r18,r4
 9414 377a 351D      		adc r19,r5
 9415 377c C901      		movw r24,r18
 9416 377e B301      		movw r22,r6
 9417               	.LVL651:
 9418 3780 A501      		movw r20,r10
 9419               	.LVL652:
 9420 3782 0E94 0000 		call memcpy
 9421               	.LM764:
 9422 3786 D401      		movw r26,r8
 9423 3788 1496      		adiw r26,4
 9424 378a 8D91      		ld r24,X+
 9425 378c 9C91      		ld r25,X
 9426 378e 1597      		sbiw r26,4+1
 9427 3790 0196      		adiw r24,1
 9428 3792 1496      		adiw r26,4
 9429 3794 8D93      		st X+,r24
 9430 3796 9C93      		st X,r25
 9431 3798 1597      		sbiw r26,4+1
 9432               	.LM765:
 9433 379a AE89      		ldd r26,Y+22
 9434 379c BF89      		ldd r27,Y+23
 9435 379e EC91      		ld r30,X
 9436 37a0 F0E0      		ldi r31,lo8(0)
 9437 37a2 E050      		subi r30,lo8(-(meld_prog))
 9438 37a4 F040      		sbci r31,hi8(-(meld_prog))
 9439 37a6 6081      		ld r22,Z
 9440 37a8 7181      		ldd r23,Z+1
 9441 37aa 00C0      		rjmp .L578
 9442               	.LVL653:
 9443               	.L559:
 9444               	.LBE609:
 9445               	.LM766:
 9446 37ac E989      		ldd r30,Y+17
 9447 37ae FA89      		ldd r31,Y+18
 9448 37b0 1E16      		cp __zero_reg__,r30
 9449 37b2 1F06      		cpc __zero_reg__,r31
 9450 37b4 04F0      		brlt .+2
 9451 37b6 00C0      		rjmp .L577
 9452               	.LM767:
 9453 37b8 8501      		movw r16,r10
 9454               	.LVL654:
 9455 37ba 000F      		lsl r16
 9456 37bc 111F      		rol r17
 9457 37be 0F5F      		subi r16,lo8(-(1))
 9458 37c0 1F4F      		sbci r17,hi8(-(1))
 9459 37c2 E091 0000 		lds r30,arguments
 9460 37c6 F091 0000 		lds r31,(arguments)+1
 9461 37ca E00F      		add r30,r16
 9462 37cc F11F      		adc r31,r17
 9463 37ce 8081      		ld r24,Z
 9464 37d0 90E0      		ldi r25,lo8(0)
 9465 37d2 0E94 0000 		call malloc
 9466 37d6 F82E      		mov r15,r24
 9467 37d8 E92E      		mov r14,r25
 9468               	.LM768:
 9469 37da E091 0000 		lds r30,arguments
 9470 37de F091 0000 		lds r31,(arguments)+1
 9471 37e2 E00F      		add r30,r16
 9472 37e4 F11F      		adc r31,r17
 9473 37e6 4081      		ld r20,Z
 9474 37e8 B301      		movw r22,r6
 9475               	.LVL655:
 9476 37ea 50E0      		ldi r21,lo8(0)
 9477 37ec 0E94 0000 		call memcpy
 9478               	.LM769:
 9479 37f0 84E0      		ldi r24,lo8(4)
 9480 37f2 90E0      		ldi r25,hi8(4)
 9481 37f4 0E94 0000 		call malloc
 9482 37f8 8C01      		movw r16,r24
 9483               	.LBB610:
 9484               	.LBB611:
 9485               	.LM770:
 9486 37fa DC01      		movw r26,r24
 9487               	.LVL656:
 9488 37fc 1296      		adiw r26,2
 9489 37fe 1D92      		st X+,__zero_reg__
 9490 3800 1C92      		st X,__zero_reg__
 9491 3802 1397      		sbiw r26,2+1
 9492 3804 1D92      		st X+,__zero_reg__
 9493 3806 1C92      		st X,__zero_reg__
 9494               	.LBE611:
 9495               	.LBE610:
 9496               	.LM771:
 9497 3808 B301      		movw r22,r6
 9498               	.LVL657:
 9499 380a 4989      		ldd r20,Y+17
 9500 380c 5A89      		ldd r21,Y+18
 9501 380e 0E94 0000 		call queue_enqueue
 9502               	.LVL658:
 9503               	.LM772:
 9504 3812 8091 0000 		lds r24,tuples
 9505 3816 9091 0000 		lds r25,(tuples)+1
 9506 381a EB85      		ldd r30,Y+11
 9507 381c FC85      		ldd r31,Y+12
 9508 381e 8E0F      		add r24,r30
 9509 3820 9F1F      		adc r25,r31
 9510 3822 6F2D      		mov r22,r15
 9511 3824 7E2D      		mov r23,r14
 9512 3826 A801      		movw r20,r16
 9513               	.LVL659:
 9514 3828 0E94 0000 		call queue_enqueue
 9515               	.LM773:
 9516 382c 6B89      		ldd r22,Y+19
 9517 382e 7C89      		ldd r23,Y+20
 9518 3830 41E0      		ldi r20,lo8(1)
 9519 3832 0E94 0000 		call aggregate_recalc
 9520               	.LM774:
 9521 3836 D601      		movw r26,r12
 9522 3838 6D91      		ld r22,X+
 9523 383a 7C91      		ld r23,X
 9524 383c 00C0      		rjmp .L578
 9525               	.LVL660:
 9526               	.L581:
 9527               	.LBB612:
 9528               	.LM775:
 9529 383e D301      		movw r26,r6
 9530 3840 EC91      		ld r30,X
 9531 3842 F0E0      		ldi r31,lo8(0)
 9532 3844 E050      		subi r30,lo8(-(meld_prog))
 9533 3846 F040      		sbci r31,hi8(-(meld_prog))
 9534 3848 E181      		ldd r30,Z+1
 9535 384a F0E0      		ldi r31,lo8(0)
 9536 384c E050      		subi r30,lo8(-(meld_prog))
 9537 384e F040      		sbci r31,hi8(-(meld_prog))
 9538 3850 6081      		ld r22,Z
 9539 3852 7181      		ldd r23,Z+1
 9540 3854 6050      		subi r22,lo8(-(meld_prog))
 9541 3856 7040      		sbci r23,hi8(-(meld_prog))
 9542 3858 C301      		movw r24,r6
 9543 385a 4FEF      		ldi r20,lo8(-1)
 9544 385c 5FEF      		ldi r21,hi8(-1)
 9545 385e 2B89      		ldd r18,Y+19
 9546 3860 3C89      		ldd r19,Y+20
 9547 3862 0E94 0000 		call tuple_process
 9548               	.L541:
 9549               	.LM776:
 9550 3866 C601      		movw r24,r12
 9551 3868 602F      		mov r22,r16
 9552 386a 752D      		mov r23,r5
 9553 386c 0E94 0000 		call queue_dequeue_pos
 9554 3870 0E94 0000 		call free
 9555 3874 00C0      		rjmp .L577
 9556               	.LVL661:
 9557               	.L583:
 9558               	.LBE612:
 9559               	.LBB613:
 9560               	.LM777:
 9561 3876 E989      		ldd r30,Y+17
 9562 3878 FA89      		ldd r31,Y+18
 9563 387a 1E16      		cp __zero_reg__,r30
 9564 387c 1F06      		cpc __zero_reg__,r31
 9565 387e 04F0      		brlt .+2
 9566 3880 00C0      		rjmp .L561
 9567 3882 D501      		movw r26,r10
 9568 3884 8D91      		ld r24,X+
 9569 3886 9C91      		ld r25,X
 9570 3888 892B      		or r24,r25
 9571 388a 01F0      		breq .+2
 9572 388c 00C0      		rjmp .L577
 9573               	.LVL662:
 9574               	.L562:
 9575               	.LM778:
 9576 388e C501      		movw r24,r10
 9577 3890 B301      		movw r22,r6
 9578 3892 4989      		ldd r20,Y+17
 9579 3894 5A89      		ldd r21,Y+18
 9580 3896 0E94 0000 		call queue_enqueue
 9581               	.LM779:
 9582 389a C701      		movw r24,r14
 9583 389c 6B89      		ldd r22,Y+19
 9584 389e 7C89      		ldd r23,Y+20
 9585 38a0 40E0      		ldi r20,lo8(0)
 9586 38a2 0E94 0000 		call aggregate_recalc
 9587 38a6 00C0      		rjmp .L572
 9588               	.LVL663:
 9589               	.L586:
 9590               	.LBE613:
 9591               	.LBB614:
 9592               	.LBB585:
 9593               	.LBB593:
 9594               	.LBB592:
 9595               	.LM780:
 9596 38a8 6081      		ld r22,Z
 9597 38aa 7181      		ldd r23,Z+1
 9598 38ac 8281      		ldd r24,Z+2
 9599 38ae 9381      		ldd r25,Z+3
 9600 38b0 DA01      		movw r26,r20
 9601 38b2 2D91      		ld r18,X+
 9602 38b4 3D91      		ld r19,X+
 9603 38b6 4D91      		ld r20,X+
 9604 38b8 5C91      		ld r21,X
 9605 38ba 0E94 0000 		call __subsf3
 9606               	.LVL664:
 9607 38be F801      		movw r30,r16
 9608 38c0 6083      		st Z,r22
 9609 38c2 7183      		std Z+1,r23
 9610 38c4 8283      		std Z+2,r24
 9611 38c6 9383      		std Z+3,r25
 9612 38c8 00C0      		rjmp .L557
 9613               	.LVL665:
 9614               	.L587:
 9615               	.LBE592:
 9616               	.LBE593:
 9617               	.LBE585:
 9618               	.LBE614:
 9619               	.LBB615:
 9620               	.LM781:
 9621 38ca C114      		cp r12,__zero_reg__
 9622 38cc D104      		cpc r13,__zero_reg__
 9623 38ce 01F4      		brne .L533
 9624               	.LM782:
 9625 38d0 82E0      		ldi r24,lo8(2)
 9626 38d2 90E0      		ldi r25,hi8(2)
 9627 38d4 1296      		adiw r26,2
 9628 38d6 8D93      		st X+,r24
 9629 38d8 9C93      		st X,r25
 9630 38da 1397      		sbiw r26,2+1
 9631               	.L534:
 9632               	.LM783:
 9633 38dc D401      		movw r26,r8
 9634 38de 1296      		adiw r26,2
 9635 38e0 8D91      		ld r24,X+
 9636 38e2 9C91      		ld r25,X
 9637 38e4 1397      		sbiw r26,2+1
 9638 38e6 A89E      		mul r10,r24
 9639 38e8 B001      		movw r22,r0
 9640 38ea A99E      		mul r10,r25
 9641 38ec 700D      		add r23,r0
 9642 38ee B89E      		mul r11,r24
 9643 38f0 700D      		add r23,r0
 9644 38f2 1124      		clr r1
 9645 38f4 C201      		movw r24,r4
 9646 38f6 0E94 0000 		call realloc
 9647 38fa F401      		movw r30,r8
 9648 38fc 8083      		st Z,r24
 9649 38fe 9183      		std Z+1,r25
 9650 3900 8481      		ldd r24,Z+4
 9651 3902 9581      		ldd r25,Z+5
 9652 3904 4080      		ld r4,Z
 9653 3906 5180      		ldd r5,Z+1
 9654 3908 00C0      		rjmp .L532
 9655               	.LVL666:
 9656               	.L563:
 9657               	.LBE615:
 9658               	.LBB616:
 9659               	.LM784:
 9660 390a 2989      		ldd r18,Y+17
 9661 390c 3A89      		ldd r19,Y+18
 9662 390e 1216      		cp __zero_reg__,r18
 9663 3910 1306      		cpc __zero_reg__,r19
 9664 3912 04F4      		brge .+2
 9665 3914 00C0      		rjmp .L562
 9666 3916 00C0      		rjmp .L577
 9667               	.LVL667:
 9668               	.L585:
 9669               	.LBE616:
 9670               	.LBB617:
 9671               	.LBB601:
 9672               	.LBB600:
 9673               	.LBB599:
 9674               	.LBB598:
 9675               	.LM785:
 9676 3918 A283      		std Z+2,r26
 9677 391a B383      		std Z+3,r27
 9678 391c A083      		st Z,r26
 9679 391e B183      		std Z+1,r27
 9680 3920 00C0      		rjmp .L546
 9681               	.LVL668:
 9682               	.L533:
 9683               	.LBE598:
 9684               	.LBE599:
 9685               	.LBE600:
 9686               	.LBE601:
 9687               	.LBE617:
 9688               	.LBB618:
 9689               	.LM786:
 9690 3922 CC0C      		lsl r12
 9691 3924 DD1C      		rol r13
 9692 3926 F401      		movw r30,r8
 9693 3928 C282      		std Z+2,r12
 9694 392a D382      		std Z+3,r13
 9695 392c 00C0      		rjmp .L534
 9696               	.LVL669:
 9697               	.L584:
 9698               	.LBE618:
 9699               	.LBB619:
 9700               	.LM787:
 9701 392e C501      		movw r24,r10
 9702 3930 632D      		mov r22,r3
 9703 3932 7C2D      		mov r23,r12
 9704 3934 0E94 0000 		call queue_dequeue_pos
 9705 3938 0E94 0000 		call free
 9706               	.LM788:
 9707 393c D501      		movw r26,r10
 9708 393e 8D91      		ld r24,X+
 9709 3940 9C91      		ld r25,X
 9710 3942 892B      		or r24,r25
 9711 3944 01F0      		breq .+2
 9712 3946 00C0      		rjmp .L565
 9713               	.LBB606:
 9714               	.LM789:
 9715 3948 C201      		movw r24,r4
 9716 394a 6D89      		ldd r22,Y+21
 9717 394c 722D      		mov r23,r2
 9718 394e 0E94 0000 		call queue_dequeue_pos
 9719 3952 8C01      		movw r16,r24
 9720               	.LVL670:
 9721               	.LM790:
 9722 3954 C501      		movw r24,r10
 9723 3956 0E94 0000 		call free
 9724               	.LM791:
 9725 395a D801      		movw r26,r16
 9726 395c EC91      		ld r30,X
 9727 395e F0E0      		ldi r31,lo8(0)
 9728 3960 E050      		subi r30,lo8(-(meld_prog))
 9729 3962 F040      		sbci r31,hi8(-(meld_prog))
 9730 3964 E181      		ldd r30,Z+1
 9731 3966 F0E0      		ldi r31,lo8(0)
 9732 3968 E050      		subi r30,lo8(-(meld_prog))
 9733 396a F040      		sbci r31,hi8(-(meld_prog))
 9734 396c 6081      		ld r22,Z
 9735 396e 7181      		ldd r23,Z+1
 9736 3970 6050      		subi r22,lo8(-(meld_prog))
 9737 3972 7040      		sbci r23,hi8(-(meld_prog))
 9738 3974 C801      		movw r24,r16
 9739 3976 4FEF      		ldi r20,lo8(-1)
 9740 3978 5FEF      		ldi r21,hi8(-1)
 9741 397a 2B89      		ldd r18,Y+19
 9742 397c 3C89      		ldd r19,Y+20
 9743 397e 0E94 0000 		call tuple_process
 9744               	.LM792:
 9745 3982 C801      		movw r24,r16
 9746 3984 6F85      		ldd r22,Y+15
 9747 3986 4889      		ldd r20,Y+16
 9748 3988 0E94 0000 		call aggregate_free
 9749               	.LM793:
 9750 398c C801      		movw r24,r16
 9751 398e 0E94 0000 		call free
 9752 3992 00C0      		rjmp .L577
 9753               	.LVL671:
 9754               	.L527:
 9755               	.LBE606:
 9756               	.LBE619:
 9757               	.LBB620:
 9758               	.LM794:
 9759 3994 2091 0000 		lds r18,__iob+4
 9760 3998 3091 0000 		lds r19,(__iob+4)+1
 9761 399c 80E0      		ldi r24,lo8(.LC34)
 9762 399e 90E0      		ldi r25,hi8(.LC34)
 9763 39a0 61E0      		ldi r22,lo8(1)
 9764 39a2 70E0      		ldi r23,hi8(1)
 9765 39a4 48E2      		ldi r20,lo8(40)
 9766 39a6 50E0      		ldi r21,hi8(40)
 9767 39a8 0E94 0000 		call fwrite
 9768               	.LM795:
 9769 39ac 8FEF      		ldi r24,lo8(-1)
 9770 39ae 9FEF      		ldi r25,hi8(-1)
 9771 39b0 0E94 0000 		call exit
 9772               	.LBE620:
 9773               	.LFE43:
 9775               	.global	delta_sizes
 9776               	.global	delta_sizes
 9777               		.section .bss
 9780               	delta_sizes:
 9781 0000 0000      		.skip 2,0
 9782               	.global	arguments
 9783               	.global	arguments
 9786               	arguments:
 9787 0002 0000      		.skip 2,0
 9788               	.global	TYPE_EDGE
 9789               		.data
 9792               	TYPE_EDGE:
 9793 024e FFFF      		.word	-1
 9794               	.global	TYPE_INIT
 9797               	TYPE_INIT:
 9798 0250 FFFF      		.word	-1
 9799               	.global	TYPE_COLOCATED
 9802               	TYPE_COLOCATED:
 9803 0252 FFFF      		.word	-1
 9804               	.global	TYPE_PROVED
 9807               	TYPE_PROVED:
 9808 0254 FFFF      		.word	-1
 9809               	.global	TYPE_TERMINATE
 9812               	TYPE_TERMINATE:
 9813 0256 FFFF      		.word	-1
 9814               		.lcomm deltas,2
 9815               		.lcomm type,2
 9992               	.Letext0:
DEFINED SYMBOLS
                            *ABS*:00000000 core.c
     /tmp/ccNdyzCk.s:2      *ABS*:0000003f __SREG__
     /tmp/ccNdyzCk.s:3      *ABS*:0000003e __SP_H__
     /tmp/ccNdyzCk.s:4      *ABS*:0000003d __SP_L__
     /tmp/ccNdyzCk.s:5      *ABS*:00000034 __CCP__
     /tmp/ccNdyzCk.s:6      *ABS*:00000000 __tmp_reg__
     /tmp/ccNdyzCk.s:7      *ABS*:00000001 __zero_reg__
     /tmp/ccNdyzCk.s:20     .text:00000000 queue_is_empty
     /tmp/ccNdyzCk.s:44     .text:00000012 queue_push_tuple
     /tmp/ccNdyzCk.s:84     .text:00000042 queue_pop_tuple
     /tmp/ccNdyzCk.s:130    .text:0000006c p_dequeue
     /tmp/ccNdyzCk.s:162    .text:00000084 queue_length
     /tmp/ccNdyzCk.s:225    .text:000000ac print_program_info
     /tmp/ccNdyzCk.s:9786   .bss:00000002 arguments
     /tmp/ccNdyzCk.s:605    .text:0000032e tuple_print
     /tmp/ccNdyzCk.s:1094   .text:0000069c facts_dump
     /tmp/ccNdyzCk.s:1278   .text:000007f8 init_fields
     /tmp/ccNdyzCk.s:9814   .bss:00000006 type
     /tmp/ccNdyzCk.s:1521   .text:00000978 init_deltas
                             .bss:00000004 deltas
     /tmp/ccNdyzCk.s:9780   .bss:00000000 delta_sizes
     /tmp/ccNdyzCk.s:1624   .text:00000a2c p_enqueue
     /tmp/ccNdyzCk.s:1757   .text:00000ad8 queue_enqueue
     /tmp/ccNdyzCk.s:1852   .text:00000b46 queue_dequeue_pos
     /tmp/ccNdyzCk.s:1927   .text:00000b98 queue_dequeue
     /tmp/ccNdyzCk.s:2012   .text:00000bea advance
     /tmp/ccNdyzCk.s:2670   .text:00000f8c aggregate_free
     /tmp/ccNdyzCk.s:2797   .text:00001030 init_consts
     /tmp/ccNdyzCk.s:9797   .data:00000250 TYPE_INIT
     /tmp/ccNdyzCk.s:9792   .data:0000024e TYPE_EDGE
     /tmp/ccNdyzCk.s:9802   .data:00000252 TYPE_COLOCATED
     /tmp/ccNdyzCk.s:9807   .data:00000254 TYPE_PROVED
     /tmp/ccNdyzCk.s:9812   .data:00000256 TYPE_TERMINATE
     /tmp/ccNdyzCk.s:2930   .text:0000110a tuple_process
     /tmp/ccNdyzCk.s:6685   .text:0000271a aggregate_recalc
     /tmp/ccNdyzCk.s:8264   .text:00003030 tuple_do_handle

UNDEFINED SYMBOLS
__do_copy_data
__do_clear_bss
meld_prog
tuple_names
printf
putchar
fprintf
fwrite
__myassert
fputs
fputc
tuples
__iob
malloc
free
exit
extern_functs_args
set_delete
list_delete
strcmp
blockId
random
__divmodsi4
memcmp
memcpy
tuple_handle
tuple_send
persistent
memset
extern_functs
__nesf2
__eqsf2
__ltsf2
__lesf2
__gtsf2
__gesf2
fmod
__addsf3
__subsf3
__mulsf3
__mulsi3
__divsf3
set_int_insert
set_print
__floatsisf
set_float_insert
list_float_create
list_float_push_tail
set_int_create
list_equal
set_float_create
list_int_create
list_int_push_tail
set_equal
proved
oldTuples
enqueueNewTuple
realloc
