   1               		.file	"core.c"
   2               	__SREG__ = 0x3f
   3               	__SP_H__ = 0x3e
   4               	__SP_L__ = 0x3d
   5               	__CCP__  = 0x34
   6               	__tmp_reg__ = 0
   7               	__zero_reg__ = 1
   8               		.global __do_copy_data
   9               		.global __do_clear_bss
  17               	.Ltext0:
  18               	.global	queue_is_empty
  20               	queue_is_empty:
  21               	.LFB22:
  22               	.LM1:
  23               	.LVL0:
  24               	/* prologue: function */
  25               	/* frame size = 0 */
  26 0000 FC01      		movw r30,r24
  27               	.LM2:
  28 0002 20E0      		ldi r18,lo8(0)
  29 0004 8081      		ld r24,Z
  30 0006 9181      		ldd r25,Z+1
  31               	.LVL1:
  32 0008 892B      		or r24,r25
  33 000a 01F4      		brne .L2
  34 000c 21E0      		ldi r18,lo8(1)
  35               	.L2:
  36               	.LM3:
  37 000e 822F      		mov r24,r18
  38               	/* epilogue start */
  39 0010 0895      		ret
  40               	.LFE22:
  42               	.global	queue_push_tuple
  44               	queue_push_tuple:
  45               	.LFB23:
  46               	.LM4:
  47               	.LVL2:
  48               	/* prologue: function */
  49               	/* frame size = 0 */
  50 0012 DC01      		movw r26,r24
  51               	.LM5:
  52 0014 8D91      		ld r24,X+
  53 0016 9C91      		ld r25,X
  54 0018 1197      		sbiw r26,1
  55               	.LVL3:
  56 001a 892B      		or r24,r25
  57 001c 01F4      		brne .L5
  58               	.LM6:
  59 001e 1296      		adiw r26,2
  60 0020 6D93      		st X+,r22
  61 0022 7C93      		st X,r23
  62 0024 1397      		sbiw r26,2+1
  63 0026 6D93      		st X+,r22
  64 0028 7C93      		st X,r23
  65 002a 0895      		ret
  66               	.L5:
  67               	.LM7:
  68 002c 1296      		adiw r26,2
  69 002e ED91      		ld r30,X+
  70 0030 FC91      		ld r31,X
  71 0032 1397      		sbiw r26,2+1
  72 0034 6083      		st Z,r22
  73 0036 7183      		std Z+1,r23
  74               	.LM8:
  75 0038 1296      		adiw r26,2
  76 003a 6D93      		st X+,r22
  77 003c 7C93      		st X,r23
  78 003e 1397      		sbiw r26,2+1
  79 0040 0895      		ret
  80               	.LFE23:
  82               	.global	queue_pop_tuple
  84               	queue_pop_tuple:
  85               	.LFB24:
  86               	.LM9:
  87               	.LVL4:
  88               	/* prologue: function */
  89               	/* frame size = 0 */
  90 0042 DC01      		movw r26,r24
  91               	.LM10:
  92 0044 ED91      		ld r30,X+
  93 0046 FC91      		ld r31,X
  94 0048 1197      		sbiw r26,1
  95               	.LVL5:
  96 004a 3097      		sbiw r30,0
  97 004c 01F0      		breq .L9
  98               	.LVL6:
  99               	.LM11:
 100 004e 8081      		ld r24,Z
 101 0050 9181      		ldd r25,Z+1
 102 0052 8D93      		st X+,r24
 103 0054 9C93      		st X,r25
 104 0056 1197      		sbiw r26,1
 105               	.LM12:
 106 0058 892B      		or r24,r25
 107 005a 01F4      		brne .L9
 108               	.LM13:
 109 005c 1296      		adiw r26,2
 110 005e 1D92      		st X+,__zero_reg__
 111 0060 1C92      		st X,__zero_reg__
 112 0062 1397      		sbiw r26,2+1
 113               	.LVL7:
 114               	.L9:
 115               	.LM14:
 116 0064 CF01      		movw r24,r30
 117               	.LVL8:
 118               	/* epilogue start */
 119 0066 0895      		ret
 120               	.LFE24:
 122               	.global	p_dequeue
 124               	p_dequeue:
 125               	.LFB28:
 126               	.LM15:
 127               	.LVL9:
 128               	/* prologue: function */
 129               	/* frame size = 0 */
 130 0068 DC01      		movw r26,r24
 131               	.LM16:
 132 006a ED91      		ld r30,X+
 133 006c FC91      		ld r31,X
 134 006e 1197      		sbiw r26,1
 135               	.LVL10:
 136               	.LM17:
 137 0070 3097      		sbiw r30,0
 138 0072 01F0      		breq .L12
 139               	.LVL11:
 140               	.LM18:
 141 0074 8481      		ldd r24,Z+4
 142 0076 9581      		ldd r25,Z+5
 143 0078 8D93      		st X+,r24
 144 007a 9C93      		st X,r25
 145               	.LVL12:
 146               	.L12:
 147               	.LM19:
 148 007c CF01      		movw r24,r30
 149               	.LVL13:
 150               	/* epilogue start */
 151 007e 0895      		ret
 152               	.LFE28:
 154               	.global	queue_length
 156               	queue_length:
 157               	.LFB44:
 158               	.LM20:
 159               	.LVL14:
 160               	/* prologue: function */
 161               	/* frame size = 0 */
 162 0080 FC01      		movw r30,r24
 163               	.LM21:
 164 0082 0190      		ld __tmp_reg__,Z+
 165 0084 F081      		ld r31,Z
 166 0086 E02D      		mov r30,__tmp_reg__
 167               	.LVL15:
 168 0088 20E0      		ldi r18,lo8(0)
 169 008a 30E0      		ldi r19,hi8(0)
 170               	.LVL16:
 171 008c 00C0      		rjmp .L15
 172               	.L16:
 173               	.LM22:
 174 008e 0190      		ld __tmp_reg__,Z+
 175 0090 F081      		ld r31,Z
 176 0092 E02D      		mov r30,__tmp_reg__
 177 0094 2F5F      		subi r18,lo8(-(1))
 178 0096 3F4F      		sbci r19,hi8(-(1))
 179               	.L15:
 180 0098 3097      		sbiw r30,0
 181 009a 01F4      		brne .L16
 182               	.LM23:
 183 009c C901      		movw r24,r18
 184               	.LVL17:
 185               	/* epilogue start */
 186 009e 0895      		ret
 187               	.LFE44:
 189               		.data
 190               	.LC0:
 191 0000 5475 706C 		.string	"Tuple (%s:%d:%d) "
 191      6520 2825 
 191      733A 2564 
 191      3A25 6429 
 191      2000 
 192               	.LC1:
 193 0012 6167 6700 		.string	"agg"
 194               	.LC2:
 195 0016 7065 7200 		.string	"per"
 196               	.LC3:
 197 001a 6C69 6E65 		.string	"linear"
 197      6172 00
 198               	.LC4:
 199 0021 726F 7574 		.string	"route"
 199      6500 
 200               	.LC5:
 201 0027 7072 6F76 		.string	"proved"
 201      6564 00
 202               	.LC6:
 203 002e 5D20 00   		.string	"] "
 204               	.LC7:
 205 0031 6E75 6D5F 		.string	"num_args:%d deltas:%d off:%d ; args(offset, arg_size): "
 205      6172 6773 
 205      3A25 6420 
 205      6465 6C74 
 205      6173 3A25 
 206               	.LC8:
 207 0069 2025 643A 		.string	" %d:%d"
 207      2564 00
 208               		.text
 209               	.global	print_program_info
 211               	print_program_info:
 212               	.LFB48:
 213               	.LM24:
 214 00a0 2F92      		push r2
 215 00a2 3F92      		push r3
 216 00a4 4F92      		push r4
 217 00a6 5F92      		push r5
 218 00a8 6F92      		push r6
 219 00aa 7F92      		push r7
 220 00ac 9F92      		push r9
 221 00ae AF92      		push r10
 222 00b0 BF92      		push r11
 223 00b2 CF92      		push r12
 224 00b4 DF92      		push r13
 225 00b6 EF92      		push r14
 226 00b8 FF92      		push r15
 227 00ba 0F93      		push r16
 228 00bc 1F93      		push r17
 229 00be CF93      		push r28
 230 00c0 DF93      		push r29
 231               	/* prologue: function */
 232               	/* frame size = 0 */
 233               	.LM25:
 234 00c2 8091 0000 		lds r24,meld_prog
 235 00c6 482E      		mov r4,r24
 236 00c8 5524      		clr r5
 237 00ca EE24      		clr r14
 238 00cc FF24      		clr r15
 239 00ce 41E0      		ldi r20,lo8(1)
 240 00d0 C42E      		mov r12,r20
 241 00d2 D12C      		mov r13,__zero_reg__
 242               	.LBB199:
 243               	.LM26:
 244 00d4 30E0      		ldi r19,lo8(.LC8)
 245 00d6 232E      		mov r2,r19
 246 00d8 30E0      		ldi r19,hi8(.LC8)
 247 00da 332E      		mov r3,r19
 248 00dc 00C0      		rjmp .L19
 249               	.L27:
 250               	.LBE199:
 251               	.LM27:
 252 00de 3701      		movw r6,r14
 253 00e0 660C      		lsl r6
 254 00e2 771C      		rol r7
 255               	.LBB200:
 256               	.LM28:
 257 00e4 8DB7      		in r24,__SP_L__
 258 00e6 9EB7      		in r25,__SP_H__
 259 00e8 0897      		sbiw r24,8
 260 00ea 8DBF      		out __SP_L__,r24
 261 00ec 9EBF      		out __SP_H__,r25
 262 00ee ADB7      		in r26,__SP_L__
 263 00f0 BEB7      		in r27,__SP_H__
 264 00f2 1196      		adiw r26,1
 265 00f4 80E0      		ldi r24,lo8(.LC0)
 266 00f6 90E0      		ldi r25,hi8(.LC0)
 267 00f8 EDB7      		in r30,__SP_L__
 268 00fa FEB7      		in r31,__SP_H__
 269 00fc 8183      		std Z+1,r24
 270 00fe 9283      		std Z+2,r25
 271 0100 F601      		movw r30,r12
 272 0102 E050      		subi r30,lo8(-(tuple_names-1))
 273 0104 F040      		sbci r31,hi8(-(tuple_names-1))
 274 0106 8081      		ld r24,Z
 275 0108 9181      		ldd r25,Z+1
 276 010a 1296      		adiw r26,2
 277 010c 8D93      		st X+,r24
 278 010e 9C93      		st X,r25
 279 0110 1397      		sbiw r26,2+1
 280 0112 1496      		adiw r26,4
 281 0114 ED92      		st X+,r14
 282 0116 FC92      		st X,r15
 283 0118 1597      		sbiw r26,4+1
 284 011a E091 0000 		lds r30,arguments
 285 011e F091 0000 		lds r31,(arguments)+1
 286 0122 EC0D      		add r30,r12
 287 0124 FD1D      		adc r31,r13
 288 0126 8081      		ld r24,Z
 289 0128 1696      		adiw r26,6
 290 012a 8C93      		st X,r24
 291 012c 1697      		sbiw r26,6
 292 012e 1796      		adiw r26,7
 293 0130 1C92      		st X,__zero_reg__
 294 0132 0E94 0000 		call printf
 295               	.LM29:
 296 0136 ADB7      		in r26,__SP_L__
 297 0138 BEB7      		in r27,__SP_H__
 298 013a 1896      		adiw r26,8
 299 013c ADBF      		out __SP_L__,r26
 300 013e BEBF      		out __SP_H__,r27
 301 0140 8BE5      		ldi r24,lo8(91)
 302 0142 90E0      		ldi r25,hi8(91)
 303 0144 0E94 0000 		call putchar
 304               	.LM30:
 305 0148 0894      		sec
 306 014a E11C      		adc r14,__zero_reg__
 307 014c F11C      		adc r15,__zero_reg__
 308 014e F701      		movw r30,r14
 309 0150 E050      		subi r30,lo8(-(meld_prog))
 310 0152 F040      		sbci r31,hi8(-(meld_prog))
 311 0154 9080      		ld r9,Z
 312 0156 092D      		mov r16,r9
 313 0158 10E0      		ldi r17,lo8(0)
 314 015a E801      		movw r28,r16
 315 015c C050      		subi r28,lo8(-(meld_prog+2))
 316 015e D040      		sbci r29,hi8(-(meld_prog+2))
 317 0160 8881      		ld r24,Y
 318 0162 80FF      		sbrs r24,0
 319 0164 00C0      		rjmp .L20
 320               	.LM31:
 321 0166 0F92      		push __tmp_reg__
 322 0168 0F92      		push __tmp_reg__
 323 016a 80E0      		ldi r24,lo8(.LC1)
 324 016c 90E0      		ldi r25,hi8(.LC1)
 325 016e EDB7      		in r30,__SP_L__
 326 0170 FEB7      		in r31,__SP_H__
 327 0172 8183      		std Z+1,r24
 328 0174 9283      		std Z+2,r25
 329 0176 0E94 0000 		call printf
 330 017a 0F90      		pop __tmp_reg__
 331 017c 0F90      		pop __tmp_reg__
 332               	.L20:
 333               	.LM32:
 334 017e 8881      		ld r24,Y
 335 0180 81FF      		sbrs r24,1
 336 0182 00C0      		rjmp .L21
 337               	.LM33:
 338 0184 0F92      		push __tmp_reg__
 339 0186 0F92      		push __tmp_reg__
 340 0188 E0E0      		ldi r30,lo8(.LC2)
 341 018a F0E0      		ldi r31,hi8(.LC2)
 342 018c ADB7      		in r26,__SP_L__
 343 018e BEB7      		in r27,__SP_H__
 344 0190 1196      		adiw r26,1
 345 0192 ED93      		st X+,r30
 346 0194 FC93      		st X,r31
 347 0196 1297      		sbiw r26,1+1
 348 0198 0E94 0000 		call printf
 349 019c 0F90      		pop __tmp_reg__
 350 019e 0F90      		pop __tmp_reg__
 351               	.L21:
 352               	.LM34:
 353 01a0 8881      		ld r24,Y
 354 01a2 82FF      		sbrs r24,2
 355 01a4 00C0      		rjmp .L22
 356               	.LM35:
 357 01a6 0F92      		push __tmp_reg__
 358 01a8 0F92      		push __tmp_reg__
 359 01aa E0E0      		ldi r30,lo8(.LC3)
 360 01ac F0E0      		ldi r31,hi8(.LC3)
 361 01ae ADB7      		in r26,__SP_L__
 362 01b0 BEB7      		in r27,__SP_H__
 363 01b2 1196      		adiw r26,1
 364 01b4 ED93      		st X+,r30
 365 01b6 FC93      		st X,r31
 366 01b8 1297      		sbiw r26,1+1
 367 01ba 0E94 0000 		call printf
 368 01be 0F90      		pop __tmp_reg__
 369 01c0 0F90      		pop __tmp_reg__
 370               	.L22:
 371               	.LM36:
 372 01c2 8881      		ld r24,Y
 373 01c4 85FF      		sbrs r24,5
 374 01c6 00C0      		rjmp .L23
 375               	.LM37:
 376 01c8 0F92      		push __tmp_reg__
 377 01ca 0F92      		push __tmp_reg__
 378 01cc E0E0      		ldi r30,lo8(.LC4)
 379 01ce F0E0      		ldi r31,hi8(.LC4)
 380 01d0 ADB7      		in r26,__SP_L__
 381 01d2 BEB7      		in r27,__SP_H__
 382 01d4 1196      		adiw r26,1
 383 01d6 ED93      		st X+,r30
 384 01d8 FC93      		st X,r31
 385 01da 1297      		sbiw r26,1+1
 386 01dc 0E94 0000 		call printf
 387 01e0 0F90      		pop __tmp_reg__
 388 01e2 0F90      		pop __tmp_reg__
 389               	.L23:
 390               	.LM38:
 391 01e4 8881      		ld r24,Y
 392 01e6 86FF      		sbrs r24,6
 393 01e8 00C0      		rjmp .L24
 394               	.LM39:
 395 01ea 0F92      		push __tmp_reg__
 396 01ec 0F92      		push __tmp_reg__
 397 01ee E0E0      		ldi r30,lo8(.LC5)
 398 01f0 F0E0      		ldi r31,hi8(.LC5)
 399 01f2 ADB7      		in r26,__SP_L__
 400 01f4 BEB7      		in r27,__SP_H__
 401 01f6 1196      		adiw r26,1
 402 01f8 ED93      		st X+,r30
 403 01fa FC93      		st X,r31
 404 01fc 1297      		sbiw r26,1+1
 405 01fe 0E94 0000 		call printf
 406 0202 0F90      		pop __tmp_reg__
 407 0204 0F90      		pop __tmp_reg__
 408               	.L24:
 409               	.LM40:
 410 0206 0F92      		push __tmp_reg__
 411 0208 0F92      		push __tmp_reg__
 412 020a E0E0      		ldi r30,lo8(.LC6)
 413 020c F0E0      		ldi r31,hi8(.LC6)
 414 020e ADB7      		in r26,__SP_L__
 415 0210 BEB7      		in r27,__SP_H__
 416 0212 1196      		adiw r26,1
 417 0214 ED93      		st X+,r30
 418 0216 FC93      		st X,r31
 419 0218 1297      		sbiw r26,1+1
 420 021a 0E94 0000 		call printf
 421               	.LM41:
 422 021e 90E0      		ldi r25,lo8(meld_prog+5)
 423 0220 A92E      		mov r10,r25
 424 0222 90E0      		ldi r25,hi8(meld_prog+5)
 425 0224 B92E      		mov r11,r25
 426 0226 A00E      		add r10,r16
 427 0228 B11E      		adc r11,r17
 428 022a 00D0      		rcall .
 429 022c 00D0      		rcall .
 430 022e EDB7      		in r30,__SP_L__
 431 0230 FEB7      		in r31,__SP_H__
 432 0232 3196      		adiw r30,1
 433 0234 80E0      		ldi r24,lo8(.LC7)
 434 0236 90E0      		ldi r25,hi8(.LC7)
 435 0238 ADB7      		in r26,__SP_L__
 436 023a BEB7      		in r27,__SP_H__
 437 023c 1196      		adiw r26,1
 438 023e 8D93      		st X+,r24
 439 0240 9C93      		st X,r25
 440 0242 1297      		sbiw r26,1+1
 441 0244 D501      		movw r26,r10
 442 0246 8C91      		ld r24,X
 443 0248 8283      		std Z+2,r24
 444 024a 1382      		std Z+3,__zero_reg__
 445 024c 0050      		subi r16,lo8(-(meld_prog))
 446 024e 1040      		sbci r17,hi8(-(meld_prog))
 447 0250 D801      		movw r26,r16
 448 0252 1696      		adiw r26,6
 449 0254 8C91      		ld r24,X
 450 0256 8483      		std Z+4,r24
 451 0258 1582      		std Z+5,__zero_reg__
 452 025a 9682      		std Z+6,r9
 453 025c 1782      		std Z+7,__zero_reg__
 454 025e 0E94 0000 		call printf
 455 0262 C0E0      		ldi r28,lo8(0)
 456 0264 D0E0      		ldi r29,hi8(0)
 457 0266 EDB7      		in r30,__SP_L__
 458 0268 FEB7      		in r31,__SP_H__
 459 026a 3896      		adiw r30,8
 460 026c EDBF      		out __SP_L__,r30
 461 026e FEBF      		out __SP_H__,r31
 462 0270 00C0      		rjmp .L25
 463               	.L26:
 464               	.LM42:
 465 0272 2091 0000 		lds r18,arguments
 466 0276 3091 0000 		lds r19,(arguments)+1
 467 027a DE01      		movw r26,r28
 468 027c AA0F      		lsl r26
 469 027e BB1F      		rol r27
 470 0280 F901      		movw r30,r18
 471 0282 E60D      		add r30,r6
 472 0284 F71D      		adc r31,r7
 473 0286 8081      		ld r24,Z
 474 0288 A80F      		add r26,r24
 475 028a B11D      		adc r27,__zero_reg__
 476 028c 00D0      		rcall .
 477 028e 00D0      		rcall .
 478 0290 4DB7      		in r20,__SP_L__
 479 0292 5EB7      		in r21,__SP_H__
 480 0294 4F5F      		subi r20,lo8(-(1))
 481 0296 5F4F      		sbci r21,hi8(-(1))
 482 0298 EDB7      		in r30,__SP_L__
 483 029a FEB7      		in r31,__SP_H__
 484 029c 2182      		std Z+1,r2
 485 029e 3282      		std Z+2,r3
 486 02a0 A20F      		add r26,r18
 487 02a2 B31F      		adc r27,r19
 488 02a4 1196      		adiw r26,1
 489 02a6 8C91      		ld r24,X
 490 02a8 1197      		sbiw r26,1
 491 02aa FA01      		movw r30,r20
 492 02ac 8283      		std Z+2,r24
 493 02ae 1382      		std Z+3,__zero_reg__
 494 02b0 8C91      		ld r24,X
 495 02b2 8483      		std Z+4,r24
 496 02b4 1582      		std Z+5,__zero_reg__
 497 02b6 0E94 0000 		call printf
 498               	.LM43:
 499 02ba 2196      		adiw r28,1
 500 02bc 8DB7      		in r24,__SP_L__
 501 02be 9EB7      		in r25,__SP_H__
 502 02c0 0696      		adiw r24,6
 503 02c2 8DBF      		out __SP_L__,r24
 504 02c4 9EBF      		out __SP_H__,r25
 505               	.L25:
 506 02c6 D501      		movw r26,r10
 507 02c8 8C91      		ld r24,X
 508 02ca 90E0      		ldi r25,lo8(0)
 509 02cc C817      		cp r28,r24
 510 02ce D907      		cpc r29,r25
 511 02d0 04F0      		brlt .L26
 512               	.LM44:
 513 02d2 8AE0      		ldi r24,lo8(10)
 514 02d4 90E0      		ldi r25,hi8(10)
 515 02d6 0E94 0000 		call putchar
 516 02da E2E0      		ldi r30,lo8(2)
 517 02dc F0E0      		ldi r31,hi8(2)
 518 02de CE0E      		add r12,r30
 519 02e0 DF1E      		adc r13,r31
 520               	.L19:
 521               	.LBE200:
 522               	.LM45:
 523 02e2 E414      		cp r14,r4
 524 02e4 F504      		cpc r15,r5
 525 02e6 04F4      		brge .+2
 526 02e8 00C0      		rjmp .L27
 527               	/* epilogue start */
 528               	.LM46:
 529 02ea DF91      		pop r29
 530 02ec CF91      		pop r28
 531 02ee 1F91      		pop r17
 532 02f0 0F91      		pop r16
 533 02f2 FF90      		pop r15
 534 02f4 EF90      		pop r14
 535 02f6 DF90      		pop r13
 536 02f8 CF90      		pop r12
 537 02fa BF90      		pop r11
 538 02fc AF90      		pop r10
 539 02fe 9F90      		pop r9
 540 0300 7F90      		pop r7
 541 0302 6F90      		pop r6
 542 0304 5F90      		pop r5
 543 0306 4F90      		pop r4
 544 0308 3F90      		pop r3
 545 030a 2F90      		pop r2
 546 030c 0895      		ret
 547               	.LFE48:
 549               		.data
 550               	.LC9:
 551 0070 2F68 6F6D 		.string	"/home/rbigeard/BB/build/src-bobby/meldinterp-runtime/core.c"
 551      652F 7262 
 551      6967 6561 
 551      7264 2F42 
 551      422F 6275 
 552               	.LC10:
 553 00ac 3000      		.string	"0"
 554               		.text
 556               	eval:
 557               	.LFB35:
 558               	.LM47:
 559               	.LVL18:
 560 030e CF93      		push r28
 561 0310 DF93      		push r29
 562               	/* prologue: function */
 563               	/* frame size = 0 */
 564 0312 EA01      		movw r28,r20
 565               	.LM48:
 566 0314 8330      		cpi r24,lo8(3)
 567 0316 01F4      		brne .L30
 568               	.LVL19:
 569 0318 60E0      		ldi r22,lo8(blockId)
 570 031a 70E0      		ldi r23,hi8(blockId)
 571               	.LVL20:
 572 031c 00C0      		rjmp .L31
 573               	.L30:
 574               	.LM49:
 575 031e 482F      		mov r20,r24
 576 0320 50E0      		ldi r21,lo8(0)
 577               	.LVL21:
 578 0322 85FF      		sbrs r24,5
 579 0324 00C0      		rjmp .L32
 580               	.LM50:
 581 0326 BA01      		movw r22,r20
 582               	.LVL22:
 583 0328 6F71      		andi r22,lo8(31)
 584 032a 7070      		andi r23,hi8(31)
 585 032c 660F      		lsl r22
 586 032e 771F      		rol r23
 587 0330 660F      		lsl r22
 588 0332 771F      		rol r23
 589 0334 620F      		add r22,r18
 590 0336 731F      		adc r23,r19
 591 0338 00C0      		rjmp .L31
 592               	.L32:
 593               	.LM51:
 594 033a 8F31      		cpi r24,lo8(31)
 595 033c 01F4      		brne .+2
 596 033e 00C0      		rjmp .L31
 597               	.LM52:
 598 0340 8230      		cpi r24,lo8(2)
 599 0342 01F4      		brne .L33
 600               	.LBB201:
 601               	.LM53:
 602 0344 A881      		ld r26,Y
 603 0346 B981      		ldd r27,Y+1
 604               	.LM54:
 605 0348 8C91      		ld r24,X
 606               	.LVL23:
 607               	.LM55:
 608 034a 1196      		adiw r26,1
 609 034c EC91      		ld r30,X
 610 034e 1197      		sbiw r26,1
 611 0350 EF71      		andi r30,lo8(31)
 612 0352 F0E0      		ldi r31,lo8(0)
 613 0354 EE0F      		lsl r30
 614 0356 FF1F      		rol r31
 615 0358 EE0F      		lsl r30
 616 035a FF1F      		rol r31
 617               	.LVL24:
 618 035c E20F      		add r30,r18
 619 035e F31F      		adc r31,r19
 620 0360 4081      		ld r20,Z
 621 0362 5181      		ldd r21,Z+1
 622               	.LVL25:
 623               	.LM56:
 624 0364 1296      		adiw r26,2
 625 0366 A883      		st Y,r26
 626 0368 B983      		std Y+1,r27
 627               	.LM57:
 628 036a A091 0000 		lds r26,arguments
 629 036e B091 0000 		lds r27,(arguments)+1
 630 0372 90E0      		ldi r25,lo8(0)
 631               	.LVL26:
 632 0374 00C0      		rjmp .L38
 633               	.LVL27:
 634               	.L33:
 635               	.LBE201:
 636               	.LM58:
 637 0376 8130      		cpi r24,lo8(1)
 638 0378 01F0      		breq .L39
 639               	.L34:
 640               	.LM59:
 641 037a 8823      		tst r24
 642 037c 01F4      		brne .L35
 643               	.L39:
 644               	.LBB202:
 645               	.LM60:
 646 037e 8881      		ld r24,Y
 647 0380 9981      		ldd r25,Y+1
 648               	.LVL28:
 649               	.LM61:
 650 0382 0496      		adiw r24,4
 651 0384 8883      		st Y,r24
 652 0386 9983      		std Y+1,r25
 653 0388 0497      		sbiw r24,4
 654 038a BC01      		movw r22,r24
 655               	.LVL29:
 656 038c 00C0      		rjmp .L31
 657               	.LVL30:
 658               	.L35:
 659               	.LBE202:
 660               	.LM62:
 661 038e 8430      		cpi r24,lo8(4)
 662 0390 01F4      		brne .L36
 663               	.LBB203:
 664               	.LM63:
 665 0392 A881      		ld r26,Y
 666 0394 B981      		ldd r27,Y+1
 667               	.LM64:
 668 0396 8C91      		ld r24,X
 669               	.LVL31:
 670 0398 90E0      		ldi r25,lo8(0)
 671               	.LVL32:
 672               	.LM65:
 673 039a 1196      		adiw r26,1
 674 039c EC91      		ld r30,X
 675 039e 1197      		sbiw r26,1
 676 03a0 F0E0      		ldi r31,lo8(0)
 677 03a2 EF71      		andi r30,lo8(31)
 678 03a4 F070      		andi r31,hi8(31)
 679 03a6 EE0F      		lsl r30
 680 03a8 FF1F      		rol r31
 681 03aa EE0F      		lsl r30
 682 03ac FF1F      		rol r31
 683               	.LVL33:
 684 03ae E20F      		add r30,r18
 685 03b0 F31F      		adc r31,r19
 686 03b2 4081      		ld r20,Z
 687 03b4 5181      		ldd r21,Z+1
 688               	.LVL34:
 689               	.LM66:
 690 03b6 1296      		adiw r26,2
 691 03b8 A883      		st Y,r26
 692 03ba B983      		std Y+1,r27
 693               	.LM67:
 694 03bc A091 0000 		lds r26,arguments
 695 03c0 B091 0000 		lds r27,(arguments)+1
 696               	.LVL35:
 697               	.L38:
 698 03c4 EA01      		movw r28,r20
 699               	.LVL36:
 700 03c6 E881      		ld r30,Y
 701 03c8 F0E0      		ldi r31,lo8(0)
 702 03ca EE0F      		lsl r30
 703 03cc FF1F      		rol r31
 704 03ce EA0F      		add r30,r26
 705 03d0 FB1F      		adc r31,r27
 706 03d2 2081      		ld r18,Z
 707               	.LVL37:
 708 03d4 880F      		lsl r24
 709 03d6 991F      		rol r25
 710               	.LVL38:
 711 03d8 A80F      		add r26,r24
 712 03da B91F      		adc r27,r25
 713 03dc A20F      		add r26,r18
 714 03de B11D      		adc r27,__zero_reg__
 715 03e0 1196      		adiw r26,1
 716 03e2 8C91      		ld r24,X
 717               	.LVL39:
 718 03e4 682F      		mov r22,r24
 719               	.LVL40:
 720 03e6 70E0      		ldi r23,lo8(0)
 721               	.LVL41:
 722 03e8 6F5F      		subi r22,lo8(-(1))
 723 03ea 7F4F      		sbci r23,hi8(-(1))
 724               	.LVL42:
 725 03ec 640F      		add r22,r20
 726 03ee 751F      		adc r23,r21
 727 03f0 00C0      		rjmp .L31
 728               	.LVL43:
 729               	.L36:
 730               	.LBE203:
 731               	.LM68:
 732 03f2 80E0      		ldi r24,lo8(.LC9)
 733 03f4 90E0      		ldi r25,hi8(.LC9)
 734               	.LVL44:
 735 03f6 69EF      		ldi r22,lo8(505)
 736 03f8 71E0      		ldi r23,hi8(505)
 737               	.LVL45:
 738 03fa 40E0      		ldi r20,lo8(.LC10)
 739 03fc 50E0      		ldi r21,hi8(.LC10)
 740               	.LVL46:
 741 03fe 0E94 0000 		call __myassert
 742               	.LVL47:
 743               	.LM69:
 744 0402 80E0      		ldi r24,lo8(.LC9)
 745 0404 90E0      		ldi r25,hi8(.LC9)
 746 0406 6CEF      		ldi r22,lo8(508)
 747 0408 71E0      		ldi r23,hi8(508)
 748 040a 40E0      		ldi r20,lo8(.LC10)
 749 040c 50E0      		ldi r21,hi8(.LC10)
 750 040e 0E94 0000 		call __myassert
 751 0412 60E0      		ldi r22,lo8(0)
 752 0414 70E0      		ldi r23,hi8(0)
 753               	.LVL48:
 754               	.L31:
 755               	.LM70:
 756 0416 CB01      		movw r24,r22
 757               	.LVL49:
 758               	/* epilogue start */
 759 0418 DF91      		pop r29
 760 041a CF91      		pop r28
 761               	.LVL50:
 762 041c 0895      		ret
 763               	.LFE35:
 765               		.data
 766               	.LC11:
 767 00ae 2573 2800 		.string	"%s("
 768               	.LC12:
 769 00b2 2C20 00   		.string	", "
 770               	.LC13:
 771 00b5 256C 6400 		.string	"%ld"
 772               	.LC14:
 773 00b9 2566 00   		.string	"%f"
 774               	.LC15:
 775 00bc 2570 00   		.string	"%p"
 776               	.LC16:
 777 00bf 6C69 7374 		.string	"list_int[%d][%p]"
 777      5F69 6E74 
 777      5B25 645D 
 777      5B25 705D 
 777      00
 778               	.LC17:
 779 00d0 6C69 7374 		.string	"list_float[%d][%p]"
 779      5F66 6C6F 
 779      6174 5B25 
 779      645D 5B25 
 779      705D 00
 780               	.LC18:
 781 00e3 6C69 7374 		.string	"list_addr[%p]"
 781      5F61 6464 
 781      725B 2570 
 781      5D00 
 782               	.LC19:
 783 00f1 7365 745F 		.string	"set_int[%d][%p]"
 783      696E 745B 
 783      2564 5D5B 
 783      2570 5D00 
 784               	.LC20:
 785 0101 7365 745F 		.string	"set_float[%d][%p]"
 785      666C 6F61 
 785      745B 2564 
 785      5D5B 2570 
 785      5D00 
 786               		.text
 787               	.global	tuple_print
 789               	tuple_print:
 790               	.LFB46:
 791               	.LM71:
 792 041e 2F92      		push r2
 793 0420 3F92      		push r3
 794 0422 4F92      		push r4
 795 0424 5F92      		push r5
 796 0426 6F92      		push r6
 797 0428 7F92      		push r7
 798 042a 8F92      		push r8
 799 042c 9F92      		push r9
 800 042e AF92      		push r10
 801 0430 BF92      		push r11
 802 0432 CF92      		push r12
 803 0434 DF92      		push r13
 804 0436 EF92      		push r14
 805 0438 FF92      		push r15
 806 043a 0F93      		push r16
 807 043c 1F93      		push r17
 808 043e CF93      		push r28
 809 0440 DF93      		push r29
 810               	/* prologue: function */
 811               	/* frame size = 0 */
 812 0442 5C01      		movw r10,r24
 813 0444 8B01      		movw r16,r22
 814               	.LM72:
 815 0446 DC01      		movw r26,r24
 816 0448 EC91      		ld r30,X
 817 044a CE2F      		mov r28,r30
 818 044c D0E0      		ldi r29,lo8(0)
 819 044e 00D0      		rcall .
 820 0450 00D0      		rcall .
 821 0452 ADB7      		in r26,__SP_L__
 822 0454 BEB7      		in r27,__SP_H__
 823 0456 1196      		adiw r26,1
 824 0458 EDB7      		in r30,__SP_L__
 825 045a FEB7      		in r31,__SP_H__
 826 045c 6183      		std Z+1,r22
 827 045e 7283      		std Z+2,r23
 828 0460 80E0      		ldi r24,lo8(.LC11)
 829 0462 90E0      		ldi r25,hi8(.LC11)
 830 0464 1296      		adiw r26,2
 831 0466 8D93      		st X+,r24
 832 0468 9C93      		st X,r25
 833 046a 1397      		sbiw r26,2+1
 834 046c FE01      		movw r30,r28
 835 046e EE0F      		lsl r30
 836 0470 FF1F      		rol r31
 837 0472 E050      		subi r30,lo8(-(tuple_names))
 838 0474 F040      		sbci r31,hi8(-(tuple_names))
 839 0476 8081      		ld r24,Z
 840 0478 9181      		ldd r25,Z+1
 841 047a 1496      		adiw r26,4
 842 047c 8D93      		st X+,r24
 843 047e 9C93      		st X,r25
 844 0480 1597      		sbiw r26,4+1
 845 0482 0E94 0000 		call fprintf
 846               	.LM73:
 847 0486 C050      		subi r28,lo8(-(meld_prog))
 848 0488 D040      		sbci r29,hi8(-(meld_prog))
 849 048a 8981      		ldd r24,Y+1
 850 048c 90E0      		ldi r25,lo8(0)
 851 048e F0E0      		ldi r31,lo8(meld_prog+5)
 852 0490 8F2E      		mov r8,r31
 853 0492 F0E0      		ldi r31,hi8(meld_prog+5)
 854 0494 9F2E      		mov r9,r31
 855 0496 880E      		add r8,r24
 856 0498 991E      		adc r9,r25
 857 049a E0E0      		ldi r30,lo8(meld_prog+7)
 858 049c CE2E      		mov r12,r30
 859 049e E0E0      		ldi r30,hi8(meld_prog+7)
 860 04a0 DE2E      		mov r13,r30
 861 04a2 C80E      		add r12,r24
 862 04a4 D91E      		adc r13,r25
 863 04a6 EE24      		clr r14
 864 04a8 FF24      		clr r15
 865 04aa 8DB7      		in r24,__SP_L__
 866 04ac 9EB7      		in r25,__SP_H__
 867 04ae 0696      		adiw r24,6
 868 04b0 8DBF      		out __SP_L__,r24
 869 04b2 9EBF      		out __SP_H__,r25
 870               	.LBB204:
 871               	.LM74:
 872 04b4 70E0      		ldi r23,lo8(.LC13)
 873 04b6 272E      		mov r2,r23
 874 04b8 70E0      		ldi r23,hi8(.LC13)
 875 04ba 372E      		mov r3,r23
 876               	.LM75:
 877 04bc 60E0      		ldi r22,lo8(.LC15)
 878 04be 462E      		mov r4,r22
 879 04c0 60E0      		ldi r22,hi8(.LC15)
 880 04c2 562E      		mov r5,r22
 881               	.LM76:
 882 04c4 50E0      		ldi r21,lo8(.LC16)
 883 04c6 652E      		mov r6,r21
 884 04c8 50E0      		ldi r21,hi8(.LC16)
 885 04ca 752E      		mov r7,r21
 886 04cc 00C0      		rjmp .L41
 887               	.L55:
 888               	.LM77:
 889 04ce A091 0000 		lds r26,arguments
 890 04d2 B091 0000 		lds r27,(arguments)+1
 891 04d6 E501      		movw r28,r10
 892 04d8 E881      		ld r30,Y
 893 04da F0E0      		ldi r31,lo8(0)
 894 04dc EE0F      		lsl r30
 895 04de FF1F      		rol r31
 896 04e0 EA0F      		add r30,r26
 897 04e2 FB1F      		adc r31,r27
 898 04e4 2081      		ld r18,Z
 899 04e6 C701      		movw r24,r14
 900 04e8 880F      		lsl r24
 901 04ea 991F      		rol r25
 902 04ec A80F      		add r26,r24
 903 04ee B91F      		adc r27,r25
 904 04f0 A20F      		add r26,r18
 905 04f2 B11D      		adc r27,__zero_reg__
 906 04f4 1196      		adiw r26,1
 907 04f6 8C91      		ld r24,X
 908 04f8 C82F      		mov r28,r24
 909 04fa D0E0      		ldi r29,lo8(0)
 910 04fc 2196      		adiw r28,1
 911 04fe CA0D      		add r28,r10
 912 0500 DB1D      		adc r29,r11
 913               	.LM78:
 914 0502 E114      		cp r14,__zero_reg__
 915 0504 F104      		cpc r15,__zero_reg__
 916 0506 01F0      		breq .L42
 917               	.LM79:
 918 0508 80E0      		ldi r24,lo8(.LC12)
 919 050a 90E0      		ldi r25,hi8(.LC12)
 920 050c B801      		movw r22,r16
 921 050e 0E94 0000 		call fputs
 922               	.L42:
 923               	.LM80:
 924 0512 F601      		movw r30,r12
 925 0514 8081      		ld r24,Z
 926 0516 8430      		cpi r24,lo8(4)
 927 0518 01F4      		brne .+2
 928 051a 00C0      		rjmp .L48
 929 051c 8530      		cpi r24,lo8(5)
 930 051e 00F4      		brsh .L53
 931 0520 8130      		cpi r24,lo8(1)
 932 0522 01F0      		breq .L45
 933 0524 8130      		cpi r24,lo8(1)
 934 0526 00F0      		brlo .L44
 935 0528 8230      		cpi r24,lo8(2)
 936 052a 01F4      		brne .+2
 937 052c 00C0      		rjmp .L46
 938 052e 8330      		cpi r24,lo8(3)
 939 0530 01F0      		breq .+2
 940 0532 00C0      		rjmp .L43
 941 0534 00C0      		rjmp .L62
 942               	.L53:
 943 0536 8630      		cpi r24,lo8(6)
 944 0538 01F4      		brne .+2
 945 053a 00C0      		rjmp .L50
 946 053c 8630      		cpi r24,lo8(6)
 947 053e 00F4      		brsh .+2
 948 0540 00C0      		rjmp .L49
 949 0542 8730      		cpi r24,lo8(7)
 950 0544 01F4      		brne .+2
 951 0546 00C0      		rjmp .L51
 952 0548 8830      		cpi r24,lo8(8)
 953 054a 01F0      		breq .+2
 954 054c 00C0      		rjmp .L43
 955 054e 00C0      		rjmp .L63
 956               	.L44:
 957               	.LM81:
 958 0550 8DB7      		in r24,__SP_L__
 959 0552 9EB7      		in r25,__SP_H__
 960 0554 0897      		sbiw r24,8
 961 0556 8DBF      		out __SP_L__,r24
 962 0558 9EBF      		out __SP_H__,r25
 963 055a EDB7      		in r30,__SP_L__
 964 055c FEB7      		in r31,__SP_H__
 965 055e 3196      		adiw r30,1
 966 0560 ADB7      		in r26,__SP_L__
 967 0562 BEB7      		in r27,__SP_H__
 968 0564 1196      		adiw r26,1
 969 0566 0D93      		st X+,r16
 970 0568 1C93      		st X,r17
 971 056a 1297      		sbiw r26,1+1
 972 056c 2282      		std Z+2,r2
 973 056e 3382      		std Z+3,r3
 974 0570 8881      		ld r24,Y
 975 0572 9981      		ldd r25,Y+1
 976 0574 AA81      		ldd r26,Y+2
 977 0576 BB81      		ldd r27,Y+3
 978 0578 8483      		std Z+4,r24
 979 057a 9583      		std Z+5,r25
 980 057c A683      		std Z+6,r26
 981 057e B783      		std Z+7,r27
 982 0580 0E94 0000 		call fprintf
 983 0584 CDB7      		in r28,__SP_L__
 984 0586 DEB7      		in r29,__SP_H__
 985 0588 2896      		adiw r28,8
 986 058a 00C0      		rjmp .L57
 987               	.L45:
 988               	.LM82:
 989 058c EDB7      		in r30,__SP_L__
 990 058e FEB7      		in r31,__SP_H__
 991 0590 3897      		sbiw r30,8
 992 0592 EDBF      		out __SP_L__,r30
 993 0594 FEBF      		out __SP_H__,r31
 994 0596 3196      		adiw r30,1
 995 0598 ADB7      		in r26,__SP_L__
 996 059a BEB7      		in r27,__SP_H__
 997 059c 1196      		adiw r26,1
 998 059e 0D93      		st X+,r16
 999 05a0 1C93      		st X,r17
 1000 05a2 1297      		sbiw r26,1+1
 1001 05a4 80E0      		ldi r24,lo8(.LC14)
 1002 05a6 90E0      		ldi r25,hi8(.LC14)
 1003 05a8 8283      		std Z+2,r24
 1004 05aa 9383      		std Z+3,r25
 1005 05ac 8881      		ld r24,Y
 1006 05ae 9981      		ldd r25,Y+1
 1007 05b0 AA81      		ldd r26,Y+2
 1008 05b2 BB81      		ldd r27,Y+3
 1009 05b4 8483      		std Z+4,r24
 1010 05b6 9583      		std Z+5,r25
 1011 05b8 A683      		std Z+6,r26
 1012 05ba B783      		std Z+7,r27
 1013 05bc 00C0      		rjmp .L58
 1014               	.L46:
 1015               	.LM83:
 1016 05be 00D0      		rcall .
 1017 05c0 00D0      		rcall .
 1018 05c2 EDB7      		in r30,__SP_L__
 1019 05c4 FEB7      		in r31,__SP_H__
 1020 05c6 3196      		adiw r30,1
 1021 05c8 ADB7      		in r26,__SP_L__
 1022 05ca BEB7      		in r27,__SP_H__
 1023 05cc 1196      		adiw r26,1
 1024 05ce 0D93      		st X+,r16
 1025 05d0 1C93      		st X,r17
 1026 05d2 1297      		sbiw r26,1+1
 1027 05d4 4282      		std Z+2,r4
 1028 05d6 5382      		std Z+3,r5
 1029 05d8 8881      		ld r24,Y
 1030 05da 9981      		ldd r25,Y+1
 1031 05dc 8483      		std Z+4,r24
 1032 05de 9583      		std Z+5,r25
 1033 05e0 0E94 0000 		call fprintf
 1034 05e4 CDB7      		in r28,__SP_L__
 1035 05e6 DEB7      		in r29,__SP_H__
 1036 05e8 2696      		adiw r28,6
 1037               	.L57:
 1038 05ea CDBF      		out __SP_L__,r28
 1039 05ec DEBF      		out __SP_H__,r29
 1040 05ee 00C0      		rjmp .L54
 1041               	.L62:
 1042               	.LM84:
 1043 05f0 A881      		ld r26,Y
 1044 05f2 B981      		ldd r27,Y+1
 1045 05f4 EDB7      		in r30,__SP_L__
 1046 05f6 FEB7      		in r31,__SP_H__
 1047 05f8 3897      		sbiw r30,8
 1048 05fa EDBF      		out __SP_L__,r30
 1049 05fc FEBF      		out __SP_H__,r31
 1050 05fe 3196      		adiw r30,1
 1051 0600 CDB7      		in r28,__SP_L__
 1052 0602 DEB7      		in r29,__SP_H__
 1053 0604 0983      		std Y+1,r16
 1054 0606 1A83      		std Y+2,r17
 1055 0608 6282      		std Z+2,r6
 1056 060a 7382      		std Z+3,r7
 1057 060c 1496      		adiw r26,4
 1058 060e 8D91      		ld r24,X+
 1059 0610 9C91      		ld r25,X
 1060 0612 1597      		sbiw r26,4+1
 1061 0614 8483      		std Z+4,r24
 1062 0616 9583      		std Z+5,r25
 1063 0618 A683      		std Z+6,r26
 1064 061a B783      		std Z+7,r27
 1065 061c 0E94 0000 		call fprintf
 1066 0620 EDB7      		in r30,__SP_L__
 1067 0622 FEB7      		in r31,__SP_H__
 1068 0624 3896      		adiw r30,8
 1069 0626 EDBF      		out __SP_L__,r30
 1070 0628 FEBF      		out __SP_H__,r31
 1071 062a 00C0      		rjmp .L54
 1072               	.L48:
 1073               	.LM85:
 1074 062c A881      		ld r26,Y
 1075 062e B981      		ldd r27,Y+1
 1076 0630 8DB7      		in r24,__SP_L__
 1077 0632 9EB7      		in r25,__SP_H__
 1078 0634 0897      		sbiw r24,8
 1079 0636 8DBF      		out __SP_L__,r24
 1080 0638 9EBF      		out __SP_H__,r25
 1081 063a EDB7      		in r30,__SP_L__
 1082 063c FEB7      		in r31,__SP_H__
 1083 063e 3196      		adiw r30,1
 1084 0640 CDB7      		in r28,__SP_L__
 1085 0642 DEB7      		in r29,__SP_H__
 1086 0644 0983      		std Y+1,r16
 1087 0646 1A83      		std Y+2,r17
 1088 0648 80E0      		ldi r24,lo8(.LC17)
 1089 064a 90E0      		ldi r25,hi8(.LC17)
 1090 064c 8283      		std Z+2,r24
 1091 064e 9383      		std Z+3,r25
 1092 0650 1496      		adiw r26,4
 1093 0652 8D91      		ld r24,X+
 1094 0654 9C91      		ld r25,X
 1095 0656 1597      		sbiw r26,4+1
 1096               	.L60:
 1097 0658 8483      		std Z+4,r24
 1098 065a 9583      		std Z+5,r25
 1099 065c A683      		std Z+6,r26
 1100 065e B783      		std Z+7,r27
 1101               	.L58:
 1102 0660 0E94 0000 		call fprintf
 1103 0664 ADB7      		in r26,__SP_L__
 1104 0666 BEB7      		in r27,__SP_H__
 1105 0668 1896      		adiw r26,8
 1106               	.L59:
 1107 066a ADBF      		out __SP_L__,r26
 1108 066c BEBF      		out __SP_H__,r27
 1109 066e 00C0      		rjmp .L54
 1110               	.L49:
 1111               	.LM86:
 1112 0670 00D0      		rcall .
 1113 0672 00D0      		rcall .
 1114 0674 EDB7      		in r30,__SP_L__
 1115 0676 FEB7      		in r31,__SP_H__
 1116 0678 3196      		adiw r30,1
 1117 067a ADB7      		in r26,__SP_L__
 1118 067c BEB7      		in r27,__SP_H__
 1119 067e 1196      		adiw r26,1
 1120 0680 0D93      		st X+,r16
 1121 0682 1C93      		st X,r17
 1122 0684 1297      		sbiw r26,1+1
 1123 0686 80E0      		ldi r24,lo8(.LC18)
 1124 0688 90E0      		ldi r25,hi8(.LC18)
 1125 068a 8283      		std Z+2,r24
 1126 068c 9383      		std Z+3,r25
 1127 068e 8881      		ld r24,Y
 1128 0690 9981      		ldd r25,Y+1
 1129 0692 8483      		std Z+4,r24
 1130 0694 9583      		std Z+5,r25
 1131 0696 0E94 0000 		call fprintf
 1132 069a ADB7      		in r26,__SP_L__
 1133 069c BEB7      		in r27,__SP_H__
 1134 069e 1696      		adiw r26,6
 1135 06a0 00C0      		rjmp .L59
 1136               	.L50:
 1137               	.LM87:
 1138 06a2 A881      		ld r26,Y
 1139 06a4 B981      		ldd r27,Y+1
 1140 06a6 CDB7      		in r28,__SP_L__
 1141 06a8 DEB7      		in r29,__SP_H__
 1142 06aa 2897      		sbiw r28,8
 1143 06ac CDBF      		out __SP_L__,r28
 1144 06ae DEBF      		out __SP_H__,r29
 1145 06b0 EDB7      		in r30,__SP_L__
 1146 06b2 FEB7      		in r31,__SP_H__
 1147 06b4 3196      		adiw r30,1
 1148 06b6 0983      		std Y+1,r16
 1149 06b8 1A83      		std Y+2,r17
 1150 06ba 80E0      		ldi r24,lo8(.LC19)
 1151 06bc 90E0      		ldi r25,hi8(.LC19)
 1152 06be 00C0      		rjmp .L61
 1153               	.L51:
 1154               	.LM88:
 1155 06c0 A881      		ld r26,Y
 1156 06c2 B981      		ldd r27,Y+1
 1157 06c4 CDB7      		in r28,__SP_L__
 1158 06c6 DEB7      		in r29,__SP_H__
 1159 06c8 2897      		sbiw r28,8
 1160 06ca CDBF      		out __SP_L__,r28
 1161 06cc DEBF      		out __SP_H__,r29
 1162 06ce EDB7      		in r30,__SP_L__
 1163 06d0 FEB7      		in r31,__SP_H__
 1164 06d2 3196      		adiw r30,1
 1165 06d4 0983      		std Y+1,r16
 1166 06d6 1A83      		std Y+2,r17
 1167 06d8 80E0      		ldi r24,lo8(.LC20)
 1168 06da 90E0      		ldi r25,hi8(.LC20)
 1169               	.L61:
 1170 06dc 8283      		std Z+2,r24
 1171 06de 9383      		std Z+3,r25
 1172 06e0 1296      		adiw r26,2
 1173 06e2 8D91      		ld r24,X+
 1174 06e4 9C91      		ld r25,X
 1175 06e6 1397      		sbiw r26,2+1
 1176 06e8 00C0      		rjmp .L60
 1177               	.L63:
 1178               	.LM89:
 1179 06ea E881      		ld r30,Y
 1180 06ec F981      		ldd r31,Y+1
 1181 06ee EE0F      		lsl r30
 1182 06f0 FF1F      		rol r31
 1183 06f2 E050      		subi r30,lo8(-(tuple_names))
 1184 06f4 F040      		sbci r31,hi8(-(tuple_names))
 1185 06f6 8081      		ld r24,Z
 1186 06f8 9181      		ldd r25,Z+1
 1187 06fa B801      		movw r22,r16
 1188 06fc 0E94 0000 		call fputs
 1189 0700 00C0      		rjmp .L54
 1190               	.L43:
 1191               	.LM90:
 1192 0702 80E0      		ldi r24,lo8(.LC9)
 1193 0704 90E0      		ldi r25,hi8(.LC9)
 1194 0706 6BEC      		ldi r22,lo8(1483)
 1195 0708 75E0      		ldi r23,hi8(1483)
 1196 070a 40E0      		ldi r20,lo8(.LC10)
 1197 070c 50E0      		ldi r21,hi8(.LC10)
 1198 070e 0E94 0000 		call __myassert
 1199               	.L54:
 1200               	.LBE204:
 1201               	.LM91:
 1202 0712 0894      		sec
 1203 0714 E11C      		adc r14,__zero_reg__
 1204 0716 F11C      		adc r15,__zero_reg__
 1205 0718 0894      		sec
 1206 071a C11C      		adc r12,__zero_reg__
 1207 071c D11C      		adc r13,__zero_reg__
 1208               	.L41:
 1209 071e E401      		movw r28,r8
 1210 0720 8881      		ld r24,Y
 1211 0722 90E0      		ldi r25,lo8(0)
 1212 0724 E816      		cp r14,r24
 1213 0726 F906      		cpc r15,r25
 1214 0728 04F4      		brge .+2
 1215 072a 00C0      		rjmp .L55
 1216               	.LM92:
 1217 072c 89E2      		ldi r24,lo8(41)
 1218 072e 90E0      		ldi r25,hi8(41)
 1219 0730 B801      		movw r22,r16
 1220 0732 0E94 0000 		call fputc
 1221               	/* epilogue start */
 1222               	.LM93:
 1223 0736 DF91      		pop r29
 1224 0738 CF91      		pop r28
 1225 073a 1F91      		pop r17
 1226 073c 0F91      		pop r16
 1227 073e FF90      		pop r15
 1228 0740 EF90      		pop r14
 1229 0742 DF90      		pop r13
 1230 0744 CF90      		pop r12
 1231 0746 BF90      		pop r11
 1232 0748 AF90      		pop r10
 1233 074a 9F90      		pop r9
 1234 074c 8F90      		pop r8
 1235 074e 7F90      		pop r7
 1236 0750 6F90      		pop r6
 1237 0752 5F90      		pop r5
 1238 0754 4F90      		pop r4
 1239 0756 3F90      		pop r3
 1240 0758 2F90      		pop r2
 1241 075a 0895      		ret
 1242               	.LFE46:
 1244               		.data
 1245               	.LC21:
 1246 0113 7475 706C 		.string	"tuple %s (type %d)\n"
 1246      6520 2573 
 1246      2028 7479 
 1246      7065 2025 
 1246      6429 0A00 
 1247               	.LC22:
 1248 0127 2020 00   		.string	"  "
 1249               	.LC23:
 1250 012a 7825 640A 		.string	"x%d\n"
 1250      00
 1251               		.text
 1252               	.global	facts_dump
 1254               	facts_dump:
 1255               	.LFB47:
 1256               	.LM94:
 1257 075c 6F92      		push r6
 1258 075e 7F92      		push r7
 1259 0760 8F92      		push r8
 1260 0762 9F92      		push r9
 1261 0764 AF92      		push r10
 1262 0766 BF92      		push r11
 1263 0768 CF92      		push r12
 1264 076a DF92      		push r13
 1265 076c EF92      		push r14
 1266 076e FF92      		push r15
 1267 0770 0F93      		push r16
 1268 0772 1F93      		push r17
 1269 0774 CF93      		push r28
 1270 0776 DF93      		push r29
 1271               	/* prologue: function */
 1272               	/* frame size = 0 */
 1273               	.LM95:
 1274 0778 8091 0000 		lds r24,meld_prog
 1275 077c A82E      		mov r10,r24
 1276 077e BB24      		clr r11
 1277 0780 30E0      		ldi r19,lo8(tuple_names)
 1278 0782 C32E      		mov r12,r19
 1279 0784 30E0      		ldi r19,hi8(tuple_names)
 1280 0786 D32E      		mov r13,r19
 1281 0788 EE24      		clr r14
 1282 078a FF24      		clr r15
 1283 078c 00E0      		ldi r16,lo8(0)
 1284 078e 10E0      		ldi r17,hi8(0)
 1285               	.LBB205:
 1286               	.LM96:
 1287 0790 20E0      		ldi r18,lo8(.LC21)
 1288 0792 622E      		mov r6,r18
 1289 0794 20E0      		ldi r18,hi8(.LC21)
 1290 0796 722E      		mov r7,r18
 1291               	.LM97:
 1292 0798 90E0      		ldi r25,lo8(.LC23)
 1293 079a 892E      		mov r8,r25
 1294 079c 90E0      		ldi r25,hi8(.LC23)
 1295 079e 992E      		mov r9,r25
 1296 07a0 00C0      		rjmp .L65
 1297               	.L69:
 1298               	.LM98:
 1299 07a2 E091 0000 		lds r30,tuples
 1300 07a6 F091 0000 		lds r31,(tuples)+1
 1301 07aa E00F      		add r30,r16
 1302 07ac F11F      		adc r31,r17
 1303 07ae 8081      		ld r24,Z
 1304 07b0 9181      		ldd r25,Z+1
 1305 07b2 892B      		or r24,r25
 1306 07b4 01F4      		brne .+2
 1307 07b6 00C0      		rjmp .L66
 1308               	.LM99:
 1309 07b8 8DB7      		in r24,__SP_L__
 1310 07ba 9EB7      		in r25,__SP_H__
 1311 07bc 0897      		sbiw r24,8
 1312 07be 8DBF      		out __SP_L__,r24
 1313 07c0 9EBF      		out __SP_H__,r25
 1314 07c2 EDB7      		in r30,__SP_L__
 1315 07c4 FEB7      		in r31,__SP_H__
 1316 07c6 3196      		adiw r30,1
 1317 07c8 8091 0000 		lds r24,__iob+4
 1318 07cc 9091 0000 		lds r25,(__iob+4)+1
 1319 07d0 ADB7      		in r26,__SP_L__
 1320 07d2 BEB7      		in r27,__SP_H__
 1321 07d4 1196      		adiw r26,1
 1322 07d6 8D93      		st X+,r24
 1323 07d8 9C93      		st X,r25
 1324 07da 1297      		sbiw r26,1+1
 1325 07dc 6282      		std Z+2,r6
 1326 07de 7382      		std Z+3,r7
 1327 07e0 D601      		movw r26,r12
 1328 07e2 8D91      		ld r24,X+
 1329 07e4 9C91      		ld r25,X
 1330 07e6 8483      		std Z+4,r24
 1331 07e8 9583      		std Z+5,r25
 1332 07ea E682      		std Z+6,r14
 1333 07ec F782      		std Z+7,r15
 1334 07ee 0E94 0000 		call fprintf
 1335               	.LM100:
 1336 07f2 E091 0000 		lds r30,tuples
 1337 07f6 F091 0000 		lds r31,(tuples)+1
 1338 07fa E00F      		add r30,r16
 1339 07fc F11F      		adc r31,r17
 1340 07fe C081      		ld r28,Z
 1341 0800 D181      		ldd r29,Z+1
 1342 0802 8DB7      		in r24,__SP_L__
 1343 0804 9EB7      		in r25,__SP_H__
 1344 0806 0896      		adiw r24,8
 1345 0808 00C0      		rjmp .L71
 1346               	.L68:
 1347               	.LM101:
 1348 080a 6091 0000 		lds r22,__iob+4
 1349 080e 7091 0000 		lds r23,(__iob+4)+1
 1350 0812 80E0      		ldi r24,lo8(.LC22)
 1351 0814 90E0      		ldi r25,hi8(.LC22)
 1352 0816 0E94 0000 		call fputs
 1353               	.LM102:
 1354 081a 6091 0000 		lds r22,__iob+4
 1355 081e 7091 0000 		lds r23,(__iob+4)+1
 1356 0822 8C81      		ldd r24,Y+4
 1357 0824 9D81      		ldd r25,Y+5
 1358 0826 0E94 0000 		call tuple_print
 1359               	.LM103:
 1360 082a 00D0      		rcall .
 1361 082c 00D0      		rcall .
 1362 082e EDB7      		in r30,__SP_L__
 1363 0830 FEB7      		in r31,__SP_H__
 1364 0832 3196      		adiw r30,1
 1365 0834 8091 0000 		lds r24,__iob+4
 1366 0838 9091 0000 		lds r25,(__iob+4)+1
 1367 083c ADB7      		in r26,__SP_L__
 1368 083e BEB7      		in r27,__SP_H__
 1369 0840 1196      		adiw r26,1
 1370 0842 8D93      		st X+,r24
 1371 0844 9C93      		st X,r25
 1372 0846 1297      		sbiw r26,1+1
 1373 0848 8282      		std Z+2,r8
 1374 084a 9382      		std Z+3,r9
 1375 084c 8A81      		ldd r24,Y+2
 1376 084e 9B81      		ldd r25,Y+3
 1377 0850 8483      		std Z+4,r24
 1378 0852 9583      		std Z+5,r25
 1379 0854 0E94 0000 		call fprintf
 1380               	.LM104:
 1381 0858 0990      		ld __tmp_reg__,Y+
 1382 085a D881      		ld r29,Y
 1383 085c C02D      		mov r28,__tmp_reg__
 1384 085e 8DB7      		in r24,__SP_L__
 1385 0860 9EB7      		in r25,__SP_H__
 1386 0862 0696      		adiw r24,6
 1387               	.L71:
 1388 0864 8DBF      		out __SP_L__,r24
 1389 0866 9EBF      		out __SP_H__,r25
 1390 0868 2097      		sbiw r28,0
 1391 086a 01F4      		brne .L68
 1392               	.L66:
 1393               	.LBE205:
 1394               	.LM105:
 1395 086c 0894      		sec
 1396 086e E11C      		adc r14,__zero_reg__
 1397 0870 F11C      		adc r15,__zero_reg__
 1398 0872 0C5F      		subi r16,lo8(-(4))
 1399 0874 1F4F      		sbci r17,hi8(-(4))
 1400 0876 A2E0      		ldi r26,lo8(2)
 1401 0878 B0E0      		ldi r27,hi8(2)
 1402 087a CA0E      		add r12,r26
 1403 087c DB1E      		adc r13,r27
 1404               	.L65:
 1405 087e EA14      		cp r14,r10
 1406 0880 FB04      		cpc r15,r11
 1407 0882 04F4      		brge .+2
 1408 0884 00C0      		rjmp .L69
 1409               	/* epilogue start */
 1410               	.LM106:
 1411 0886 DF91      		pop r29
 1412 0888 CF91      		pop r28
 1413 088a 1F91      		pop r17
 1414 088c 0F91      		pop r16
 1415 088e FF90      		pop r15
 1416 0890 EF90      		pop r14
 1417 0892 DF90      		pop r13
 1418 0894 CF90      		pop r12
 1419 0896 BF90      		pop r11
 1420 0898 AF90      		pop r10
 1421 089a 9F90      		pop r9
 1422 089c 8F90      		pop r8
 1423 089e 7F90      		pop r7
 1424 08a0 6F90      		pop r6
 1425 08a2 0895      		ret
 1426               	.LFE47:
 1428               	.global	init_fields
 1430               	init_fields:
 1431               	.LFB31:
 1432               	.LM107:
 1433 08a4 4F92      		push r4
 1434 08a6 5F92      		push r5
 1435 08a8 6F92      		push r6
 1436 08aa 7F92      		push r7
 1437 08ac 9F92      		push r9
 1438 08ae AF92      		push r10
 1439 08b0 BF92      		push r11
 1440 08b2 CF92      		push r12
 1441 08b4 DF92      		push r13
 1442 08b6 EF92      		push r14
 1443 08b8 FF92      		push r15
 1444 08ba 0F93      		push r16
 1445 08bc 1F93      		push r17
 1446 08be CF93      		push r28
 1447 08c0 DF93      		push r29
 1448               	/* prologue: function */
 1449               	/* frame size = 0 */
 1450               	.LM108:
 1451 08c2 8091 0000 		lds r24,meld_prog
 1452 08c6 90E0      		ldi r25,lo8(0)
 1453 08c8 EC01      		movw r28,r24
 1454               	.LVL51:
 1455 08ca CC0F      		lsl r28
 1456 08cc DD1F      		rol r29
 1457 08ce A0E0      		ldi r26,lo8(meld_prog+1)
 1458 08d0 B0E0      		ldi r27,hi8(meld_prog+1)
 1459 08d2 9E01      		movw r18,r28
 1460               	.LM109:
 1461 08d4 AC01      		movw r20,r24
 1462 08d6 4A0F      		add r20,r26
 1463 08d8 5B1F      		adc r21,r27
 1464 08da 00C0      		rjmp .L73
 1465               	.LVL52:
 1466               	.L74:
 1467               	.LM110:
 1468 08dc ED91      		ld r30,X+
 1469 08de F0E0      		ldi r31,lo8(0)
 1470 08e0 E050      		subi r30,lo8(-(meld_prog+5))
 1471 08e2 F040      		sbci r31,hi8(-(meld_prog+5))
 1472 08e4 8081      		ld r24,Z
 1473 08e6 90E0      		ldi r25,lo8(0)
 1474 08e8 880F      		lsl r24
 1475 08ea 991F      		rol r25
 1476 08ec 280F      		add r18,r24
 1477 08ee 391F      		adc r19,r25
 1478               	.LVL53:
 1479               	.L73:
 1480               	.LM111:
 1481 08f0 A417      		cp r26,r20
 1482 08f2 B507      		cpc r27,r21
 1483 08f4 01F4      		brne .L74
 1484               	.LM112:
 1485 08f6 C901      		movw r24,r18
 1486 08f8 0E94 0000 		call malloc
 1487               	.LVL54:
 1488 08fc 8093 0000 		sts arguments,r24
 1489 0900 9093 0000 		sts (arguments)+1,r25
 1490               	.LM113:
 1491 0904 7C01      		movw r14,r24
 1492               	.LVL55:
 1493 0906 EC0E      		add r14,r28
 1494 0908 FD1E      		adc r15,r29
 1495 090a 51E0      		ldi r21,lo8(1)
 1496 090c A52E      		mov r10,r21
 1497 090e B12C      		mov r11,__zero_reg__
 1498 0910 CC24      		clr r12
 1499 0912 DD24      		clr r13
 1500               	.LM114:
 1501 0914 8091 0000 		lds r24,meld_prog
 1502 0918 482E      		mov r4,r24
 1503 091a 5524      		clr r5
 1504 091c 00C0      		rjmp .L75
 1505               	.LVL56:
 1506               	.L83:
 1507               	.LM115:
 1508 091e 8091 0000 		lds r24,arguments
 1509 0922 9091 0000 		lds r25,(arguments)+1
 1510 0926 FC01      		movw r30,r24
 1511 0928 EC0D      		add r30,r12
 1512 092a FD1D      		adc r31,r13
 1513 092c 2E2D      		mov r18,r14
 1514               	.LVL57:
 1515 092e 281B      		sub r18,r24
 1516 0930 2083      		st Z,r18
 1517 0932 00E0      		ldi r16,lo8(0)
 1518 0934 10E0      		ldi r17,hi8(0)
 1519 0936 9924      		clr r9
 1520               	.LM116:
 1521 0938 F501      		movw r30,r10
 1522 093a E050      		subi r30,lo8(-(meld_prog))
 1523 093c F040      		sbci r31,hi8(-(meld_prog))
 1524 093e 8081      		ld r24,Z
 1525 0940 C82F      		mov r28,r24
 1526               	.LVL58:
 1527 0942 D0E0      		ldi r29,lo8(0)
 1528 0944 C050      		subi r28,lo8(-(meld_prog))
 1529 0946 D040      		sbci r29,hi8(-(meld_prog))
 1530 0948 45E0      		ldi r20,lo8(5)
 1531 094a 642E      		mov r6,r20
 1532 094c 712C      		mov r7,__zero_reg__
 1533 094e 6C0E      		add r6,r28
 1534 0950 7D1E      		adc r7,r29
 1535 0952 00C0      		rjmp .L76
 1536               	.LVL59:
 1537               	.L82:
 1538               	.LM117:
 1539 0954 FE01      		movw r30,r28
 1540 0956 E00F      		add r30,r16
 1541 0958 F11F      		adc r31,r17
 1542 095a 8781      		ldd r24,Z+7
 1543 095c 8093 0000 		sts type,r24
 1544 0960 1092 0000 		sts type+1,__zero_reg__
 1545               	.LM118:
 1546 0964 8830      		cpi r24,lo8(8)
 1547 0966 00F4      		brsh .L80
 1548 0968 8230      		cpi r24,lo8(2)
 1549 096a 00F4      		brsh .L79
 1550 096c 00C0      		rjmp .L78
 1551               	.L80:
 1552 096e 8830      		cpi r24,lo8(8)
 1553 0970 01F4      		brne .L85
 1554 0972 00C0      		rjmp .L78
 1555               	.L79:
 1556 0974 82E0      		ldi r24,lo8(2)
 1557               	.LVL60:
 1558 0976 00C0      		rjmp .L81
 1559               	.LVL61:
 1560               	.L78:
 1561 0978 84E0      		ldi r24,lo8(4)
 1562               	.LVL62:
 1563 097a 00C0      		rjmp .L81
 1564               	.LVL63:
 1565               	.L85:
 1566               	.LM119:
 1567 097c 80E0      		ldi r24,lo8(.LC9)
 1568 097e 90E0      		ldi r25,hi8(.LC9)
 1569 0980 6BEC      		ldi r22,lo8(203)
 1570 0982 70E0      		ldi r23,hi8(203)
 1571 0984 40E0      		ldi r20,lo8(.LC10)
 1572 0986 50E0      		ldi r21,hi8(.LC10)
 1573 0988 0E94 0000 		call __myassert
 1574 098c 80E0      		ldi r24,lo8(0)
 1575               	.LVL64:
 1576               	.L81:
 1577               	.LM120:
 1578 098e F701      		movw r30,r14
 1579 0990 8083      		st Z,r24
 1580               	.LM121:
 1581 0992 9182      		std Z+1,r9
 1582               	.LM122:
 1583 0994 980E      		add r9,r24
 1584               	.LM123:
 1585 0996 82E0      		ldi r24,lo8(2)
 1586 0998 90E0      		ldi r25,hi8(2)
 1587               	.LVL65:
 1588 099a E80E      		add r14,r24
 1589 099c F91E      		adc r15,r25
 1590               	.LM124:
 1591 099e 0F5F      		subi r16,lo8(-(1))
 1592 09a0 1F4F      		sbci r17,hi8(-(1))
 1593               	.L76:
 1594 09a2 F301      		movw r30,r6
 1595 09a4 8081      		ld r24,Z
 1596 09a6 90E0      		ldi r25,lo8(0)
 1597 09a8 0817      		cp r16,r24
 1598 09aa 1907      		cpc r17,r25
 1599 09ac 04F0      		brlt .L82
 1600               	.LM125:
 1601 09ae E091 0000 		lds r30,arguments
 1602 09b2 F091 0000 		lds r31,(arguments)+1
 1603 09b6 EC0D      		add r30,r12
 1604 09b8 FD1D      		adc r31,r13
 1605 09ba 9394      		inc r9
 1606 09bc 9182      		std Z+1,r9
 1607 09be 0894      		sec
 1608 09c0 A11C      		adc r10,__zero_reg__
 1609 09c2 B11C      		adc r11,__zero_reg__
 1610 09c4 82E0      		ldi r24,lo8(2)
 1611 09c6 90E0      		ldi r25,hi8(2)
 1612 09c8 C80E      		add r12,r24
 1613 09ca D91E      		adc r13,r25
 1614               	.LVL66:
 1615               	.L75:
 1616               	.LM126:
 1617 09cc C501      		movw r24,r10
 1618 09ce 0197      		sbiw r24,1
 1619 09d0 8415      		cp r24,r4
 1620 09d2 9505      		cpc r25,r5
 1621 09d4 04F4      		brge .+2
 1622 09d6 00C0      		rjmp .L83
 1623               	/* epilogue start */
 1624               	.LM127:
 1625 09d8 DF91      		pop r29
 1626 09da CF91      		pop r28
 1627               	.LVL67:
 1628 09dc 1F91      		pop r17
 1629 09de 0F91      		pop r16
 1630               	.LVL68:
 1631 09e0 FF90      		pop r15
 1632 09e2 EF90      		pop r14
 1633               	.LVL69:
 1634 09e4 DF90      		pop r13
 1635 09e6 CF90      		pop r12
 1636 09e8 BF90      		pop r11
 1637 09ea AF90      		pop r10
 1638 09ec 9F90      		pop r9
 1639               	.LVL70:
 1640 09ee 7F90      		pop r7
 1641 09f0 6F90      		pop r6
 1642 09f2 5F90      		pop r5
 1643 09f4 4F90      		pop r4
 1644 09f6 0895      		ret
 1645               	.LFE31:
 1647               	.global	init_deltas
 1649               	init_deltas:
 1650               	.LFB30:
 1651               	.LM128:
 1652 09f8 CF92      		push r12
 1653 09fa DF92      		push r13
 1654 09fc EF92      		push r14
 1655 09fe FF92      		push r15
 1656 0a00 0F93      		push r16
 1657 0a02 1F93      		push r17
 1658 0a04 CF93      		push r28
 1659 0a06 DF93      		push r29
 1660               	/* prologue: function */
 1661               	/* frame size = 0 */
 1662               	.LM129:
 1663 0a08 E090 0000 		lds r14,meld_prog
 1664 0a0c FF24      		clr r15
 1665 0a0e 8701      		movw r16,r14
 1666 0a10 000F      		lsl r16
 1667 0a12 111F      		rol r17
 1668 0a14 C801      		movw r24,r16
 1669 0a16 0E94 0000 		call malloc
 1670 0a1a 8093 0000 		sts deltas,r24
 1671 0a1e 9093 0000 		sts deltas+1,r25
 1672               	.LM130:
 1673 0a22 C801      		movw r24,r16
 1674 0a24 0E94 0000 		call malloc
 1675 0a28 AC01      		movw r20,r24
 1676 0a2a 8093 0000 		sts delta_sizes,r24
 1677 0a2e 9093 0000 		sts (delta_sizes)+1,r25
 1678               	.LM131:
 1679 0a32 C090 0000 		lds r12,deltas
 1680 0a36 D090 0000 		lds r13,(deltas)+1
 1681 0a3a 00E0      		ldi r16,lo8(meld_prog+1)
 1682 0a3c 10E0      		ldi r17,hi8(meld_prog+1)
 1683 0a3e C0E0      		ldi r28,lo8(0)
 1684 0a40 D0E0      		ldi r29,hi8(0)
 1685               	.LVL71:
 1686 0a42 60E0      		ldi r22,lo8(0)
 1687 0a44 70E0      		ldi r23,hi8(0)
 1688 0a46 00C0      		rjmp .L87
 1689               	.L88:
 1690               	.LM132:
 1691 0a48 2196      		adiw r28,1
 1692 0a4a FA01      		movw r30,r20
 1693 0a4c E60F      		add r30,r22
 1694 0a4e F71F      		adc r31,r23
 1695 0a50 D801      		movw r26,r16
 1696 0a52 8D91      		ld r24,X+
 1697 0a54 8D01      		movw r16,r26
 1698 0a56 90E0      		ldi r25,lo8(0)
 1699 0a58 DC01      		movw r26,r24
 1700 0a5a A050      		subi r26,lo8(-(meld_prog))
 1701 0a5c B040      		sbci r27,hi8(-(meld_prog))
 1702 0a5e 1696      		adiw r26,6
 1703 0a60 2C91      		ld r18,X
 1704 0a62 1697      		sbiw r26,6
 1705 0a64 2083      		st Z,r18
 1706 0a66 1182      		std Z+1,__zero_reg__
 1707               	.LM133:
 1708 0a68 F601      		movw r30,r12
 1709 0a6a E60F      		add r30,r22
 1710 0a6c F71F      		adc r31,r23
 1711 0a6e 0796      		adiw r24,7
 1712 0a70 1596      		adiw r26,5
 1713 0a72 2C91      		ld r18,X
 1714 0a74 820F      		add r24,r18
 1715 0a76 911D      		adc r25,__zero_reg__
 1716 0a78 8050      		subi r24,lo8(-(meld_prog))
 1717 0a7a 9040      		sbci r25,hi8(-(meld_prog))
 1718 0a7c 8083      		st Z,r24
 1719 0a7e 9183      		std Z+1,r25
 1720 0a80 6E5F      		subi r22,lo8(-(2))
 1721 0a82 7F4F      		sbci r23,hi8(-(2))
 1722               	.L87:
 1723               	.LM134:
 1724 0a84 CE15      		cp r28,r14
 1725 0a86 DF05      		cpc r29,r15
 1726 0a88 04F0      		brlt .L88
 1727               	/* epilogue start */
 1728               	.LM135:
 1729 0a8a DF91      		pop r29
 1730 0a8c CF91      		pop r28
 1731               	.LVL72:
 1732 0a8e 1F91      		pop r17
 1733 0a90 0F91      		pop r16
 1734 0a92 FF90      		pop r15
 1735 0a94 EF90      		pop r14
 1736 0a96 DF90      		pop r13
 1737 0a98 CF90      		pop r12
 1738 0a9a 0895      		ret
 1739               	.LFE30:
 1741               	.global	p_enqueue
 1743               	p_enqueue:
 1744               	.LFB29:
 1745               	.LM136:
 1746               	.LVL73:
 1747 0a9c 6F92      		push r6
 1748 0a9e 7F92      		push r7
 1749 0aa0 8F92      		push r8
 1750 0aa2 9F92      		push r9
 1751 0aa4 AF92      		push r10
 1752 0aa6 BF92      		push r11
 1753 0aa8 CF92      		push r12
 1754 0aaa DF92      		push r13
 1755 0aac EF92      		push r14
 1756               	.LVL74:
 1757 0aae FF92      		push r15
 1758 0ab0 0F93      		push r16
 1759               	.LVL75:
 1760 0ab2 1F93      		push r17
 1761 0ab4 CF93      		push r28
 1762 0ab6 DF93      		push r29
 1763               	/* prologue: function */
 1764               	/* frame size = 0 */
 1765 0ab8 B82E      		mov r11,r24
 1766 0aba A92E      		mov r10,r25
 1767               	.LVL76:
 1768 0abc 3A01      		movw r6,r20
 1769 0abe 4B01      		movw r8,r22
 1770 0ac0 6901      		movw r12,r18
 1771               	.LM137:
 1772 0ac2 8CE0      		ldi r24,lo8(12)
 1773 0ac4 90E0      		ldi r25,hi8(12)
 1774               	.LVL77:
 1775 0ac6 0E94 0000 		call malloc
 1776               	.LVL78:
 1777 0aca FC01      		movw r30,r24
 1778               	.LM138:
 1779 0acc C086      		std Z+8,r12
 1780 0ace D186      		std Z+9,r13
 1781               	.LVL79:
 1782               	.LM139:
 1783 0ad0 E682      		std Z+6,r14
 1784 0ad2 F782      		std Z+7,r15
 1785               	.LVL80:
 1786               	.LM140:
 1787 0ad4 6082      		st Z,r6
 1788 0ad6 7182      		std Z+1,r7
 1789 0ad8 8282      		std Z+2,r8
 1790 0ada 9382      		std Z+3,r9
 1791               	.LM141:
 1792 0adc 0287      		std Z+10,r16
 1793 0ade 1387      		std Z+11,r17
 1794               	.LVL81:
 1795               	.LM142:
 1796 0ae0 8B2D      		mov r24,r11
 1797               	.LVL82:
 1798 0ae2 9A2D      		mov r25,r10
 1799               	.LVL83:
 1800 0ae4 9C01      		movw r18,r24
 1801 0ae6 D901      		movw r26,r18
 1802 0ae8 CD91      		ld r28,X+
 1803 0aea DC91      		ld r29,X
 1804 0aec 00C0      		rjmp .L91
 1805               	.LVL84:
 1806               	.L93:
 1807               	.LM143:
 1808 0aee 9E01      		movw r18,r28
 1809 0af0 2C5F      		subi r18,lo8(-(4))
 1810 0af2 3F4F      		sbci r19,hi8(-(4))
 1811 0af4 0C80      		ldd __tmp_reg__,Y+4
 1812 0af6 DD81      		ldd r29,Y+5
 1813 0af8 C02D      		mov r28,__tmp_reg__
 1814               	.LVL85:
 1815               	.L91:
 1816               	.LM144:
 1817 0afa 2097      		sbiw r28,0
 1818 0afc 01F0      		breq .L92
 1819 0afe 8881      		ld r24,Y
 1820 0b00 9981      		ldd r25,Y+1
 1821 0b02 AA81      		ldd r26,Y+2
 1822 0b04 BB81      		ldd r27,Y+3
 1823 0b06 8615      		cp r24,r6
 1824 0b08 9705      		cpc r25,r7
 1825 0b0a A805      		cpc r26,r8
 1826 0b0c B905      		cpc r27,r9
 1827 0b0e 04F0      		brlt .L93
 1828               	.LVL86:
 1829               	.L92:
 1830               	.LM145:
 1831 0b10 C483      		std Z+4,r28
 1832 0b12 D583      		std Z+5,r29
 1833               	.LM146:
 1834 0b14 D901      		movw r26,r18
 1835 0b16 ED93      		st X+,r30
 1836 0b18 FC93      		st X,r31
 1837               	/* epilogue start */
 1838               	.LM147:
 1839 0b1a DF91      		pop r29
 1840 0b1c CF91      		pop r28
 1841 0b1e 1F91      		pop r17
 1842 0b20 0F91      		pop r16
 1843               	.LVL87:
 1844 0b22 FF90      		pop r15
 1845 0b24 EF90      		pop r14
 1846               	.LVL88:
 1847 0b26 DF90      		pop r13
 1848 0b28 CF90      		pop r12
 1849               	.LVL89:
 1850 0b2a BF90      		pop r11
 1851               	.LVL90:
 1852 0b2c AF90      		pop r10
 1853               	.LVL91:
 1854 0b2e 9F90      		pop r9
 1855 0b30 8F90      		pop r8
 1856 0b32 7F90      		pop r7
 1857 0b34 6F90      		pop r6
 1858               	.LVL92:
 1859 0b36 0895      		ret
 1860               	.LFE29:
 1862               	.global	queue_enqueue
 1864               	queue_enqueue:
 1865               	.LFB26:
 1866               	.LM148:
 1867               	.LVL93:
 1868 0b38 EF92      		push r14
 1869 0b3a FF92      		push r15
 1870 0b3c 0F93      		push r16
 1871 0b3e 1F93      		push r17
 1872 0b40 CF93      		push r28
 1873 0b42 DF93      		push r29
 1874               	/* prologue: function */
 1875               	/* frame size = 0 */
 1876 0b44 EC01      		movw r28,r24
 1877 0b46 8B01      		movw r16,r22
 1878 0b48 7A01      		movw r14,r20
 1879               	.LM149:
 1880 0b4a 86E0      		ldi r24,lo8(6)
 1881 0b4c 90E0      		ldi r25,hi8(6)
 1882               	.LVL94:
 1883 0b4e 0E94 0000 		call malloc
 1884               	.LVL95:
 1885 0b52 DC01      		movw r26,r24
 1886               	.LM150:
 1887 0b54 1496      		adiw r26,4
 1888 0b56 0D93      		st X+,r16
 1889 0b58 1C93      		st X,r17
 1890 0b5a 1597      		sbiw r26,4+1
 1891               	.LVL96:
 1892               	.LM151:
 1893 0b5c 1296      		adiw r26,2
 1894 0b5e ED92      		st X+,r14
 1895 0b60 FC92      		st X,r15
 1896 0b62 1397      		sbiw r26,2+1
 1897               	.LM152:
 1898 0b64 1D92      		st X+,__zero_reg__
 1899 0b66 1C92      		st X,__zero_reg__
 1900 0b68 1197      		sbiw r26,1
 1901               	.LBB206:
 1902               	.LBB207:
 1903               	.LM153:
 1904 0b6a 8881      		ld r24,Y
 1905 0b6c 9981      		ldd r25,Y+1
 1906 0b6e 892B      		or r24,r25
 1907 0b70 01F4      		brne .L96
 1908               	.LM154:
 1909 0b72 AA83      		std Y+2,r26
 1910 0b74 BB83      		std Y+3,r27
 1911 0b76 A883      		st Y,r26
 1912 0b78 B983      		std Y+1,r27
 1913 0b7a 00C0      		rjmp .L97
 1914               	.L96:
 1915               	.LM155:
 1916 0b7c EA81      		ldd r30,Y+2
 1917 0b7e FB81      		ldd r31,Y+3
 1918 0b80 A083      		st Z,r26
 1919 0b82 B183      		std Z+1,r27
 1920               	.LM156:
 1921 0b84 AA83      		std Y+2,r26
 1922 0b86 BB83      		std Y+3,r27
 1923               	.L97:
 1924               	.LBE207:
 1925               	.LBE206:
 1926               	.LM157:
 1927 0b88 CD01      		movw r24,r26
 1928               	.LVL97:
 1929               	/* epilogue start */
 1930 0b8a DF91      		pop r29
 1931 0b8c CF91      		pop r28
 1932               	.LVL98:
 1933 0b8e 1F91      		pop r17
 1934 0b90 0F91      		pop r16
 1935               	.LVL99:
 1936 0b92 FF90      		pop r15
 1937 0b94 EF90      		pop r14
 1938               	.LVL100:
 1939 0b96 0895      		ret
 1940               	.LFE26:
 1943               	queue_dequeue_pos:
 1944               	.LFB25:
 1945               	.LM158:
 1946               	.LVL101:
 1947 0b98 0F93      		push r16
 1948 0b9a 1F93      		push r17
 1949 0b9c CF93      		push r28
 1950 0b9e DF93      		push r29
 1951               	/* prologue: function */
 1952               	/* frame size = 0 */
 1953 0ba0 DC01      		movw r26,r24
 1954 0ba2 EB01      		movw r28,r22
 1955               	.LM159:
 1956 0ba4 E881      		ld r30,Y
 1957 0ba6 F981      		ldd r31,Y+1
 1958               	.LVL102:
 1959               	.LM160:
 1960 0ba8 2081      		ld r18,Z
 1961 0baa 3181      		ldd r19,Z+1
 1962               	.LVL103:
 1963               	.LM161:
 1964 0bac 1296      		adiw r26,2
 1965 0bae 8D91      		ld r24,X+
 1966 0bb0 9C91      		ld r25,X
 1967 0bb2 1397      		sbiw r26,2+1
 1968               	.LVL104:
 1969 0bb4 E817      		cp r30,r24
 1970 0bb6 F907      		cpc r31,r25
 1971 0bb8 01F4      		brne .L100
 1972               	.LVL105:
 1973               	.LM162:
 1974 0bba 8D91      		ld r24,X+
 1975 0bbc 9C91      		ld r25,X
 1976 0bbe 1197      		sbiw r26,1
 1977 0bc0 E817      		cp r30,r24
 1978 0bc2 F907      		cpc r31,r25
 1979 0bc4 01F4      		brne .L101
 1980               	.LM163:
 1981 0bc6 1296      		adiw r26,2
 1982 0bc8 1D92      		st X+,__zero_reg__
 1983 0bca 1C92      		st X,__zero_reg__
 1984 0bcc 1397      		sbiw r26,2+1
 1985 0bce 00C0      		rjmp .L100
 1986               	.L101:
 1987               	.LM164:
 1988 0bd0 1296      		adiw r26,2
 1989 0bd2 6D93      		st X+,r22
 1990 0bd4 7C93      		st X,r23
 1991 0bd6 1397      		sbiw r26,2+1
 1992               	.L100:
 1993               	.LM165:
 1994 0bd8 2883      		st Y,r18
 1995 0bda 3983      		std Y+1,r19
 1996               	.LM166:
 1997 0bdc 1481      		ldd r17,Z+4
 1998               	.LVL106:
 1999 0bde 0581      		ldd r16,Z+5
 2000               	.LVL107:
 2001               	.LM167:
 2002 0be0 CF01      		movw r24,r30
 2003 0be2 0E94 0000 		call free
 2004               	.LVL108:
 2005               	.LM168:
 2006 0be6 812F      		mov r24,r17
 2007 0be8 902F      		mov r25,r16
 2008               	/* epilogue start */
 2009 0bea DF91      		pop r29
 2010 0bec CF91      		pop r28
 2011               	.LVL109:
 2012 0bee 1F91      		pop r17
 2013               	.LVL110:
 2014 0bf0 0F91      		pop r16
 2015               	.LVL111:
 2016 0bf2 0895      		ret
 2017               	.LFE25:
 2019               	.global	queue_dequeue
 2021               	queue_dequeue:
 2022               	.LFB27:
 2023               	.LM169:
 2024               	.LVL112:
 2025 0bf4 0F93      		push r16
 2026 0bf6 1F93      		push r17
 2027 0bf8 CF93      		push r28
 2028 0bfa DF93      		push r29
 2029               	/* prologue: function */
 2030               	/* frame size = 0 */
 2031 0bfc DC01      		movw r26,r24
 2032 0bfe EB01      		movw r28,r22
 2033               	.LBB208:
 2034               	.LBB209:
 2035               	.LM170:
 2036 0c00 ED91      		ld r30,X+
 2037 0c02 FC91      		ld r31,X
 2038 0c04 1197      		sbiw r26,1
 2039               	.LVL113:
 2040 0c06 3097      		sbiw r30,0
 2041 0c08 01F0      		breq .L104
 2042               	.LVL114:
 2043               	.LM171:
 2044 0c0a 8081      		ld r24,Z
 2045 0c0c 9181      		ldd r25,Z+1
 2046 0c0e 8D93      		st X+,r24
 2047 0c10 9C93      		st X,r25
 2048 0c12 1197      		sbiw r26,1
 2049               	.LM172:
 2050 0c14 892B      		or r24,r25
 2051 0c16 01F4      		brne .L104
 2052               	.LM173:
 2053 0c18 1296      		adiw r26,2
 2054 0c1a 1D92      		st X+,__zero_reg__
 2055 0c1c 1C92      		st X,__zero_reg__
 2056 0c1e 1397      		sbiw r26,2+1
 2057               	.LVL115:
 2058               	.L104:
 2059               	.LBE209:
 2060               	.LBE208:
 2061               	.LM174:
 2062 0c20 1481      		ldd r17,Z+4
 2063               	.LVL116:
 2064 0c22 0581      		ldd r16,Z+5
 2065               	.LVL117:
 2066               	.LM175:
 2067 0c24 2097      		sbiw r28,0
 2068 0c26 01F0      		breq .L105
 2069               	.LM176:
 2070 0c28 8281      		ldd r24,Z+2
 2071 0c2a 9381      		ldd r25,Z+3
 2072 0c2c 8883      		st Y,r24
 2073 0c2e 9983      		std Y+1,r25
 2074               	.LVL118:
 2075               	.L105:
 2076               	.LM177:
 2077 0c30 CF01      		movw r24,r30
 2078 0c32 0E94 0000 		call free
 2079               	.LVL119:
 2080               	.LM178:
 2081 0c36 812F      		mov r24,r17
 2082 0c38 902F      		mov r25,r16
 2083               	/* epilogue start */
 2084 0c3a DF91      		pop r29
 2085 0c3c CF91      		pop r28
 2086               	.LVL120:
 2087 0c3e 1F91      		pop r17
 2088               	.LVL121:
 2089 0c40 0F91      		pop r16
 2090               	.LVL122:
 2091 0c42 0895      		ret
 2092               	.LFE27:
 2094               		.data
 2095               	.LC24:
 2096 012f 676F 7420 		.string	"got value %c\n"
 2096      7661 6C75 
 2096      6520 2563 
 2096      0A00 
 2097               		.text
 2099               	advance:
 2100               	.LFB33:
 2101               	.LM179:
 2102               	.LVL123:
 2103 0c44 CF93      		push r28
 2104 0c46 DF93      		push r29
 2105               	/* prologue: function */
 2106               	/* frame size = 0 */
 2107 0c48 EC01      		movw r28,r24
 2108               	.LM180:
 2109 0c4a 6881      		ld r22,Y
 2110 0c4c 262F      		mov r18,r22
 2111 0c4e 30E0      		ldi r19,lo8(0)
 2112 0c50 C901      		movw r24,r18
 2113               	.LVL124:
 2114 0c52 8C7F      		andi r24,lo8(252)
 2115 0c54 9070      		andi r25,hi8(252)
 2116 0c56 0897      		sbiw r24,8
 2117 0c58 01F4      		brne .L108
 2118               	.LBB210:
 2119               	.LM181:
 2120 0c5a 8A81      		ldd r24,Y+2
 2121 0c5c 90E0      		ldi r25,lo8(0)
 2122 0c5e 8F73      		andi r24,lo8(63)
 2123 0c60 9070      		andi r25,hi8(63)
 2124 0c62 0097      		sbiw r24,0
 2125 0c64 01F0      		breq .L109
 2126               	.LM182:
 2127 0c66 8130      		cpi r24,1
 2128 0c68 9105      		cpc r25,__zero_reg__
 2129 0c6a 01F0      		breq .L109
 2130               	.LM183:
 2131 0c6c 8230      		cpi r24,2
 2132 0c6e 9105      		cpc r25,__zero_reg__
 2133 0c70 01F0      		breq .L110
 2134               	.LM184:
 2135 0c72 0497      		sbiw r24,4
 2136 0c74 01F0      		breq .L110
 2137               	.LM185:
 2138 0c76 80E0      		ldi r24,lo8(.LC9)
 2139 0c78 90E0      		ldi r25,hi8(.LC9)
 2140 0c7a 6BEF      		ldi r22,lo8(251)
 2141 0c7c 70E0      		ldi r23,hi8(251)
 2142 0c7e 00C0      		rjmp .L163
 2143               	.L109:
 2144               	.LM186:
 2145 0c80 87E0      		ldi r24,lo8(7)
 2146 0c82 90E0      		ldi r25,hi8(7)
 2147               	.LVL125:
 2148 0c84 00C0      		rjmp .L143
 2149               	.LVL126:
 2150               	.L110:
 2151 0c86 85E0      		ldi r24,lo8(5)
 2152 0c88 90E0      		ldi r25,hi8(5)
 2153               	.LVL127:
 2154 0c8a 00C0      		rjmp .L143
 2155               	.LVL128:
 2156               	.L108:
 2157               	.LBE210:
 2158               	.LM187:
 2159 0c8c C901      		movw r24,r18
 2160 0c8e 807C      		andi r24,lo8(192)
 2161 0c90 9070      		andi r25,hi8(192)
 2162 0c92 803C      		cpi r24,192
 2163 0c94 9105      		cpc r25,__zero_reg__
 2164 0c96 01F0      		breq .+2
 2165 0c98 00C0      		rjmp .L113
 2166               	.LBB211:
 2167               	.LM188:
 2168 0c9a C901      		movw r24,r18
 2169 0c9c 8F73      		andi r24,lo8(63)
 2170 0c9e 9070      		andi r25,hi8(63)
 2171 0ca0 0097      		sbiw r24,0
 2172 0ca2 01F0      		breq .L114
 2173               	.LM189:
 2174 0ca4 8130      		cpi r24,1
 2175 0ca6 9105      		cpc r25,__zero_reg__
 2176 0ca8 01F0      		breq .L114
 2177               	.LM190:
 2178 0caa 8230      		cpi r24,2
 2179 0cac 9105      		cpc r25,__zero_reg__
 2180 0cae 01F0      		breq .L115
 2181               	.LM191:
 2182 0cb0 0497      		sbiw r24,4
 2183 0cb2 01F0      		breq .L115
 2184               	.LM192:
 2185 0cb4 65FF      		sbrs r22,5
 2186 0cb6 00C0      		rjmp .L116
 2187 0cb8 83E0      		ldi r24,lo8(3)
 2188 0cba 90E0      		ldi r25,hi8(3)
 2189               	.LVL129:
 2190 0cbc 00C0      		rjmp .L117
 2191               	.LVL130:
 2192               	.L116:
 2193               	.LM193:
 2194 0cbe 80E0      		ldi r24,lo8(.LC9)
 2195 0cc0 90E0      		ldi r25,hi8(.LC9)
 2196 0cc2 60E1      		ldi r22,lo8(272)
 2197 0cc4 71E0      		ldi r23,hi8(272)
 2198               	.LVL131:
 2199               	.L163:
 2200 0cc6 40E0      		ldi r20,lo8(.LC10)
 2201 0cc8 50E0      		ldi r21,hi8(.LC10)
 2202 0cca 0E94 0000 		call __myassert
 2203               	.LVL132:
 2204               	.LM194:
 2205 0cce 81E0      		ldi r24,lo8(1)
 2206 0cd0 90E0      		ldi r25,hi8(1)
 2207 0cd2 0E94 0000 		call exit
 2208               	.L114:
 2209 0cd6 87E0      		ldi r24,lo8(7)
 2210 0cd8 90E0      		ldi r25,hi8(7)
 2211               	.LVL133:
 2212 0cda 00C0      		rjmp .L117
 2213               	.LVL134:
 2214               	.L115:
 2215 0cdc 85E0      		ldi r24,lo8(5)
 2216 0cde 90E0      		ldi r25,hi8(5)
 2217               	.LVL135:
 2218               	.L117:
 2219               	.LM195:
 2220 0ce0 2981      		ldd r18,Y+1
 2221 0ce2 2695      		lsr r18
 2222 0ce4 2695      		lsr r18
 2223 0ce6 01F4      		brne .+2
 2224 0ce8 00C0      		rjmp .L158
 2225               	.L118:
 2226               	.LM196:
 2227 0cea 2130      		cpi r18,lo8(1)
 2228 0cec 01F4      		brne .+2
 2229 0cee 00C0      		rjmp .L158
 2230               	.L120:
 2231               	.LM197:
 2232 0cf0 2230      		cpi r18,lo8(2)
 2233 0cf2 01F4      		brne .+2
 2234 0cf4 00C0      		rjmp .L159
 2235               	.L121:
 2236               	.LM198:
 2237 0cf6 2430      		cpi r18,lo8(4)
 2238 0cf8 01F4      		brne .+2
 2239 0cfa 00C0      		rjmp .L159
 2240               	.L122:
 2241               	.LM199:
 2242 0cfc 30E0      		ldi r19,lo8(0)
 2243 0cfe 25FD      		sbrc r18,5
 2244 0d00 00C0      		rjmp .L143
 2245               	.LM200:
 2246 0d02 00D0      		rcall .
 2247 0d04 0F92      		push __tmp_reg__
 2248 0d06 80E0      		ldi r24,lo8(.LC24)
 2249 0d08 90E0      		ldi r25,hi8(.LC24)
 2250               	.LVL136:
 2251 0d0a EDB7      		in r30,__SP_L__
 2252 0d0c FEB7      		in r31,__SP_H__
 2253 0d0e 8183      		std Z+1,r24
 2254 0d10 9283      		std Z+2,r25
 2255 0d12 3070      		andi r19,hi8(255)
 2256 0d14 2383      		std Z+3,r18
 2257 0d16 3483      		std Z+4,r19
 2258 0d18 0E94 0000 		call printf
 2259               	.LM201:
 2260 0d1c 0F90      		pop __tmp_reg__
 2261 0d1e 0F90      		pop __tmp_reg__
 2262 0d20 0F90      		pop __tmp_reg__
 2263 0d22 0F90      		pop __tmp_reg__
 2264 0d24 80E0      		ldi r24,lo8(.LC9)
 2265 0d26 90E0      		ldi r25,hi8(.LC9)
 2266 0d28 61E2      		ldi r22,lo8(289)
 2267 0d2a 71E0      		ldi r23,hi8(289)
 2268 0d2c 00C0      		rjmp .L163
 2269               	.L113:
 2270               	.LBE211:
 2271               	.LM202:
 2272 0d2e A901      		movw r20,r18
 2273 0d30 407F      		andi r20,lo8(240)
 2274 0d32 5070      		andi r21,hi8(240)
 2275 0d34 4033      		cpi r20,48
 2276 0d36 5105      		cpc r21,__zero_reg__
 2277 0d38 01F0      		breq .+2
 2278 0d3a 00C0      		rjmp .L123
 2279               	.LBB212:
 2280               	.LM203:
 2281 0d3c 4981      		ldd r20,Y+1
 2282 0d3e 2F70      		andi r18,lo8(15)
 2283 0d40 3070      		andi r19,hi8(15)
 2284 0d42 220F      		lsl r18
 2285 0d44 331F      		rol r19
 2286 0d46 220F      		lsl r18
 2287 0d48 331F      		rol r19
 2288 0d4a 842F      		mov r24,r20
 2289 0d4c 8295      		swap r24
 2290 0d4e 8695      		lsr r24
 2291 0d50 8695      		lsr r24
 2292 0d52 8370      		andi r24,0x3
 2293 0d54 822B      		or r24,r18
 2294 0d56 01F0      		breq .L124
 2295               	.LM204:
 2296 0d58 8130      		cpi r24,lo8(1)
 2297 0d5a 01F0      		breq .L124
 2298               	.LM205:
 2299 0d5c 8230      		cpi r24,lo8(2)
 2300 0d5e 01F0      		breq .L125
 2301               	.LM206:
 2302 0d60 8430      		cpi r24,lo8(4)
 2303 0d62 01F0      		breq .L125
 2304               	.LM207:
 2305 0d64 8F31      		cpi r24,lo8(31)
 2306 0d66 01F0      		breq .L126
 2307               	.LM208:
 2308 0d68 85FD      		sbrc r24,5
 2309 0d6a 00C0      		rjmp .L126
 2310               	.LM209:
 2311 0d6c 8330      		cpi r24,lo8(3)
 2312 0d6e 01F0      		breq .L126
 2313               	.LM210:
 2314 0d70 80E0      		ldi r24,lo8(.LC9)
 2315 0d72 90E0      		ldi r25,hi8(.LC9)
 2316 0d74 6AE3      		ldi r22,lo8(314)
 2317 0d76 71E0      		ldi r23,hi8(314)
 2318 0d78 00C0      		rjmp .L163
 2319               	.L124:
 2320               	.LM211:
 2321 0d7a 86E0      		ldi r24,lo8(6)
 2322 0d7c 90E0      		ldi r25,hi8(6)
 2323               	.LVL137:
 2324 0d7e 00C0      		rjmp .L127
 2325               	.LVL138:
 2326               	.L125:
 2327 0d80 84E0      		ldi r24,lo8(4)
 2328 0d82 90E0      		ldi r25,hi8(4)
 2329               	.LVL139:
 2330 0d84 00C0      		rjmp .L127
 2331               	.LVL140:
 2332               	.L126:
 2333 0d86 82E0      		ldi r24,lo8(2)
 2334 0d88 90E0      		ldi r25,hi8(2)
 2335               	.LVL141:
 2336               	.L127:
 2337               	.LM212:
 2338 0d8a 50E0      		ldi r21,lo8(0)
 2339 0d8c 9A01      		movw r18,r20
 2340 0d8e 2F73      		andi r18,lo8(63)
 2341 0d90 3070      		andi r19,hi8(63)
 2342 0d92 2115      		cp r18,__zero_reg__
 2343 0d94 3105      		cpc r19,__zero_reg__
 2344 0d96 01F0      		breq .L158
 2345               	.L128:
 2346               	.LM213:
 2347 0d98 2130      		cpi r18,1
 2348 0d9a 3105      		cpc r19,__zero_reg__
 2349 0d9c 01F4      		brne .L130
 2350               	.LVL142:
 2351               	.L158:
 2352               	.LM214:
 2353 0d9e 0496      		adiw r24,4
 2354               	.LVL143:
 2355 0da0 00C0      		rjmp .L143
 2356               	.L130:
 2357               	.LM215:
 2358 0da2 2230      		cpi r18,2
 2359 0da4 3105      		cpc r19,__zero_reg__
 2360 0da6 01F0      		breq .L159
 2361               	.L131:
 2362               	.LM216:
 2363 0da8 2430      		cpi r18,4
 2364 0daa 3105      		cpc r19,__zero_reg__
 2365 0dac 01F4      		brne .L132
 2366               	.LVL144:
 2367               	.L159:
 2368               	.LM217:
 2369 0dae 0296      		adiw r24,2
 2370               	.LVL145:
 2371 0db0 00C0      		rjmp .L143
 2372               	.L132:
 2373               	.LM218:
 2374 0db2 45FD      		sbrc r20,5
 2375 0db4 00C0      		rjmp .L143
 2376               	.LM219:
 2377 0db6 80E0      		ldi r24,lo8(.LC9)
 2378 0db8 90E0      		ldi r25,hi8(.LC9)
 2379               	.LVL146:
 2380 0dba 6AE4      		ldi r22,lo8(330)
 2381 0dbc 71E0      		ldi r23,hi8(330)
 2382 0dbe 00C0      		rjmp .L163
 2383               	.L123:
 2384               	.LBE212:
 2385               	.LM220:
 2386 0dc0 603A      		cpi r22,lo8(-96)
 2387 0dc2 01F4      		brne .L133
 2388               	.LM221:
 2389 0dc4 DE01      		movw r26,r28
 2390 0dc6 1496      		adiw r26,4
 2391               	.LVL147:
 2392               	.LM222:
 2393 0dc8 1196      		adiw r26,1
 2394 0dca 8C91      		ld r24,X
 2395 0dcc 1197      		sbiw r26,1
 2396 0dce 807C      		andi r24,lo8(-64)
 2397 0dd0 803C      		cpi r24,lo8(-64)
 2398 0dd2 01F4      		brne .L155
 2399               	.LM223:
 2400 0dd4 DE01      		movw r26,r28
 2401 0dd6 1696      		adiw r26,6
 2402 0dd8 00C0      		rjmp .L112
 2403               	.L155:
 2404               	.LBB213:
 2405               	.LM224:
 2406 0dda 1196      		adiw r26,1
 2407 0ddc 8C91      		ld r24,X
 2408 0dde 1197      		sbiw r26,1
 2409 0de0 482F      		mov r20,r24
 2410 0de2 50E0      		ldi r21,lo8(0)
 2411 0de4 9A01      		movw r18,r20
 2412 0de6 2F73      		andi r18,lo8(63)
 2413 0de8 3070      		andi r19,hi8(63)
 2414 0dea 2115      		cp r18,__zero_reg__
 2415 0dec 3105      		cpc r19,__zero_reg__
 2416 0dee 01F0      		breq .L161
 2417               	.L135:
 2418               	.LM225:
 2419 0df0 2130      		cpi r18,1
 2420 0df2 3105      		cpc r19,__zero_reg__
 2421 0df4 01F4      		brne .L137
 2422               	.L161:
 2423               	.LM226:
 2424 0df6 CD01      		movw r24,r26
 2425 0df8 0496      		adiw r24,4
 2426               	.LVL148:
 2427 0dfa 00C0      		rjmp .L136
 2428               	.LVL149:
 2429               	.L137:
 2430               	.LM227:
 2431 0dfc 2230      		cpi r18,2
 2432 0dfe 3105      		cpc r19,__zero_reg__
 2433 0e00 01F0      		breq .L160
 2434               	.L138:
 2435               	.LM228:
 2436 0e02 2430      		cpi r18,4
 2437 0e04 3105      		cpc r19,__zero_reg__
 2438 0e06 01F4      		brne .L139
 2439               	.L160:
 2440               	.LM229:
 2441 0e08 CD01      		movw r24,r26
 2442 0e0a 0296      		adiw r24,2
 2443               	.LVL150:
 2444 0e0c 00C0      		rjmp .L136
 2445               	.LVL151:
 2446               	.L139:
 2447               	.LM230:
 2448 0e0e 80E0      		ldi r24,lo8(.LC9)
 2449 0e10 90E0      		ldi r25,hi8(.LC9)
 2450 0e12 64E6      		ldi r22,lo8(356)
 2451 0e14 71E0      		ldi r23,hi8(356)
 2452 0e16 00C0      		rjmp .L163
 2453               	.LVL152:
 2454               	.L136:
 2455               	.LM231:
 2456 0e18 DC01      		movw r26,r24
 2457 0e1a 1296      		adiw r26,2
 2458               	.LVL153:
 2459               	.LM232:
 2460 0e1c 407C      		andi r20,lo8(192)
 2461 0e1e 5070      		andi r21,hi8(192)
 2462 0e20 4034      		cpi r20,64
 2463 0e22 5105      		cpc r21,__zero_reg__
 2464 0e24 01F4      		brne .L155
 2465 0e26 00C0      		rjmp .L112
 2466               	.LVL154:
 2467               	.L133:
 2468               	.LBE213:
 2469               	.LM233:
 2470 0e28 C901      		movw r24,r18
 2471 0e2a 807E      		andi r24,lo8(224)
 2472 0e2c 9070      		andi r25,hi8(224)
 2473 0e2e 8034      		cpi r24,64
 2474 0e30 9105      		cpc r25,__zero_reg__
 2475 0e32 01F4      		brne .L140
 2476               	.LBB214:
 2477               	.LM234:
 2478 0e34 8981      		ldd r24,Y+1
 2479 0e36 90E0      		ldi r25,lo8(0)
 2480 0e38 9C01      		movw r18,r24
 2481 0e3a 2F73      		andi r18,lo8(63)
 2482 0e3c 3070      		andi r19,hi8(63)
 2483 0e3e 2130      		cpi r18,1
 2484 0e40 3105      		cpc r19,__zero_reg__
 2485 0e42 01F0      		breq .L141
 2486               	.LM235:
 2487 0e44 2115      		cp r18,__zero_reg__
 2488 0e46 3105      		cpc r19,__zero_reg__
 2489 0e48 01F0      		breq .L141
 2490               	.LM236:
 2491 0e4a 2230      		cpi r18,2
 2492 0e4c 3105      		cpc r19,__zero_reg__
 2493 0e4e 01F4      		brne .L142
 2494 0e50 84E0      		ldi r24,lo8(4)
 2495 0e52 90E0      		ldi r25,hi8(4)
 2496               	.LVL155:
 2497 0e54 00C0      		rjmp .L143
 2498               	.LVL156:
 2499               	.L142:
 2500               	.LM237:
 2501 0e56 85FF      		sbrs r24,5
 2502 0e58 00C0      		rjmp .L144
 2503 0e5a 82E0      		ldi r24,lo8(2)
 2504 0e5c 90E0      		ldi r25,hi8(2)
 2505               	.LVL157:
 2506 0e5e 00C0      		rjmp .L143
 2507               	.LVL158:
 2508               	.L144:
 2509               	.LM238:
 2510 0e60 2430      		cpi r18,4
 2511 0e62 3105      		cpc r19,__zero_reg__
 2512 0e64 01F4      		brne .L145
 2513               	.LM239:
 2514 0e66 80E0      		ldi r24,lo8(.LC9)
 2515 0e68 90E0      		ldi r25,hi8(.LC9)
 2516 0e6a 6DE7      		ldi r22,lo8(381)
 2517 0e6c 71E0      		ldi r23,hi8(381)
 2518 0e6e 00C0      		rjmp .L163
 2519               	.L145:
 2520               	.LM240:
 2521 0e70 80E0      		ldi r24,lo8(.LC9)
 2522 0e72 90E0      		ldi r25,hi8(.LC9)
 2523 0e74 60E8      		ldi r22,lo8(384)
 2524 0e76 71E0      		ldi r23,hi8(384)
 2525 0e78 00C0      		rjmp .L163
 2526               	.L141:
 2527               	.LM241:
 2528 0e7a 86E0      		ldi r24,lo8(6)
 2529 0e7c 90E0      		ldi r25,hi8(6)
 2530               	.LVL159:
 2531               	.L143:
 2532               	.LM242:
 2533 0e7e DE01      		movw r26,r28
 2534 0e80 A80F      		add r26,r24
 2535 0e82 B91F      		adc r27,r25
 2536               	.LVL160:
 2537 0e84 00C0      		rjmp .L112
 2538               	.LVL161:
 2539               	.L140:
 2540               	.LBE214:
 2541               	.LM243:
 2542 0e86 4032      		cpi r20,32
 2543 0e88 5105      		cpc r21,__zero_reg__
 2544 0e8a 01F4      		brne .L146
 2545               	.LBB215:
 2546               	.LM244:
 2547 0e8c E981      		ldd r30,Y+1
 2548 0e8e E295      		swap r30
 2549 0e90 E695      		lsr r30
 2550 0e92 E770      		andi r30,0x7
 2551 0e94 F0E0      		ldi r31,lo8(0)
 2552 0e96 2F70      		andi r18,lo8(15)
 2553 0e98 3070      		andi r19,hi8(15)
 2554 0e9a B3E0      		ldi r27,3
 2555 0e9c 220F      	1:	lsl r18
 2556 0e9e 331F      		rol r19
 2557 0ea0 BA95      		dec r27
 2558 0ea2 01F4      		brne 1b
 2559 0ea4 E22B      		or r30,r18
 2560 0ea6 F32B      		or r31,r19
 2561 0ea8 EE0F      		lsl r30
 2562 0eaa FF1F      		rol r31
 2563 0eac E050      		subi r30,lo8(-(extern_functs_args))
 2564 0eae F040      		sbci r31,hi8(-(extern_functs_args))
 2565 0eb0 0190      		ld __tmp_reg__,Z+
 2566 0eb2 F081      		ld r31,Z
 2567 0eb4 E02D      		mov r30,__tmp_reg__
 2568               	.LVL162:
 2569               	.LM245:
 2570 0eb6 DE01      		movw r26,r28
 2571 0eb8 1296      		adiw r26,2
 2572               	.LVL163:
 2573 0eba 20E0      		ldi r18,lo8(0)
 2574 0ebc 30E0      		ldi r19,hi8(0)
 2575               	.LVL164:
 2576 0ebe 00C0      		rjmp .L147
 2577               	.L152:
 2578               	.LM246:
 2579 0ec0 8C91      		ld r24,X
 2580 0ec2 8823      		tst r24
 2581 0ec4 01F0      		breq .L162
 2582               	.L148:
 2583               	.LM247:
 2584 0ec6 8130      		cpi r24,lo8(1)
 2585 0ec8 01F4      		brne .L150
 2586               	.L162:
 2587               	.LM248:
 2588 0eca 1496      		adiw r26,4
 2589 0ecc 00C0      		rjmp .L149
 2590               	.L150:
 2591               	.LM249:
 2592 0ece 8230      		cpi r24,lo8(2)
 2593 0ed0 01F4      		brne .L151
 2594               	.LM250:
 2595 0ed2 1296      		adiw r26,2
 2596 0ed4 00C0      		rjmp .L149
 2597               	.L151:
 2598               	.LM251:
 2599 0ed6 8430      		cpi r24,lo8(4)
 2600 0ed8 01F4      		brne .L149
 2601               	.LM252:
 2602 0eda 80E0      		ldi r24,lo8(.LC9)
 2603 0edc 90E0      		ldi r25,hi8(.LC9)
 2604 0ede 63E9      		ldi r22,lo8(403)
 2605 0ee0 71E0      		ldi r23,hi8(403)
 2606 0ee2 00C0      		rjmp .L163
 2607               	.L149:
 2608               	.LM253:
 2609 0ee4 2F5F      		subi r18,lo8(-(1))
 2610 0ee6 3F4F      		sbci r19,hi8(-(1))
 2611 0ee8 1196      		adiw r26,1
 2612               	.L147:
 2613 0eea 2E17      		cp r18,r30
 2614 0eec 3F07      		cpc r19,r31
 2615 0eee 04F0      		brlt .L152
 2616 0ef0 00C0      		rjmp .L112
 2617               	.LVL165:
 2618               	.L146:
 2619               	.LBE215:
 2620               	.LM254:
 2621 0ef2 8036      		cpi r24,96
 2622 0ef4 9105      		cpc r25,__zero_reg__
 2623 0ef6 01F4      		brne .L153
 2624               	.LM255:
 2625 0ef8 DE01      		movw r26,r28
 2626 0efa 1396      		adiw r26,3
 2627               	.LVL166:
 2628 0efc 00C0      		rjmp .L112
 2629               	.LVL167:
 2630               	.L153:
 2631               	.LM256:
 2632 0efe DE01      		movw r26,r28
 2633 0f00 1196      		adiw r26,1
 2634               	.LVL168:
 2635               	.L112:
 2636               	.LM257:
 2637 0f02 CD01      		movw r24,r26
 2638               	.LVL169:
 2639               	/* epilogue start */
 2640 0f04 DF91      		pop r29
 2641 0f06 CF91      		pop r28
 2642 0f08 0895      		ret
 2643               	.LFE33:
 2645               		.data
 2646               	.LC25:
 2647 013d 454C 5345 		.string	"ELSE NOT IMPLEMENTED YET!\n"
 2647      204E 4F54 
 2647      2049 4D50 
 2647      4C45 4D45 
 2647      4E54 4544 
 2648               	.LC26:
 2649 0158 4341 4C4C 		.string	"CALL_ARGS(pc) <= 5"
 2649      5F41 5247 
 2649      5328 7063 
 2649      2920 3C3D 
 2649      2035 00
 2650               		.text
 2651               	.global	tuple_process
 2653               	tuple_process:
 2654               	.LFB45:
 2655               	.LM258:
 2656               	.LVL170:
 2657 0f0a 2F92      		push r2
 2658 0f0c 3F92      		push r3
 2659 0f0e 4F92      		push r4
 2660 0f10 5F92      		push r5
 2661 0f12 6F92      		push r6
 2662 0f14 7F92      		push r7
 2663 0f16 8F92      		push r8
 2664 0f18 9F92      		push r9
 2665 0f1a AF92      		push r10
 2666 0f1c BF92      		push r11
 2667 0f1e CF92      		push r12
 2668 0f20 DF92      		push r13
 2669 0f22 EF92      		push r14
 2670 0f24 FF92      		push r15
 2671 0f26 0F93      		push r16
 2672 0f28 1F93      		push r17
 2673 0f2a DF93      		push r29
 2674 0f2c CF93      		push r28
 2675 0f2e CDB7      		in r28,__SP_L__
 2676 0f30 DEB7      		in r29,__SP_H__
 2677 0f32 6697      		sbiw r28,22
 2678 0f34 CDBF      		out __SP_L__,r28
 2679 0f36 DEBF      		out __SP_H__,r29
 2680               	/* prologue: function */
 2681               	/* frame size = 22 */
 2682 0f38 8B83      		std Y+3,r24
 2683 0f3a 9C83      		std Y+4,r25
 2684 0f3c 2B01      		movw r4,r22
 2685 0f3e 4B87      		std Y+11,r20
 2686 0f40 5C87      		std Y+12,r21
 2687 0f42 2D87      		std Y+13,r18
 2688 0f44 3E87      		std Y+14,r19
 2689               	.LM259:
 2690 0f46 2DB7      		in r18,__SP_L__
 2691 0f48 3EB7      		in r19,__SP_H__
 2692               	.LVL171:
 2693 0f4a 2F87      		std Y+15,r18
 2694 0f4c 388B      		std Y+16,r19
 2695 0f4e 00C0      		rjmp .L263
 2696               	.LVL172:
 2697               	.L179:
 2698               	.LM260:
 2699 0f50 4F80      		ldd r4,Y+7
 2700 0f52 5884      		ldd r5,Y+8
 2701               	.LVL173:
 2702               	.L263:
 2703               	.LM261:
 2704 0f54 D201      		movw r26,r4
 2705 0f56 8C91      		ld r24,X
 2706 0f58 8823      		tst r24
 2707 0f5a 01F4      		brne .+2
 2708 0f5c 00C0      		rjmp .L166
 2709               	.LM262:
 2710 0f5e E82F      		mov r30,r24
 2711 0f60 F0E0      		ldi r31,lo8(0)
 2712 0f62 9F01      		movw r18,r30
 2713 0f64 207E      		andi r18,lo8(224)
 2714 0f66 3070      		andi r19,hi8(224)
 2715 0f68 2036      		cpi r18,96
 2716 0f6a 3105      		cpc r19,__zero_reg__
 2717 0f6c 01F4      		brne .L167
 2718               	.LM263:
 2719 0f6e EF71      		andi r30,lo8(31)
 2720 0f70 F070      		andi r31,hi8(31)
 2721 0f72 EE0F      		lsl r30
 2722 0f74 FF1F      		rol r31
 2723 0f76 EE0F      		lsl r30
 2724 0f78 FF1F      		rol r31
 2725 0f7a 2D85      		ldd r18,Y+13
 2726 0f7c 3E85      		ldd r19,Y+14
 2727 0f7e E20F      		add r30,r18
 2728 0f80 F31F      		adc r31,r19
 2729 0f82 8081      		ld r24,Z
 2730 0f84 9181      		ldd r25,Z+1
 2731 0f86 A281      		ldd r26,Z+2
 2732 0f88 B381      		ldd r27,Z+3
 2733 0f8a 0097      		sbiw r24,0
 2734 0f8c A105      		cpc r26,__zero_reg__
 2735 0f8e B105      		cpc r27,__zero_reg__
 2736 0f90 01F0      		breq .+2
 2737 0f92 00C0      		rjmp .L168
 2738               	.LM264:
 2739 0f94 D201      		movw r26,r4
 2740 0f96 1196      		adiw r26,1
 2741 0f98 8D91      		ld r24,X+
 2742 0f9a 9C91      		ld r25,X
 2743 0f9c 1297      		sbiw r26,1+1
 2744 0f9e 480E      		add r4,r24
 2745 0fa0 591E      		adc r5,r25
 2746 0fa2 00C0      		rjmp .L263
 2747               	.LVL174:
 2748               	.L167:
 2749               	.LM265:
 2750 0fa4 8230      		cpi r24,lo8(2)
 2751 0fa6 01F4      		brne .L169
 2752               	.LM266:
 2753 0fa8 6091 0000 		lds r22,__iob+4
 2754 0fac 7091 0000 		lds r23,(__iob+4)+1
 2755 0fb0 80E0      		ldi r24,lo8(.LC25)
 2756 0fb2 90E0      		ldi r25,hi8(.LC25)
 2757 0fb4 0E94 0000 		call fputs
 2758               	.LM267:
 2759 0fb8 80E0      		ldi r24,lo8(.LC9)
 2760 0fba 90E0      		ldi r25,hi8(.LC9)
 2761 0fbc 68E7      		ldi r22,lo8(1144)
 2762 0fbe 74E0      		ldi r23,hi8(1144)
 2763 0fc0 40E0      		ldi r20,lo8(.LC10)
 2764 0fc2 50E0      		ldi r21,hi8(.LC10)
 2765 0fc4 0E94 0000 		call __myassert
 2766 0fc8 00C0      		rjmp .L168
 2767               	.LVL175:
 2768               	.L169:
 2769               	.LM268:
 2770 0fca 803A      		cpi r24,lo8(-96)
 2771 0fcc 01F0      		breq .+2
 2772 0fce 00C0      		rjmp .L170
 2773               	.LBB216:
 2774               	.LM269:
 2775 0fd0 F201      		movw r30,r4
 2776 0fd2 9181      		ldd r25,Z+1
 2777 0fd4 A92F      		mov r26,r25
 2778               	.LVL176:
 2779 0fd6 B0E0      		ldi r27,lo8(0)
 2780               	.LVL177:
 2781 0fd8 AF77      		andi r26,lo8(127)
 2782 0fda B070      		andi r27,hi8(127)
 2783               	.LVL178:
 2784               	.LM270:
 2785 0fdc 2281      		ldd r18,Z+2
 2786 0fde 3381      		ldd r19,Z+3
 2787 0fe0 240D      		add r18,r4
 2788 0fe2 351D      		adc r19,r5
 2789 0fe4 2F83      		std Y+7,r18
 2790 0fe6 3887      		std Y+8,r19
 2791               	.LVL179:
 2792               	.LM271:
 2793 0fe8 AD01      		movw r20,r26
 2794 0fea 440F      		lsl r20
 2795 0fec 551F      		rol r21
 2796 0fee 4987      		std Y+9,r20
 2797 0ff0 5A87      		std Y+10,r21
 2798 0ff2 E091 0000 		lds r30,arguments
 2799 0ff6 F091 0000 		lds r31,(arguments)+1
 2800 0ffa E40F      		add r30,r20
 2801 0ffc F51F      		adc r31,r21
 2802 0ffe 1181      		ldd r17,Z+1
 2803               	.LM272:
 2804 1000 FD01      		movw r30,r26
 2805 1002 E050      		subi r30,lo8(-(meld_prog))
 2806 1004 F040      		sbci r31,hi8(-(meld_prog))
 2807 1006 E181      		ldd r30,Z+1
 2808 1008 F0E0      		ldi r31,lo8(0)
 2809 100a E050      		subi r30,lo8(-(meld_prog+2))
 2810 100c F040      		sbci r31,hi8(-(meld_prog+2))
 2811 100e 8081      		ld r24,Z
 2812 1010 81FF      		sbrs r24,1
 2813 1012 00C0      		rjmp .L171
 2814 1014 80FD      		sbrc r24,0
 2815 1016 00C0      		rjmp .L171
 2816               	.LBB217:
 2817               	.LM273:
 2818 1018 A40F      		add r26,r20
 2819 101a B51F      		adc r27,r21
 2820 101c AA0F      		lsl r26
 2821 101e BB1F      		rol r27
 2822 1020 2090 0000 		lds r2,persistent
 2823 1024 3090 0000 		lds r3,(persistent)+1
 2824               	.LVL180:
 2825 1028 2A0E      		add r2,r26
 2826 102a 3B1E      		adc r3,r27
 2827               	.LM274:
 2828 102c D101      		movw r26,r2
 2829               	.LVL181:
 2830 102e 1496      		adiw r26,4
 2831 1030 6D90      		ld r6,X+
 2832 1032 7C90      		ld r7,X
 2833 1034 1597      		sbiw r26,4+1
 2834               	.LM275:
 2835 1036 C301      		movw r24,r6
 2836 1038 880F      		lsl r24
 2837 103a 991F      		rol r25
 2838 103c 0E94 0000 		call malloc
 2839               	.LVL182:
 2840 1040 5C01      		movw r10,r24
 2841               	.LVL183:
 2842 1042 9C01      		movw r18,r24
 2843 1044 8D8B      		std Y+21,r24
 2844 1046 3E8B      		std Y+22,r19
 2845 1048 8D83      		std Y+5,r24
 2846 104a 9E83      		std Y+6,r25
 2847 104c C12E      		mov r12,r17
 2848               	.LVL184:
 2849 104e DD24      		clr r13
 2850               	.LVL185:
 2851 1050 EE24      		clr r14
 2852 1052 FF24      		clr r15
 2853 1054 8701      		movw r16,r14
 2854               	.LVL186:
 2855 1056 8824      		clr r8
 2856 1058 9924      		clr r9
 2857               	.LVL187:
 2858 105a 00C0      		rjmp .L172
 2859               	.LVL188:
 2860               	.L173:
 2861               	.LBB218:
 2862               	.LM276:
 2863 105c 0E94 0000 		call random
 2864               	.LM277:
 2865 1060 A801      		movw r20,r16
 2866 1062 9701      		movw r18,r14
 2867 1064 0E94 0000 		call __divmodsi4
 2868 1068 9B01      		movw r18,r22
 2869 106a AC01      		movw r20,r24
 2870 106c 220F      		lsl r18
 2871 106e 331F      		rol r19
 2872 1070 2A0D      		add r18,r10
 2873 1072 3B1D      		adc r19,r11
 2874 1074 F901      		movw r30,r18
 2875 1076 8081      		ld r24,Z
 2876 1078 9181      		ldd r25,Z+1
 2877 107a AD81      		ldd r26,Y+5
 2878 107c BE81      		ldd r27,Y+6
 2879 107e 8D93      		st X+,r24
 2880 1080 9D93      		st X+,r25
 2881 1082 AD83      		std Y+5,r26
 2882 1084 BE83      		std Y+6,r27
 2883               	.LM278:
 2884 1086 B401      		movw r22,r8
 2885 1088 6C19      		sub r22,r12
 2886 108a 7D09      		sbc r23,r13
 2887 108c F101      		movw r30,r2
 2888 108e 8081      		ld r24,Z
 2889 1090 9181      		ldd r25,Z+1
 2890 1092 860F      		add r24,r22
 2891 1094 971F      		adc r25,r23
 2892 1096 D901      		movw r26,r18
 2893 1098 8D93      		st X+,r24
 2894 109a 9C93      		st X,r25
 2895               	.L172:
 2896 109c 0894      		sec
 2897 109e E11C      		adc r14,__zero_reg__
 2898 10a0 F11C      		adc r15,__zero_reg__
 2899 10a2 011D      		adc r16,__zero_reg__
 2900 10a4 111D      		adc r17,__zero_reg__
 2901 10a6 8C0C      		add r8,r12
 2902 10a8 9D1C      		adc r9,r13
 2903               	.LBE218:
 2904               	.LM279:
 2905 10aa C701      		movw r24,r14
 2906 10ac 0197      		sbiw r24,1
 2907 10ae 8615      		cp r24,r6
 2908 10b0 9705      		cpc r25,r7
 2909 10b2 04F0      		brlt .L173
 2910 10b4 00C0      		rjmp .L174
 2911               	.LVL189:
 2912               	.L171:
 2913               	.LBE217:
 2914               	.LBB219:
 2915               	.LM280:
 2916 10b6 E091 0000 		lds r30,tuples
 2917 10ba F091 0000 		lds r31,(tuples)+1
 2918 10be AA0F      		lsl r26
 2919 10c0 BB1F      		rol r27
 2920 10c2 AA0F      		lsl r26
 2921 10c4 BB1F      		rol r27
 2922 10c6 AE0F      		add r26,r30
 2923 10c8 BF1F      		adc r27,r31
 2924 10ca AD90      		ld r10,X+
 2925 10cc BC90      		ld r11,X
 2926               	.LBB220:
 2927               	.LBB221:
 2928               	.LM281:
 2929 10ce 892F      		mov r24,r25
 2930 10d0 90E0      		ldi r25,lo8(0)
 2931 10d2 8F77      		andi r24,lo8(127)
 2932 10d4 9070      		andi r25,hi8(127)
 2933 10d6 880F      		lsl r24
 2934 10d8 991F      		rol r25
 2935 10da 880F      		lsl r24
 2936 10dc 991F      		rol r25
 2937               	.LVL190:
 2938 10de E80F      		add r30,r24
 2939 10e0 F91F      		adc r31,r25
 2940 10e2 0190      		ld __tmp_reg__,Z+
 2941 10e4 F081      		ld r31,Z
 2942 10e6 E02D      		mov r30,__tmp_reg__
 2943               	.LVL191:
 2944 10e8 6624      		clr r6
 2945 10ea 7724      		clr r7
 2946 10ec 00C0      		rjmp .L175
 2947               	.L176:
 2948               	.LM282:
 2949 10ee 0190      		ld __tmp_reg__,Z+
 2950 10f0 F081      		ld r31,Z
 2951 10f2 E02D      		mov r30,__tmp_reg__
 2952 10f4 0894      		sec
 2953 10f6 611C      		adc r6,__zero_reg__
 2954 10f8 711C      		adc r7,__zero_reg__
 2955               	.L175:
 2956 10fa 3097      		sbiw r30,0
 2957 10fc 01F4      		brne .L176
 2958               	.LBE221:
 2959               	.LBE220:
 2960               	.LM283:
 2961 10fe C301      		movw r24,r6
 2962 1100 880F      		lsl r24
 2963 1102 991F      		rol r25
 2964 1104 0E94 0000 		call malloc
 2965               	.LVL192:
 2966 1108 6C01      		movw r12,r24
 2967               	.LVL193:
 2968 110a 9C01      		movw r18,r24
 2969               	.LVL194:
 2970 110c 8D8B      		std Y+21,r24
 2971               	.LVL195:
 2972 110e 3E8B      		std Y+22,r19
 2973 1110 4C01      		movw r8,r24
 2974               	.LVL196:
 2975 1112 EE24      		clr r14
 2976 1114 FF24      		clr r15
 2977 1116 8701      		movw r16,r14
 2978               	.LVL197:
 2979 1118 00C0      		rjmp .L177
 2980               	.LVL198:
 2981               	.L178:
 2982               	.LBB222:
 2983               	.LM284:
 2984 111a 0E94 0000 		call random
 2985               	.LM285:
 2986 111e A801      		movw r20,r16
 2987 1120 9701      		movw r18,r14
 2988 1122 0E94 0000 		call __divmodsi4
 2989 1126 DC01      		movw r26,r24
 2990 1128 CB01      		movw r24,r22
 2991 112a 880F      		lsl r24
 2992 112c 991F      		rol r25
 2993 112e 8C0D      		add r24,r12
 2994 1130 9D1D      		adc r25,r13
 2995 1132 FC01      		movw r30,r24
 2996 1134 2081      		ld r18,Z
 2997 1136 3181      		ldd r19,Z+1
 2998 1138 D401      		movw r26,r8
 2999 113a 2D93      		st X+,r18
 3000 113c 3D93      		st X+,r19
 3001 113e 4D01      		movw r8,r26
 3002               	.LM286:
 3003 1140 F501      		movw r30,r10
 3004 1142 2481      		ldd r18,Z+4
 3005 1144 3581      		ldd r19,Z+5
 3006 1146 DC01      		movw r26,r24
 3007 1148 2D93      		st X+,r18
 3008 114a 3C93      		st X,r19
 3009               	.LM287:
 3010 114c A080      		ld r10,Z
 3011 114e B180      		ldd r11,Z+1
 3012               	.L177:
 3013 1150 0894      		sec
 3014 1152 E11C      		adc r14,__zero_reg__
 3015 1154 F11C      		adc r15,__zero_reg__
 3016 1156 011D      		adc r16,__zero_reg__
 3017 1158 111D      		adc r17,__zero_reg__
 3018               	.LBE222:
 3019               	.LM288:
 3020 115a C701      		movw r24,r14
 3021 115c 0197      		sbiw r24,1
 3022 115e 8615      		cp r24,r6
 3023 1160 9705      		cpc r25,r7
 3024 1162 04F0      		brlt .L178
 3025               	.LVL199:
 3026               	.L174:
 3027               	.LBE219:
 3028               	.LM289:
 3029 1164 6114      		cp r6,__zero_reg__
 3030 1166 7104      		cpc r7,__zero_reg__
 3031 1168 01F4      		brne .+2
 3032 116a 00C0      		rjmp .L179
 3033 116c 8D89      		ldd r24,Y+21
 3034 116e 9E89      		ldd r25,Y+22
 3035 1170 5C01      		movw r10,r24
 3036               	.LVL200:
 3037 1172 CC24      		clr r12
 3038 1174 DD24      		clr r13
 3039               	.LVL201:
 3040               	.LBB223:
 3041               	.LM290:
 3042 1176 F201      		movw r30,r4
 3043 1178 3496      		adiw r30,4
 3044 117a EB8B      		std Y+19,r30
 3045 117c FC8B      		std Y+20,r31
 3046 117e 00C0      		rjmp .L180
 3047               	.LVL202:
 3048               	.L189:
 3049               	.LM291:
 3050 1180 D501      		movw r26,r10
 3051 1182 ED90      		ld r14,X+
 3052 1184 FC90      		ld r15,X
 3053               	.LM292:
 3054 1186 4B89      		ldd r20,Y+19
 3055 1188 5C89      		ldd r21,Y+20
 3056               	.LVL203:
 3057               	.LM293:
 3058 118a FA01      		movw r30,r20
 3059 118c 8181      		ldd r24,Z+1
 3060 118e 807C      		andi r24,lo8(-64)
 3061 1190 803C      		cpi r24,lo8(-64)
 3062 1192 01F4      		brne .+2
 3063 1194 00C0      		rjmp .L181
 3064 1196 3324      		clr r3
 3065 1198 3394      		inc r3
 3066               	.LVL204:
 3067               	.L186:
 3068               	.LBB224:
 3069               	.LM294:
 3070 119a 4E5F      		subi r20,lo8(-(2))
 3071 119c 5F4F      		sbci r21,hi8(-(2))
 3072 119e 4983      		std Y+1,r20
 3073 11a0 5A83      		std Y+2,r21
 3074               	.LVL205:
 3075 11a2 4250      		subi r20,lo8(-(-2))
 3076 11a4 5040      		sbci r21,hi8(-(-2))
 3077               	.LM295:
 3078 11a6 2091 0000 		lds r18,arguments
 3079 11aa 3091 0000 		lds r19,(arguments)+1
 3080 11ae DA01      		movw r26,r20
 3081               	.LVL206:
 3082 11b0 ED91      		ld r30,X+
 3083 11b2 8D01      		movw r16,r26
 3084               	.LVL207:
 3085 11b4 F0E0      		ldi r31,lo8(0)
 3086 11b6 EE0F      		lsl r30
 3087 11b8 FF1F      		rol r31
 3088 11ba A985      		ldd r26,Y+9
 3089 11bc BA85      		ldd r27,Y+10
 3090 11be A20F      		add r26,r18
 3091 11c0 B31F      		adc r27,r19
 3092 11c2 8C91      		ld r24,X
 3093 11c4 E20F      		add r30,r18
 3094 11c6 F31F      		adc r31,r19
 3095 11c8 DF01      		movw r26,r30
 3096 11ca A80F      		add r26,r24
 3097 11cc B11D      		adc r27,__zero_reg__
 3098 11ce 8C90      		ld r8,X
 3099               	.LM296:
 3100 11d0 D701      		movw r26,r14
 3101 11d2 8C91      		ld r24,X
 3102 11d4 90E0      		ldi r25,lo8(0)
 3103 11d6 880F      		lsl r24
 3104 11d8 991F      		rol r25
 3105 11da 280F      		add r18,r24
 3106 11dc 391F      		adc r19,r25
 3107 11de D901      		movw r26,r18
 3108 11e0 8C91      		ld r24,X
 3109 11e2 E80F      		add r30,r24
 3110 11e4 F11D      		adc r31,__zero_reg__
 3111 11e6 9180      		ldd r9,Z+1
 3112               	.LM297:
 3113 11e8 FA01      		movw r30,r20
 3114               	.LVL208:
 3115 11ea 8181      		ldd r24,Z+1
 3116 11ec 8F73      		andi r24,lo8(63)
 3117 11ee BE01      		movw r22,r28
 3118 11f0 6D5F      		subi r22,lo8(-(3))
 3119 11f2 7F4F      		sbci r23,hi8(-(3))
 3120 11f4 AE01      		movw r20,r28
 3121               	.LVL209:
 3122 11f6 4F5F      		subi r20,lo8(-(1))
 3123 11f8 5F4F      		sbci r21,hi8(-(1))
 3124 11fa 2D85      		ldd r18,Y+13
 3125 11fc 3E85      		ldd r19,Y+14
 3126 11fe 0E94 0000 		call eval
 3127 1202 BC01      		movw r22,r24
 3128               	.LM298:
 3129 1204 3320      		tst r3
 3130 1206 01F4      		brne .L182
 3131 1208 20E0      		ldi r18,lo8(0)
 3132 120a 30E0      		ldi r19,hi8(0)
 3133 120c 00C0      		rjmp .L183
 3134               	.L182:
 3135 120e 892D      		mov r24,r9
 3136 1210 90E0      		ldi r25,lo8(0)
 3137 1212 0196      		adiw r24,1
 3138 1214 8E0D      		add r24,r14
 3139 1216 9F1D      		adc r25,r15
 3140 1218 482D      		mov r20,r8
 3141 121a 50E0      		ldi r21,lo8(0)
 3142 121c 0E94 0000 		call memcmp
 3143 1220 9C01      		movw r18,r24
 3144 1222 80E0      		ldi r24,lo8(0)
 3145 1224 232B      		or r18,r19
 3146 1226 01F0      		breq .L184
 3147 1228 81E0      		ldi r24,lo8(1)
 3148               	.L184:
 3149 122a F1E0      		ldi r31,lo8(1)
 3150 122c 8F27      		eor r24,r31
 3151 122e 282F      		mov r18,r24
 3152               	.L183:
 3153 1230 322E      		mov r3,r18
 3154               	.LM299:
 3155 1232 D801      		movw r26,r16
 3156 1234 8C91      		ld r24,X
 3157 1236 807C      		andi r24,lo8(-64)
 3158 1238 8034      		cpi r24,lo8(64)
 3159 123a 01F0      		breq .L185
 3160               	.LM300:
 3161 123c 4981      		ldd r20,Y+1
 3162 123e 5A81      		ldd r21,Y+2
 3163               	.LVL210:
 3164 1240 00C0      		rjmp .L186
 3165               	.LVL211:
 3166               	.L185:
 3167               	.LBE224:
 3168               	.LM301:
 3169 1242 2223      		tst r18
 3170 1244 01F0      		breq .L187
 3171               	.LVL212:
 3172               	.L181:
 3173               	.LM302:
 3174 1246 C201      		movw r24,r4
 3175 1248 0E94 0000 		call advance
 3176               	.LVL213:
 3177 124c BC01      		movw r22,r24
 3178 124e C701      		movw r24,r14
 3179 1250 4B85      		ldd r20,Y+11
 3180 1252 5C85      		ldd r21,Y+12
 3181 1254 2D85      		ldd r18,Y+13
 3182 1256 3E85      		ldd r19,Y+14
 3183 1258 0E94 0000 		call tuple_process
 3184 125c 892B      		or r24,r25
 3185 125e 01F4      		brne .L187
 3186               	.LM303:
 3187 1260 8D89      		ldd r24,Y+21
 3188 1262 9E89      		ldd r25,Y+22
 3189 1264 0E94 0000 		call free
 3190 1268 00C0      		rjmp .L166
 3191               	.L187:
 3192               	.LBE223:
 3193               	.LM304:
 3194 126a 0894      		sec
 3195 126c C11C      		adc r12,__zero_reg__
 3196 126e D11C      		adc r13,__zero_reg__
 3197 1270 E2E0      		ldi r30,lo8(2)
 3198 1272 F0E0      		ldi r31,hi8(2)
 3199 1274 AE0E      		add r10,r30
 3200 1276 BF1E      		adc r11,r31
 3201               	.L180:
 3202 1278 C614      		cp r12,r6
 3203 127a D704      		cpc r13,r7
 3204 127c 04F4      		brge .+2
 3205 127e 00C0      		rjmp .L189
 3206               	.LM305:
 3207 1280 8D89      		ldd r24,Y+21
 3208 1282 9E89      		ldd r25,Y+22
 3209 1284 0E94 0000 		call free
 3210 1288 00C0      		rjmp .L179
 3211               	.LVL214:
 3212               	.L170:
 3213               	.LBE216:
 3214               	.LM306:
 3215 128a 8130      		cpi r24,lo8(1)
 3216 128c 01F4      		brne .L190
 3217 128e 21E0      		ldi r18,lo8(1)
 3218 1290 30E0      		ldi r19,hi8(1)
 3219 1292 00C0      		rjmp .L188
 3220               	.L190:
 3221               	.LM307:
 3222 1294 CF01      		movw r24,r30
 3223 1296 8C7F      		andi r24,lo8(252)
 3224 1298 9070      		andi r25,hi8(252)
 3225 129a 0897      		sbiw r24,8
 3226 129c 01F0      		breq .+2
 3227 129e 00C0      		rjmp .L191
 3228               	.LBB225:
 3229               	.LM308:
 3230 12a0 23E0      		ldi r18,lo8(3)
 3231 12a2 30E0      		ldi r19,hi8(3)
 3232 12a4 420E      		add r4,r18
 3233 12a6 531E      		adc r5,r19
 3234 12a8 4982      		std Y+1,r4
 3235 12aa 5A82      		std Y+2,r5
 3236               	.LVL215:
 3237 12ac 4DEF      		ldi r20,lo8(-3)
 3238 12ae 5FEF      		ldi r21,hi8(-3)
 3239 12b0 440E      		add r4,r20
 3240 12b2 551E      		adc r5,r21
 3241               	.LM309:
 3242 12b4 D201      		movw r26,r4
 3243 12b6 1196      		adiw r26,1
 3244 12b8 2C91      		ld r18,X
 3245 12ba 1197      		sbiw r26,1
 3246               	.LM310:
 3247 12bc E22F      		mov r30,r18
 3248 12be E295      		swap r30
 3249 12c0 E695      		lsr r30
 3250 12c2 E770      		andi r30,0x7
 3251 12c4 F0E0      		ldi r31,lo8(0)
 3252 12c6 8C91      		ld r24,X
 3253 12c8 90E0      		ldi r25,lo8(0)
 3254 12ca 8370      		andi r24,lo8(3)
 3255 12cc 9070      		andi r25,hi8(3)
 3256 12ce 43E0      		ldi r20,3
 3257 12d0 880F      	1:	lsl r24
 3258 12d2 991F      		rol r25
 3259 12d4 4A95      		dec r20
 3260 12d6 01F4      		brne 1b
 3261 12d8 E82B      		or r30,r24
 3262 12da F92B      		or r31,r25
 3263 12dc EE0F      		lsl r30
 3264 12de FF1F      		rol r31
 3265 12e0 EE0F      		lsl r30
 3266 12e2 FF1F      		rol r31
 3267 12e4 4D85      		ldd r20,Y+13
 3268 12e6 5E85      		ldd r21,Y+14
 3269 12e8 E40F      		add r30,r20
 3270 12ea F51F      		adc r31,r21
 3271 12ec E080      		ld r14,Z
 3272 12ee F180      		ldd r15,Z+1
 3273               	.LVL216:
 3274 12f0 A22F      		mov r26,r18
 3275 12f2 B0E0      		ldi r27,lo8(0)
 3276 12f4 AF71      		andi r26,lo8(31)
 3277 12f6 B070      		andi r27,hi8(31)
 3278 12f8 AA0F      		lsl r26
 3279 12fa BB1F      		rol r27
 3280 12fc AA0F      		lsl r26
 3281 12fe BB1F      		rol r27
 3282 1300 A40F      		add r26,r20
 3283 1302 B51F      		adc r27,r21
 3284 1304 0D91      		ld r16,X+
 3285 1306 1C91      		ld r17,X
 3286               	.LVL217:
 3287 1308 D201      		movw r26,r4
 3288 130a 1296      		adiw r26,2
 3289 130c 8C91      		ld r24,X
 3290 130e BE01      		movw r22,r28
 3291 1310 6D5F      		subi r22,lo8(-(3))
 3292 1312 7F4F      		sbci r23,hi8(-(3))
 3293 1314 AE01      		movw r20,r28
 3294 1316 4F5F      		subi r20,lo8(-(1))
 3295 1318 5F4F      		sbci r21,hi8(-(1))
 3296 131a 2D85      		ldd r18,Y+13
 3297 131c 3E85      		ldd r19,Y+14
 3298 131e 0E94 0000 		call eval
 3299 1322 FC01      		movw r30,r24
 3300 1324 2081      		ld r18,Z
 3301 1326 3181      		ldd r19,Z+1
 3302 1328 4281      		ldd r20,Z+2
 3303 132a 5381      		ldd r21,Z+3
 3304 132c C701      		movw r24,r14
 3305 132e B801      		movw r22,r16
 3306 1330 0B85      		ldd r16,Y+11
 3307 1332 1C85      		ldd r17,Y+12
 3308 1334 0E94 0000 		call tuple_send
 3309 1338 00C0      		rjmp .L168
 3310               	.LVL218:
 3311               	.L191:
 3312               	.LBE225:
 3313               	.LM311:
 3314 133a 2038      		cpi r18,128
 3315 133c 3105      		cpc r19,__zero_reg__
 3316 133e 01F0      		breq .+2
 3317 1340 00C0      		rjmp .L192
 3318               	.LM312:
 3319 1342 2B85      		ldd r18,Y+11
 3320 1344 3C85      		ldd r19,Y+12
 3321 1346 1216      		cp __zero_reg__,r18
 3322 1348 1306      		cpc __zero_reg__,r19
 3323 134a 04F0      		brlt .+2
 3324 134c 00C0      		rjmp .L168
 3325               	.LBB226:
 3326               	.LM313:
 3327 134e 8F01      		movw r16,r30
 3328               	.LVL219:
 3329 1350 0F71      		andi r16,lo8(31)
 3330 1352 1070      		andi r17,hi8(31)
 3331 1354 000F      		lsl r16
 3332 1356 111F      		rol r17
 3333 1358 000F      		lsl r16
 3334 135a 111F      		rol r17
 3335 135c 4D85      		ldd r20,Y+13
 3336 135e 5E85      		ldd r21,Y+14
 3337 1360 040F      		add r16,r20
 3338 1362 151F      		adc r17,r21
 3339               	.LM314:
 3340 1364 D801      		movw r26,r16
 3341 1366 ED91      		ld r30,X+
 3342 1368 FC91      		ld r31,X
 3343 136a 8081      		ld r24,Z
 3344 136c 90E0      		ldi r25,lo8(0)
 3345 136e 880F      		lsl r24
 3346 1370 991F      		rol r25
 3347 1372 E091 0000 		lds r30,arguments
 3348 1376 F091 0000 		lds r31,(arguments)+1
 3349 137a E80F      		add r30,r24
 3350 137c F91F      		adc r31,r25
 3351 137e F180      		ldd r15,Z+1
 3352               	.LVL220:
 3353 1380 8F2D      		mov r24,r15
 3354 1382 90E0      		ldi r25,lo8(0)
 3355 1384 0E94 0000 		call malloc
 3356 1388 F801      		movw r30,r16
 3357 138a 6081      		ld r22,Z
 3358 138c 7181      		ldd r23,Z+1
 3359 138e 4F2D      		mov r20,r15
 3360 1390 50E0      		ldi r21,lo8(0)
 3361 1392 0E94 0000 		call memcpy
 3362 1396 6FEF      		ldi r22,lo8(-1)
 3363 1398 7FEF      		ldi r23,hi8(-1)
 3364 139a 4D85      		ldd r20,Y+13
 3365 139c 5E85      		ldd r21,Y+14
 3366 139e 0E94 0000 		call tuple_handle
 3367               	.LM315:
 3368 13a2 D201      		movw r26,r4
 3369 13a4 EC91      		ld r30,X
 3370 13a6 F0E0      		ldi r31,lo8(0)
 3371 13a8 EF71      		andi r30,lo8(31)
 3372 13aa F070      		andi r31,hi8(31)
 3373 13ac EE0F      		lsl r30
 3374 13ae FF1F      		rol r31
 3375 13b0 EE0F      		lsl r30
 3376 13b2 FF1F      		rol r31
 3377 13b4 2D85      		ldd r18,Y+13
 3378 13b6 3E85      		ldd r19,Y+14
 3379 13b8 E20F      		add r30,r18
 3380 13ba F31F      		adc r31,r19
 3381 13bc 1082      		st Z,__zero_reg__
 3382 13be 1182      		std Z+1,__zero_reg__
 3383 13c0 1282      		std Z+2,__zero_reg__
 3384 13c2 1382      		std Z+3,__zero_reg__
 3385 13c4 00C0      		rjmp .L168
 3386               	.LVL221:
 3387               	.L192:
 3388               	.LBE226:
 3389               	.LM316:
 3390 13c6 CF01      		movw r24,r30
 3391 13c8 807C      		andi r24,lo8(192)
 3392 13ca 9070      		andi r25,hi8(192)
 3393 13cc 803C      		cpi r24,192
 3394 13ce 9105      		cpc r25,__zero_reg__
 3395 13d0 01F0      		breq .+2
 3396 13d2 00C0      		rjmp .L194
 3397               	.LBB227:
 3398               	.LM317:
 3399 13d4 43E0      		ldi r20,lo8(3)
 3400 13d6 50E0      		ldi r21,hi8(3)
 3401 13d8 440E      		add r4,r20
 3402 13da 551E      		adc r5,r21
 3403 13dc 4982      		std Y+1,r4
 3404 13de 5A82      		std Y+2,r5
 3405               	.LVL222:
 3406 13e0 8DEF      		ldi r24,lo8(-3)
 3407 13e2 9FEF      		ldi r25,hi8(-3)
 3408 13e4 480E      		add r4,r24
 3409 13e6 591E      		adc r5,r25
 3410               	.LM318:
 3411 13e8 D201      		movw r26,r4
 3412 13ea 8C91      		ld r24,X
 3413 13ec 8F73      		andi r24,lo8(63)
 3414 13ee BE01      		movw r22,r28
 3415 13f0 6D5F      		subi r22,lo8(-(3))
 3416 13f2 7F4F      		sbci r23,hi8(-(3))
 3417 13f4 AE01      		movw r20,r28
 3418 13f6 4F5F      		subi r20,lo8(-(1))
 3419 13f8 5F4F      		sbci r21,hi8(-(1))
 3420 13fa 2D85      		ldd r18,Y+13
 3421 13fc 3E85      		ldd r19,Y+14
 3422 13fe 0E94 0000 		call eval
 3423 1402 8C01      		movw r16,r24
 3424               	.LVL223:
 3425               	.LM319:
 3426 1404 F201      		movw r30,r4
 3427 1406 8181      		ldd r24,Z+1
 3428 1408 8695      		lsr r24
 3429 140a 8695      		lsr r24
 3430 140c BE01      		movw r22,r28
 3431 140e 6D5F      		subi r22,lo8(-(3))
 3432 1410 7F4F      		sbci r23,hi8(-(3))
 3433 1412 AE01      		movw r20,r28
 3434 1414 4F5F      		subi r20,lo8(-(1))
 3435 1416 5F4F      		sbci r21,hi8(-(1))
 3436 1418 2D85      		ldd r18,Y+13
 3437 141a 3E85      		ldd r19,Y+14
 3438 141c 0E94 0000 		call eval
 3439 1420 7C01      		movw r14,r24
 3440               	.LVL224:
 3441               	.LM320:
 3442 1422 D201      		movw r26,r4
 3443 1424 1296      		adiw r26,2
 3444 1426 2C91      		ld r18,X
 3445 1428 1297      		sbiw r26,2
 3446 142a 822F      		mov r24,r18
 3447 142c 8295      		swap r24
 3448 142e 8695      		lsr r24
 3449 1430 8770      		andi r24,0x7
 3450 1432 C82E      		mov r12,r24
 3451               	.LVL225:
 3452 1434 DD24      		clr r13
 3453 1436 1196      		adiw r26,1
 3454 1438 8C91      		ld r24,X
 3455 143a 90E0      		ldi r25,lo8(0)
 3456 143c 8370      		andi r24,lo8(3)
 3457 143e 9070      		andi r25,hi8(3)
 3458 1440 F3E0      		ldi r31,3
 3459 1442 880F      	1:	lsl r24
 3460 1444 991F      		rol r25
 3461 1446 FA95      		dec r31
 3462 1448 01F4      		brne 1b
 3463 144a C82A      		or r12,r24
 3464 144c D92A      		or r13,r25
 3465               	.LVL226:
 3466 144e CC0C      		lsl r12
 3467 1450 DD1C      		rol r13
 3468 1452 CC0C      		lsl r12
 3469 1454 DD1C      		rol r13
 3470 1456 ED85      		ldd r30,Y+13
 3471 1458 FE85      		ldd r31,Y+14
 3472 145a CE0E      		add r12,r30
 3473 145c DF1E      		adc r13,r31
 3474               	.LM321:
 3475 145e 30E0      		ldi r19,lo8(0)
 3476 1460 40E0      		ldi r20,lo8(0)
 3477 1462 50E0      		ldi r21,hi8(0)
 3478 1464 2F71      		andi r18,lo8(31)
 3479 1466 3070      		andi r19,hi8(31)
 3480 1468 4070      		andi r20,hlo8(31)
 3481 146a 5070      		andi r21,hhi8(31)
 3482 146c F901      		movw r30,r18
 3483 146e 2831      		cpi r18,24
 3484 1470 3105      		cpc r19,__zero_reg__
 3485 1472 00F0      		brlo .+2
 3486 1474 00C0      		rjmp .L168
 3487 1476 E050      		subi r30,lo8(-(gs(.L219)))
 3488 1478 F040      		sbci r31,hi8(-(gs(.L219)))
 3489 147a EE0F      		lsl r30
 3490 147c FF1F      		rol r31
 3491 147e 0590      		lpm __tmp_reg__,Z+
 3492 1480 F491      		lpm r31,Z
 3493 1482 E02D      		mov r30,__tmp_reg__
 3494 1484 1994      		eijmp
 3495               		.data
 3496               		.section .progmem.gcc_sw_table, "a", @progbits
 3497               		.p2align 1
 3498               	.L219:
 3499               		.data
 3500               		.section .progmem.gcc_sw_table, "a", @progbits
 3501               		.p2align 1
 3502 0000 0000      		.word gs(.L195)
 3503 0002 0000      		.word gs(.L196)
 3504 0004 0000      		.word gs(.L197)
 3505 0006 0000      		.word gs(.L198)
 3506 0008 0000      		.word gs(.L199)
 3507 000a 0000      		.word gs(.L200)
 3508 000c 0000      		.word gs(.L201)
 3509 000e 0000      		.word gs(.L202)
 3510 0010 0000      		.word gs(.L203)
 3511 0012 0000      		.word gs(.L204)
 3512 0014 0000      		.word gs(.L205)
 3513 0016 0000      		.word gs(.L206)
 3514 0018 0000      		.word gs(.L207)
 3515 001a 0000      		.word gs(.L208)
 3516 001c 0000      		.word gs(.L209)
 3517 001e 0000      		.word gs(.L210)
 3518 0020 0000      		.word gs(.L211)
 3519 0022 0000      		.word gs(.L212)
 3520 0024 0000      		.word gs(.L213)
 3521 0026 0000      		.word gs(.L214)
 3522 0028 0000      		.word gs(.L215)
 3523 002a 0000      		.word gs(.L216)
 3524 002c 0000      		.word gs(.L217)
 3525 002e 0000      		.word gs(.L218)
 3526               		.text
 3527               	.L196:
 3528               	.LM322:
 3529 1486 8824      		clr r8
 3530 1488 9924      		clr r9
 3531 148a 5401      		movw r10,r8
 3532               	.LVL227:
 3533 148c D801      		movw r26,r16
 3534               	.LVL228:
 3535 148e 2D91      		ld r18,X+
 3536 1490 3D91      		ld r19,X+
 3537 1492 4D91      		ld r20,X+
 3538 1494 5C91      		ld r21,X
 3539 1496 F701      		movw r30,r14
 3540               	.LVL229:
 3541 1498 8081      		ld r24,Z
 3542 149a 9181      		ldd r25,Z+1
 3543 149c A281      		ldd r26,Z+2
 3544 149e B381      		ldd r27,Z+3
 3545 14a0 2817      		cp r18,r24
 3546 14a2 3907      		cpc r19,r25
 3547 14a4 4A07      		cpc r20,r26
 3548 14a6 5B07      		cpc r21,r27
 3549 14a8 01F0      		breq .+2
 3550 14aa 00C0      		rjmp .L270
 3551 14ac 00C0      		rjmp .L225
 3552               	.LVL230:
 3553               	.L198:
 3554               	.LM323:
 3555 14ae 8824      		clr r8
 3556 14b0 9924      		clr r9
 3557 14b2 5401      		movw r10,r8
 3558               	.LVL231:
 3559 14b4 F801      		movw r30,r16
 3560               	.LVL232:
 3561 14b6 2081      		ld r18,Z
 3562 14b8 3181      		ldd r19,Z+1
 3563 14ba 4281      		ldd r20,Z+2
 3564 14bc 5381      		ldd r21,Z+3
 3565 14be F701      		movw r30,r14
 3566               	.LVL233:
 3567 14c0 8081      		ld r24,Z
 3568 14c2 9181      		ldd r25,Z+1
 3569 14c4 A281      		ldd r26,Z+2
 3570 14c6 B381      		ldd r27,Z+3
 3571 14c8 2817      		cp r18,r24
 3572 14ca 3907      		cpc r19,r25
 3573 14cc 4A07      		cpc r20,r26
 3574 14ce 5B07      		cpc r21,r27
 3575 14d0 01F0      		breq .+2
 3576 14d2 00C0      		rjmp .L225
 3577 14d4 00C0      		rjmp .L270
 3578               	.LVL234:
 3579               	.L200:
 3580               	.LM324:
 3581 14d6 8824      		clr r8
 3582 14d8 9924      		clr r9
 3583 14da 5401      		movw r10,r8
 3584               	.LVL235:
 3585 14dc F801      		movw r30,r16
 3586               	.LVL236:
 3587 14de 2081      		ld r18,Z
 3588 14e0 3181      		ldd r19,Z+1
 3589 14e2 4281      		ldd r20,Z+2
 3590 14e4 5381      		ldd r21,Z+3
 3591 14e6 F701      		movw r30,r14
 3592               	.LVL237:
 3593 14e8 8081      		ld r24,Z
 3594 14ea 9181      		ldd r25,Z+1
 3595 14ec A281      		ldd r26,Z+2
 3596 14ee B381      		ldd r27,Z+3
 3597 14f0 2817      		cp r18,r24
 3598 14f2 3907      		cpc r19,r25
 3599 14f4 4A07      		cpc r20,r26
 3600 14f6 5B07      		cpc r21,r27
 3601 14f8 04F4      		brge .L225
 3602 14fa 00C0      		rjmp .L270
 3603               	.LVL238:
 3604               	.L202:
 3605               	.LM325:
 3606 14fc 8824      		clr r8
 3607 14fe 9924      		clr r9
 3608 1500 5401      		movw r10,r8
 3609               	.LVL239:
 3610 1502 F801      		movw r30,r16
 3611               	.LVL240:
 3612 1504 2081      		ld r18,Z
 3613 1506 3181      		ldd r19,Z+1
 3614 1508 4281      		ldd r20,Z+2
 3615 150a 5381      		ldd r21,Z+3
 3616 150c F701      		movw r30,r14
 3617               	.LVL241:
 3618 150e 8081      		ld r24,Z
 3619 1510 9181      		ldd r25,Z+1
 3620 1512 A281      		ldd r26,Z+2
 3621 1514 B381      		ldd r27,Z+3
 3622 1516 8217      		cp r24,r18
 3623 1518 9307      		cpc r25,r19
 3624 151a A407      		cpc r26,r20
 3625 151c B507      		cpc r27,r21
 3626 151e 04F0      		brlt .L225
 3627 1520 00C0      		rjmp .L270
 3628               	.LVL242:
 3629               	.L204:
 3630               	.LM326:
 3631 1522 8824      		clr r8
 3632 1524 9924      		clr r9
 3633 1526 5401      		movw r10,r8
 3634               	.LVL243:
 3635 1528 F801      		movw r30,r16
 3636               	.LVL244:
 3637 152a 2081      		ld r18,Z
 3638 152c 3181      		ldd r19,Z+1
 3639 152e 4281      		ldd r20,Z+2
 3640 1530 5381      		ldd r21,Z+3
 3641 1532 F701      		movw r30,r14
 3642               	.LVL245:
 3643 1534 8081      		ld r24,Z
 3644 1536 9181      		ldd r25,Z+1
 3645 1538 A281      		ldd r26,Z+2
 3646 153a B381      		ldd r27,Z+3
 3647 153c 8217      		cp r24,r18
 3648 153e 9307      		cpc r25,r19
 3649 1540 A407      		cpc r26,r20
 3650 1542 B507      		cpc r27,r21
 3651 1544 04F4      		brge .L225
 3652 1546 00C0      		rjmp .L270
 3653               	.LVL246:
 3654               	.L206:
 3655               	.LM327:
 3656 1548 8824      		clr r8
 3657 154a 9924      		clr r9
 3658 154c 5401      		movw r10,r8
 3659               	.LVL247:
 3660 154e F801      		movw r30,r16
 3661               	.LVL248:
 3662 1550 2081      		ld r18,Z
 3663 1552 3181      		ldd r19,Z+1
 3664 1554 4281      		ldd r20,Z+2
 3665 1556 5381      		ldd r21,Z+3
 3666 1558 F701      		movw r30,r14
 3667               	.LVL249:
 3668 155a 8081      		ld r24,Z
 3669 155c 9181      		ldd r25,Z+1
 3670 155e A281      		ldd r26,Z+2
 3671 1560 B381      		ldd r27,Z+3
 3672 1562 2817      		cp r18,r24
 3673 1564 3907      		cpc r19,r25
 3674 1566 4A07      		cpc r20,r26
 3675 1568 5B07      		cpc r21,r27
 3676 156a 04F0      		brlt .L225
 3677               	.L270:
 3678 156c 71E0      		ldi r23,lo8(1)
 3679 156e 872E      		mov r8,r23
 3680 1570 912C      		mov r9,__zero_reg__
 3681 1572 A12C      		mov r10,__zero_reg__
 3682 1574 B12C      		mov r11,__zero_reg__
 3683               	.L225:
 3684 1576 D601      		movw r26,r12
 3685 1578 8D92      		st X+,r8
 3686 157a 9D92      		st X+,r9
 3687 157c AD92      		st X+,r10
 3688 157e BC92      		st X,r11
 3689 1580 1397      		sbiw r26,3
 3690 1582 00C0      		rjmp .L168
 3691               	.LVL250:
 3692               	.L208:
 3693               	.LM328:
 3694 1584 F801      		movw r30,r16
 3695               	.LVL251:
 3696 1586 6081      		ld r22,Z
 3697 1588 7181      		ldd r23,Z+1
 3698 158a 8281      		ldd r24,Z+2
 3699 158c 9381      		ldd r25,Z+3
 3700 158e D701      		movw r26,r14
 3701               	.LVL252:
 3702 1590 2D91      		ld r18,X+
 3703 1592 3D91      		ld r19,X+
 3704 1594 4D91      		ld r20,X+
 3705 1596 5C91      		ld r21,X
 3706 1598 0E94 0000 		call __divmodsi4
 3707 159c F601      		movw r30,r12
 3708 159e 6083      		st Z,r22
 3709 15a0 7183      		std Z+1,r23
 3710 15a2 8283      		std Z+2,r24
 3711 15a4 9383      		std Z+3,r25
 3712 15a6 00C0      		rjmp .L168
 3713               	.LVL253:
 3714               	.L210:
 3715               	.LM329:
 3716 15a8 F701      		movw r30,r14
 3717               	.LVL254:
 3718 15aa 8081      		ld r24,Z
 3719 15ac 9181      		ldd r25,Z+1
 3720 15ae A281      		ldd r26,Z+2
 3721 15b0 B381      		ldd r27,Z+3
 3722 15b2 F801      		movw r30,r16
 3723               	.LVL255:
 3724 15b4 2081      		ld r18,Z
 3725 15b6 3181      		ldd r19,Z+1
 3726 15b8 4281      		ldd r20,Z+2
 3727 15ba 5381      		ldd r21,Z+3
 3728 15bc 820F      		add r24,r18
 3729 15be 931F      		adc r25,r19
 3730 15c0 A41F      		adc r26,r20
 3731 15c2 B51F      		adc r27,r21
 3732 15c4 00C0      		rjmp .L269
 3733               	.LVL256:
 3734               	.L212:
 3735               	.LM330:
 3736 15c6 F801      		movw r30,r16
 3737               	.LVL257:
 3738 15c8 8081      		ld r24,Z
 3739 15ca 9181      		ldd r25,Z+1
 3740 15cc A281      		ldd r26,Z+2
 3741 15ce B381      		ldd r27,Z+3
 3742 15d0 F701      		movw r30,r14
 3743               	.LVL258:
 3744 15d2 2081      		ld r18,Z
 3745 15d4 3181      		ldd r19,Z+1
 3746 15d6 4281      		ldd r20,Z+2
 3747 15d8 5381      		ldd r21,Z+3
 3748 15da 821B      		sub r24,r18
 3749 15dc 930B      		sbc r25,r19
 3750 15de A40B      		sbc r26,r20
 3751 15e0 B50B      		sbc r27,r21
 3752               	.L269:
 3753 15e2 F601      		movw r30,r12
 3754 15e4 8083      		st Z,r24
 3755 15e6 9183      		std Z+1,r25
 3756 15e8 A283      		std Z+2,r26
 3757 15ea B383      		std Z+3,r27
 3758 15ec 00C0      		rjmp .L168
 3759               	.LVL259:
 3760               	.L214:
 3761               	.LM331:
 3762 15ee D701      		movw r26,r14
 3763               	.LVL260:
 3764 15f0 6D91      		ld r22,X+
 3765 15f2 7D91      		ld r23,X+
 3766 15f4 8D91      		ld r24,X+
 3767 15f6 9C91      		ld r25,X
 3768 15f8 F801      		movw r30,r16
 3769               	.LVL261:
 3770 15fa 2081      		ld r18,Z
 3771 15fc 3181      		ldd r19,Z+1
 3772 15fe 4281      		ldd r20,Z+2
 3773 1600 5381      		ldd r21,Z+3
 3774 1602 0E94 0000 		call __mulsi3
 3775 1606 D601      		movw r26,r12
 3776 1608 6D93      		st X+,r22
 3777 160a 7D93      		st X+,r23
 3778 160c 8D93      		st X+,r24
 3779 160e 9C93      		st X,r25
 3780 1610 1397      		sbiw r26,3
 3781 1612 00C0      		rjmp .L168
 3782               	.LVL262:
 3783               	.L216:
 3784               	.LM332:
 3785 1614 F801      		movw r30,r16
 3786               	.LVL263:
 3787 1616 6081      		ld r22,Z
 3788 1618 7181      		ldd r23,Z+1
 3789 161a 8281      		ldd r24,Z+2
 3790 161c 9381      		ldd r25,Z+3
 3791 161e D701      		movw r26,r14
 3792               	.LVL264:
 3793 1620 2D91      		ld r18,X+
 3794 1622 3D91      		ld r19,X+
 3795 1624 4D91      		ld r20,X+
 3796 1626 5C91      		ld r21,X
 3797 1628 0E94 0000 		call __divmodsi4
 3798 162c F601      		movw r30,r12
 3799 162e 2083      		st Z,r18
 3800 1630 3183      		std Z+1,r19
 3801 1632 4283      		std Z+2,r20
 3802 1634 5383      		std Z+3,r21
 3803 1636 00C0      		rjmp .L168
 3804               	.LVL265:
 3805               	.L195:
 3806               	.LM333:
 3807 1638 D601      		movw r26,r12
 3808 163a 1D92      		st X+,__zero_reg__
 3809 163c 1D92      		st X+,__zero_reg__
 3810 163e 1D92      		st X+,__zero_reg__
 3811 1640 1C92      		st X,__zero_reg__
 3812 1642 1397      		sbiw r26,3
 3813 1644 F801      		movw r30,r16
 3814               	.LVL266:
 3815 1646 6081      		ld r22,Z
 3816 1648 7181      		ldd r23,Z+1
 3817 164a 8281      		ldd r24,Z+2
 3818 164c 9381      		ldd r25,Z+3
 3819 164e D701      		movw r26,r14
 3820               	.LVL267:
 3821 1650 2D91      		ld r18,X+
 3822 1652 3D91      		ld r19,X+
 3823 1654 4D91      		ld r20,X+
 3824 1656 5C91      		ld r21,X
 3825 1658 0E94 0000 		call __nesf2
 3826 165c 8823      		tst r24
 3827 165e 01F4      		brne .+2
 3828 1660 00C0      		rjmp .L168
 3829 1662 00C0      		rjmp .L266
 3830               	.LVL268:
 3831               	.L197:
 3832               	.LM334:
 3833 1664 F601      		movw r30,r12
 3834 1666 1082      		st Z,__zero_reg__
 3835 1668 1182      		std Z+1,__zero_reg__
 3836 166a 1282      		std Z+2,__zero_reg__
 3837 166c 1382      		std Z+3,__zero_reg__
 3838 166e D801      		movw r26,r16
 3839               	.LVL269:
 3840 1670 6D91      		ld r22,X+
 3841 1672 7D91      		ld r23,X+
 3842 1674 8D91      		ld r24,X+
 3843 1676 9C91      		ld r25,X
 3844 1678 F701      		movw r30,r14
 3845               	.LVL270:
 3846 167a 2081      		ld r18,Z
 3847 167c 3181      		ldd r19,Z+1
 3848 167e 4281      		ldd r20,Z+2
 3849 1680 5381      		ldd r21,Z+3
 3850 1682 0E94 0000 		call __eqsf2
 3851 1686 8823      		tst r24
 3852 1688 01F0      		breq .+2
 3853 168a 00C0      		rjmp .L168
 3854 168c 00C0      		rjmp .L266
 3855               	.LVL271:
 3856               	.L199:
 3857               	.LM335:
 3858 168e F601      		movw r30,r12
 3859 1690 1082      		st Z,__zero_reg__
 3860 1692 1182      		std Z+1,__zero_reg__
 3861 1694 1282      		std Z+2,__zero_reg__
 3862 1696 1382      		std Z+3,__zero_reg__
 3863 1698 D801      		movw r26,r16
 3864               	.LVL272:
 3865 169a 6D91      		ld r22,X+
 3866 169c 7D91      		ld r23,X+
 3867 169e 8D91      		ld r24,X+
 3868 16a0 9C91      		ld r25,X
 3869 16a2 F701      		movw r30,r14
 3870               	.LVL273:
 3871 16a4 2081      		ld r18,Z
 3872 16a6 3181      		ldd r19,Z+1
 3873 16a8 4281      		ldd r20,Z+2
 3874 16aa 5381      		ldd r21,Z+3
 3875 16ac 0E94 0000 		call __ltsf2
 3876 16b0 8823      		tst r24
 3877 16b2 04F0      		brlt .+2
 3878 16b4 00C0      		rjmp .L168
 3879 16b6 00C0      		rjmp .L266
 3880               	.LVL274:
 3881               	.L201:
 3882               	.LM336:
 3883 16b8 F601      		movw r30,r12
 3884 16ba 1082      		st Z,__zero_reg__
 3885 16bc 1182      		std Z+1,__zero_reg__
 3886 16be 1282      		std Z+2,__zero_reg__
 3887 16c0 1382      		std Z+3,__zero_reg__
 3888 16c2 D801      		movw r26,r16
 3889               	.LVL275:
 3890 16c4 6D91      		ld r22,X+
 3891 16c6 7D91      		ld r23,X+
 3892 16c8 8D91      		ld r24,X+
 3893 16ca 9C91      		ld r25,X
 3894 16cc F701      		movw r30,r14
 3895               	.LVL276:
 3896 16ce 2081      		ld r18,Z
 3897 16d0 3181      		ldd r19,Z+1
 3898 16d2 4281      		ldd r20,Z+2
 3899 16d4 5381      		ldd r21,Z+3
 3900 16d6 0E94 0000 		call __lesf2
 3901 16da 1816      		cp __zero_reg__,r24
 3902 16dc 04F4      		brge .+2
 3903 16de 00C0      		rjmp .L168
 3904 16e0 00C0      		rjmp .L266
 3905               	.LVL277:
 3906               	.L203:
 3907               	.LM337:
 3908 16e2 F601      		movw r30,r12
 3909 16e4 1082      		st Z,__zero_reg__
 3910 16e6 1182      		std Z+1,__zero_reg__
 3911 16e8 1282      		std Z+2,__zero_reg__
 3912 16ea 1382      		std Z+3,__zero_reg__
 3913 16ec D801      		movw r26,r16
 3914               	.LVL278:
 3915 16ee 6D91      		ld r22,X+
 3916 16f0 7D91      		ld r23,X+
 3917 16f2 8D91      		ld r24,X+
 3918 16f4 9C91      		ld r25,X
 3919 16f6 F701      		movw r30,r14
 3920               	.LVL279:
 3921 16f8 2081      		ld r18,Z
 3922 16fa 3181      		ldd r19,Z+1
 3923 16fc 4281      		ldd r20,Z+2
 3924 16fe 5381      		ldd r21,Z+3
 3925 1700 0E94 0000 		call __gtsf2
 3926 1704 1816      		cp __zero_reg__,r24
 3927 1706 04F4      		brge .+2
 3928 1708 00C0      		rjmp .L266
 3929 170a 00C0      		rjmp .L168
 3930               	.LVL280:
 3931               	.L205:
 3932               	.LM338:
 3933 170c F601      		movw r30,r12
 3934 170e 1082      		st Z,__zero_reg__
 3935 1710 1182      		std Z+1,__zero_reg__
 3936 1712 1282      		std Z+2,__zero_reg__
 3937 1714 1382      		std Z+3,__zero_reg__
 3938 1716 D801      		movw r26,r16
 3939               	.LVL281:
 3940 1718 6D91      		ld r22,X+
 3941 171a 7D91      		ld r23,X+
 3942 171c 8D91      		ld r24,X+
 3943 171e 9C91      		ld r25,X
 3944 1720 F701      		movw r30,r14
 3945               	.LVL282:
 3946 1722 2081      		ld r18,Z
 3947 1724 3181      		ldd r19,Z+1
 3948 1726 4281      		ldd r20,Z+2
 3949 1728 5381      		ldd r21,Z+3
 3950 172a 0E94 0000 		call __gesf2
 3951 172e 8823      		tst r24
 3952 1730 04F0      		brlt .+2
 3953 1732 00C0      		rjmp .L266
 3954 1734 00C0      		rjmp .L168
 3955               	.LVL283:
 3956               	.L207:
 3957               	.LM339:
 3958 1736 F801      		movw r30,r16
 3959               	.LVL284:
 3960 1738 6081      		ld r22,Z
 3961 173a 7181      		ldd r23,Z+1
 3962 173c 8281      		ldd r24,Z+2
 3963 173e 9381      		ldd r25,Z+3
 3964 1740 D701      		movw r26,r14
 3965               	.LVL285:
 3966 1742 2D91      		ld r18,X+
 3967 1744 3D91      		ld r19,X+
 3968 1746 4D91      		ld r20,X+
 3969 1748 5C91      		ld r21,X
 3970 174a 0E94 0000 		call fmod
 3971 174e AC01      		movw r20,r24
 3972 1750 CB01      		movw r24,r22
 3973 1752 DA01      		movw r26,r20
 3974 1754 F601      		movw r30,r12
 3975 1756 8083      		st Z,r24
 3976 1758 9183      		std Z+1,r25
 3977 175a A283      		std Z+2,r26
 3978 175c B383      		std Z+3,r27
 3979 175e 00C0      		rjmp .L168
 3980               	.LVL286:
 3981               	.L209:
 3982               	.LM340:
 3983 1760 D801      		movw r26,r16
 3984               	.LVL287:
 3985 1762 6D91      		ld r22,X+
 3986 1764 7D91      		ld r23,X+
 3987 1766 8D91      		ld r24,X+
 3988 1768 9C91      		ld r25,X
 3989 176a F701      		movw r30,r14
 3990               	.LVL288:
 3991 176c 2081      		ld r18,Z
 3992 176e 3181      		ldd r19,Z+1
 3993 1770 4281      		ldd r20,Z+2
 3994 1772 5381      		ldd r21,Z+3
 3995 1774 0E94 0000 		call __addsf3
 3996 1778 00C0      		rjmp .L268
 3997               	.LVL289:
 3998               	.L211:
 3999               	.LM341:
 4000 177a F801      		movw r30,r16
 4001               	.LVL290:
 4002 177c 6081      		ld r22,Z
 4003 177e 7181      		ldd r23,Z+1
 4004 1780 8281      		ldd r24,Z+2
 4005 1782 9381      		ldd r25,Z+3
 4006 1784 D701      		movw r26,r14
 4007               	.LVL291:
 4008 1786 2D91      		ld r18,X+
 4009 1788 3D91      		ld r19,X+
 4010 178a 4D91      		ld r20,X+
 4011 178c 5C91      		ld r21,X
 4012 178e 0E94 0000 		call __subsf3
 4013 1792 00C0      		rjmp .L267
 4014               	.LVL292:
 4015               	.L213:
 4016               	.LM342:
 4017 1794 D801      		movw r26,r16
 4018               	.LVL293:
 4019 1796 6D91      		ld r22,X+
 4020 1798 7D91      		ld r23,X+
 4021 179a 8D91      		ld r24,X+
 4022 179c 9C91      		ld r25,X
 4023 179e F701      		movw r30,r14
 4024               	.LVL294:
 4025 17a0 2081      		ld r18,Z
 4026 17a2 3181      		ldd r19,Z+1
 4027 17a4 4281      		ldd r20,Z+2
 4028 17a6 5381      		ldd r21,Z+3
 4029 17a8 0E94 0000 		call __mulsf3
 4030               	.L268:
 4031 17ac D601      		movw r26,r12
 4032 17ae 6D93      		st X+,r22
 4033 17b0 7D93      		st X+,r23
 4034 17b2 8D93      		st X+,r24
 4035 17b4 9C93      		st X,r25
 4036 17b6 1397      		sbiw r26,3
 4037 17b8 00C0      		rjmp .L168
 4038               	.LVL295:
 4039               	.L215:
 4040               	.LM343:
 4041 17ba F801      		movw r30,r16
 4042               	.LVL296:
 4043 17bc 6081      		ld r22,Z
 4044 17be 7181      		ldd r23,Z+1
 4045 17c0 8281      		ldd r24,Z+2
 4046 17c2 9381      		ldd r25,Z+3
 4047 17c4 D701      		movw r26,r14
 4048               	.LVL297:
 4049 17c6 2D91      		ld r18,X+
 4050 17c8 3D91      		ld r19,X+
 4051 17ca 4D91      		ld r20,X+
 4052 17cc 5C91      		ld r21,X
 4053 17ce 0E94 0000 		call __divsf3
 4054               	.L267:
 4055 17d2 F601      		movw r30,r12
 4056 17d4 6083      		st Z,r22
 4057 17d6 7183      		std Z+1,r23
 4058 17d8 8283      		std Z+2,r24
 4059 17da 9383      		std Z+3,r25
 4060 17dc 00C0      		rjmp .L168
 4061               	.LVL298:
 4062               	.L217:
 4063               	.LM344:
 4064 17de D601      		movw r26,r12
 4065 17e0 1D92      		st X+,__zero_reg__
 4066 17e2 1D92      		st X+,__zero_reg__
 4067 17e4 1D92      		st X+,__zero_reg__
 4068 17e6 1C92      		st X,__zero_reg__
 4069 17e8 1397      		sbiw r26,3
 4070 17ea F801      		movw r30,r16
 4071               	.LVL299:
 4072 17ec 2081      		ld r18,Z
 4073 17ee 3181      		ldd r19,Z+1
 4074 17f0 D701      		movw r26,r14
 4075               	.LVL300:
 4076 17f2 8D91      		ld r24,X+
 4077 17f4 9C91      		ld r25,X
 4078 17f6 2817      		cp r18,r24
 4079 17f8 3907      		cpc r19,r25
 4080 17fa 01F4      		brne .L266
 4081 17fc 00C0      		rjmp .L168
 4082               	.LVL301:
 4083               	.L218:
 4084               	.LM345:
 4085 17fe F601      		movw r30,r12
 4086 1800 1082      		st Z,__zero_reg__
 4087 1802 1182      		std Z+1,__zero_reg__
 4088 1804 1282      		std Z+2,__zero_reg__
 4089 1806 1382      		std Z+3,__zero_reg__
 4090 1808 D801      		movw r26,r16
 4091               	.LVL302:
 4092 180a 2D91      		ld r18,X+
 4093 180c 3C91      		ld r19,X
 4094 180e F701      		movw r30,r14
 4095               	.LVL303:
 4096 1810 8081      		ld r24,Z
 4097 1812 9181      		ldd r25,Z+1
 4098 1814 2817      		cp r18,r24
 4099 1816 3907      		cpc r19,r25
 4100 1818 01F0      		breq .+2
 4101 181a 00C0      		rjmp .L168
 4102               	.L266:
 4103 181c 21E0      		ldi r18,lo8(1)
 4104 181e 30E0      		ldi r19,hi8(1)
 4105 1820 40E0      		ldi r20,hlo8(1)
 4106 1822 50E0      		ldi r21,hhi8(1)
 4107 1824 D601      		movw r26,r12
 4108 1826 2D93      		st X+,r18
 4109 1828 3D93      		st X+,r19
 4110 182a 4D93      		st X+,r20
 4111 182c 5C93      		st X,r21
 4112 182e 1397      		sbiw r26,3
 4113 1830 00C0      		rjmp .L168
 4114               	.LVL304:
 4115               	.L194:
 4116               	.LBE227:
 4117               	.LM346:
 4118 1832 8F01      		movw r16,r30
 4119               	.LVL305:
 4120 1834 007F      		andi r16,lo8(240)
 4121 1836 1070      		andi r17,hi8(240)
 4122 1838 0033      		cpi r16,48
 4123 183a 1105      		cpc r17,__zero_reg__
 4124 183c 01F0      		breq .+2
 4125 183e 00C0      		rjmp .L240
 4126               	.LBB228:
 4127               	.LM347:
 4128 1840 E2E0      		ldi r30,lo8(2)
 4129 1842 F0E0      		ldi r31,hi8(2)
 4130 1844 4E0E      		add r4,r30
 4131 1846 5F1E      		adc r5,r31
 4132 1848 4982      		std Y+1,r4
 4133 184a 5A82      		std Y+2,r5
 4134               	.LVL306:
 4135 184c 2EEF      		ldi r18,lo8(-2)
 4136 184e 3FEF      		ldi r19,hi8(-2)
 4137 1850 420E      		add r4,r18
 4138 1852 531E      		adc r5,r19
 4139               	.LM348:
 4140 1854 D201      		movw r26,r4
 4141 1856 2C91      		ld r18,X
 4142 1858 30E0      		ldi r19,lo8(0)
 4143 185a 2F70      		andi r18,lo8(15)
 4144 185c 3070      		andi r19,hi8(15)
 4145 185e 220F      		lsl r18
 4146 1860 331F      		rol r19
 4147 1862 220F      		lsl r18
 4148 1864 331F      		rol r19
 4149 1866 1196      		adiw r26,1
 4150 1868 8C91      		ld r24,X
 4151 186a 8295      		swap r24
 4152 186c 8695      		lsr r24
 4153 186e 8695      		lsr r24
 4154 1870 8370      		andi r24,0x3
 4155 1872 822B      		or r24,r18
 4156 1874 BE01      		movw r22,r28
 4157 1876 6D5F      		subi r22,lo8(-(3))
 4158 1878 7F4F      		sbci r23,hi8(-(3))
 4159 187a AE01      		movw r20,r28
 4160 187c 4F5F      		subi r20,lo8(-(1))
 4161 187e 5F4F      		sbci r21,hi8(-(1))
 4162 1880 2D85      		ldd r18,Y+13
 4163 1882 3E85      		ldd r19,Y+14
 4164 1884 0E94 0000 		call eval
 4165 1888 182F      		mov r17,r24
 4166 188a 092F      		mov r16,r25
 4167               	.LM349:
 4168 188c F201      		movw r30,r4
 4169 188e 6181      		ldd r22,Z+1
 4170 1890 6F73      		andi r22,lo8(63)
 4171               	.LBB229:
 4172               	.LBB230:
 4173               	.LM350:
 4174 1892 65FF      		sbrs r22,5
 4175 1894 00C0      		rjmp .L241
 4176               	.LM351:
 4177 1896 262F      		mov r18,r22
 4178 1898 30E0      		ldi r19,lo8(0)
 4179 189a 2F71      		andi r18,lo8(31)
 4180 189c 3070      		andi r19,hi8(31)
 4181 189e 220F      		lsl r18
 4182 18a0 331F      		rol r19
 4183 18a2 220F      		lsl r18
 4184 18a4 331F      		rol r19
 4185 18a6 4D85      		ldd r20,Y+13
 4186 18a8 5E85      		ldd r21,Y+14
 4187 18aa 240F      		add r18,r20
 4188 18ac 351F      		adc r19,r21
 4189 18ae 44E0      		ldi r20,lo8(4)
 4190 18b0 E42E      		mov r14,r20
 4191 18b2 F12C      		mov r15,__zero_reg__
 4192               	.LVL307:
 4193 18b4 00C0      		rjmp .L242
 4194               	.LVL308:
 4195               	.L241:
 4196               	.LM352:
 4197 18b6 6230      		cpi r22,lo8(2)
 4198 18b8 01F0      		breq .+2
 4199 18ba 00C0      		rjmp .L243
 4200               	.LBB231:
 4201               	.LM353:
 4202 18bc 4981      		ldd r20,Y+1
 4203 18be 5A81      		ldd r21,Y+2
 4204               	.LM354:
 4205 18c0 DA01      		movw r26,r20
 4206 18c2 1196      		adiw r26,1
 4207 18c4 EC91      		ld r30,X
 4208 18c6 1197      		sbiw r26,1
 4209 18c8 F0E0      		ldi r31,lo8(0)
 4210 18ca EF71      		andi r30,lo8(31)
 4211 18cc F070      		andi r31,hi8(31)
 4212 18ce EE0F      		lsl r30
 4213 18d0 FF1F      		rol r31
 4214 18d2 EE0F      		lsl r30
 4215 18d4 FF1F      		rol r31
 4216 18d6 2D85      		ldd r18,Y+13
 4217 18d8 3E85      		ldd r19,Y+14
 4218 18da E20F      		add r30,r18
 4219 18dc F31F      		adc r31,r19
 4220 18de 6081      		ld r22,Z
 4221 18e0 7181      		ldd r23,Z+1
 4222               	.LVL309:
 4223               	.LM355:
 4224 18e2 2091 0000 		lds r18,arguments
 4225 18e6 3091 0000 		lds r19,(arguments)+1
 4226 18ea AC91      		ld r26,X
 4227 18ec B0E0      		ldi r27,lo8(0)
 4228 18ee AA0F      		lsl r26
 4229 18f0 BB1F      		rol r27
 4230 18f2 FB01      		movw r30,r22
 4231 18f4 8081      		ld r24,Z
 4232 18f6 E82F      		mov r30,r24
 4233 18f8 F0E0      		ldi r31,lo8(0)
 4234 18fa EE0F      		lsl r30
 4235 18fc FF1F      		rol r31
 4236 18fe E20F      		add r30,r18
 4237 1900 F31F      		adc r31,r19
 4238 1902 8081      		ld r24,Z
 4239 1904 A20F      		add r26,r18
 4240 1906 B31F      		adc r27,r19
 4241 1908 FD01      		movw r30,r26
 4242 190a E80F      		add r30,r24
 4243 190c F11D      		adc r31,__zero_reg__
 4244 190e 8081      		ld r24,Z
 4245 1910 E82E      		mov r14,r24
 4246               	.LVL310:
 4247 1912 FF24      		clr r15
 4248               	.LM356:
 4249 1914 4E5F      		subi r20,lo8(-(2))
 4250 1916 5F4F      		sbci r21,hi8(-(2))
 4251 1918 4983      		std Y+1,r20
 4252 191a 5A83      		std Y+2,r21
 4253               	.LVL311:
 4254               	.LM357:
 4255 191c FB01      		movw r30,r22
 4256 191e 8081      		ld r24,Z
 4257 1920 90E0      		ldi r25,lo8(0)
 4258 1922 880F      		lsl r24
 4259 1924 991F      		rol r25
 4260 1926 280F      		add r18,r24
 4261 1928 391F      		adc r19,r25
 4262 192a F901      		movw r30,r18
 4263 192c 8081      		ld r24,Z
 4264 192e A80F      		add r26,r24
 4265 1930 B11D      		adc r27,__zero_reg__
 4266 1932 1196      		adiw r26,1
 4267 1934 8C91      		ld r24,X
 4268 1936 282F      		mov r18,r24
 4269 1938 30E0      		ldi r19,lo8(0)
 4270 193a 2F5F      		subi r18,lo8(-(1))
 4271 193c 3F4F      		sbci r19,hi8(-(1))
 4272 193e 260F      		add r18,r22
 4273 1940 371F      		adc r19,r23
 4274 1942 00C0      		rjmp .L242
 4275               	.LVL312:
 4276               	.L243:
 4277               	.LBE231:
 4278               	.LM358:
 4279 1944 6130      		cpi r22,lo8(1)
 4280 1946 01F4      		brne .L244
 4281               	.LM359:
 4282 1948 80E0      		ldi r24,lo8(.LC9)
 4283 194a 90E0      		ldi r25,hi8(.LC9)
 4284 194c 64EB      		ldi r22,lo8(436)
 4285 194e 71E0      		ldi r23,hi8(436)
 4286 1950 00C0      		rjmp .L264
 4287               	.L244:
 4288               	.LM360:
 4289 1952 6623      		tst r22
 4290 1954 01F4      		brne .L246
 4291               	.LM361:
 4292 1956 80E0      		ldi r24,lo8(.LC9)
 4293 1958 90E0      		ldi r25,hi8(.LC9)
 4294 195a 66EB      		ldi r22,lo8(438)
 4295 195c 71E0      		ldi r23,hi8(438)
 4296 195e 00C0      		rjmp .L264
 4297               	.L246:
 4298               	.LM362:
 4299 1960 6F31      		cpi r22,lo8(31)
 4300 1962 01F4      		brne .L247
 4301               	.LM363:
 4302 1964 80E0      		ldi r24,lo8(.LC9)
 4303 1966 90E0      		ldi r25,hi8(.LC9)
 4304 1968 68EB      		ldi r22,lo8(440)
 4305 196a 71E0      		ldi r23,hi8(440)
 4306 196c 00C0      		rjmp .L264
 4307               	.L247:
 4308               	.LM364:
 4309 196e 6330      		cpi r22,lo8(3)
 4310 1970 01F4      		brne .L248
 4311               	.LM365:
 4312 1972 80E0      		ldi r24,lo8(.LC9)
 4313 1974 90E0      		ldi r25,hi8(.LC9)
 4314 1976 6AEB      		ldi r22,lo8(442)
 4315 1978 71E0      		ldi r23,hi8(442)
 4316 197a 00C0      		rjmp .L264
 4317               	.L248:
 4318               	.LM366:
 4319 197c 80E0      		ldi r24,lo8(.LC9)
 4320 197e 90E0      		ldi r25,hi8(.LC9)
 4321 1980 6CEB      		ldi r22,lo8(444)
 4322 1982 71E0      		ldi r23,hi8(444)
 4323               	.L264:
 4324 1984 40E0      		ldi r20,lo8(.LC10)
 4325 1986 50E0      		ldi r21,hi8(.LC10)
 4326 1988 0E94 0000 		call __myassert
 4327               	.LM367:
 4328 198c 80E0      		ldi r24,lo8(.LC9)
 4329 198e 90E0      		ldi r25,hi8(.LC9)
 4330 1990 6FEB      		ldi r22,lo8(447)
 4331 1992 71E0      		ldi r23,hi8(447)
 4332 1994 40E0      		ldi r20,lo8(.LC10)
 4333 1996 50E0      		ldi r21,hi8(.LC10)
 4334 1998 0E94 0000 		call __myassert
 4335 199c 20E0      		ldi r18,lo8(0)
 4336 199e 30E0      		ldi r19,hi8(0)
 4337 19a0 EE24      		clr r14
 4338 19a2 FF24      		clr r15
 4339               	.LVL313:
 4340               	.L242:
 4341               	.LBE230:
 4342               	.LBE229:
 4343               	.LM368:
 4344 19a4 C901      		movw r24,r18
 4345 19a6 612F      		mov r22,r17
 4346               	.LVL314:
 4347 19a8 702F      		mov r23,r16
 4348 19aa A701      		movw r20,r14
 4349               	.LVL315:
 4350 19ac 0E94 0000 		call memcpy
 4351 19b0 00C0      		rjmp .L168
 4352               	.LVL316:
 4353               	.L240:
 4354               	.LBE228:
 4355               	.LM369:
 4356 19b2 2034      		cpi r18,64
 4357 19b4 3105      		cpc r19,__zero_reg__
 4358 19b6 01F0      		breq .+2
 4359 19b8 00C0      		rjmp .L250
 4360               	.LBB232:
 4361               	.LM370:
 4362 19ba 22E0      		ldi r18,lo8(2)
 4363 19bc 30E0      		ldi r19,hi8(2)
 4364 19be 420E      		add r4,r18
 4365 19c0 531E      		adc r5,r19
 4366 19c2 4982      		std Y+1,r4
 4367 19c4 5A82      		std Y+2,r5
 4368               	.LVL317:
 4369 19c6 4EEF      		ldi r20,lo8(-2)
 4370 19c8 5FEF      		ldi r21,hi8(-2)
 4371 19ca 440E      		add r4,r20
 4372 19cc 551E      		adc r5,r21
 4373               	.LM371:
 4374 19ce D201      		movw r26,r4
 4375 19d0 1196      		adiw r26,1
 4376 19d2 8C91      		ld r24,X
 4377 19d4 8F73      		andi r24,lo8(63)
 4378 19d6 BE01      		movw r22,r28
 4379 19d8 6D5F      		subi r22,lo8(-(3))
 4380 19da 7F4F      		sbci r23,hi8(-(3))
 4381 19dc AE01      		movw r20,r28
 4382 19de 4F5F      		subi r20,lo8(-(1))
 4383 19e0 5F4F      		sbci r21,hi8(-(1))
 4384 19e2 2D85      		ldd r18,Y+13
 4385 19e4 3E85      		ldd r19,Y+14
 4386 19e6 0E94 0000 		call eval
 4387 19ea 8C01      		movw r16,r24
 4388               	.LM372:
 4389 19ec F201      		movw r30,r4
 4390 19ee 2181      		ldd r18,Z+1
 4391 19f0 2295      		swap r18
 4392 19f2 2695      		lsr r18
 4393 19f4 2695      		lsr r18
 4394 19f6 2370      		andi r18,0x3
 4395 19f8 30E0      		ldi r19,lo8(0)
 4396 19fa 8081      		ld r24,Z
 4397 19fc 90E0      		ldi r25,lo8(0)
 4398 19fe 8F71      		andi r24,lo8(31)
 4399 1a00 9070      		andi r25,hi8(31)
 4400 1a02 880F      		lsl r24
 4401 1a04 991F      		rol r25
 4402 1a06 880F      		lsl r24
 4403 1a08 991F      		rol r25
 4404 1a0a 282B      		or r18,r24
 4405 1a0c 392B      		or r19,r25
 4406 1a0e 220F      		lsl r18
 4407 1a10 331F      		rol r19
 4408 1a12 E091 0000 		lds r30,arguments
 4409 1a16 F091 0000 		lds r31,(arguments)+1
 4410 1a1a E20F      		add r30,r18
 4411 1a1c F31F      		adc r31,r19
 4412 1a1e 8181      		ldd r24,Z+1
 4413 1a20 90E0      		ldi r25,lo8(0)
 4414 1a22 0E94 0000 		call malloc
 4415 1a26 D801      		movw r26,r16
 4416               	.LVL318:
 4417 1a28 8C93      		st X,r24
 4418 1a2a 1196      		adiw r26,1
 4419 1a2c 9C93      		st X,r25
 4420               	.LM373:
 4421 1a2e F201      		movw r30,r4
 4422 1a30 4181      		ldd r20,Z+1
 4423 1a32 4295      		swap r20
 4424 1a34 4695      		lsr r20
 4425 1a36 4695      		lsr r20
 4426 1a38 4370      		andi r20,0x3
 4427 1a3a 50E0      		ldi r21,lo8(0)
 4428 1a3c 2081      		ld r18,Z
 4429 1a3e 30E0      		ldi r19,lo8(0)
 4430 1a40 2F71      		andi r18,lo8(31)
 4431 1a42 3070      		andi r19,hi8(31)
 4432 1a44 220F      		lsl r18
 4433 1a46 331F      		rol r19
 4434 1a48 220F      		lsl r18
 4435 1a4a 331F      		rol r19
 4436 1a4c 422B      		or r20,r18
 4437 1a4e 532B      		or r21,r19
 4438 1a50 440F      		lsl r20
 4439 1a52 551F      		rol r21
 4440 1a54 E091 0000 		lds r30,arguments
 4441 1a58 F091 0000 		lds r31,(arguments)+1
 4442 1a5c E40F      		add r30,r20
 4443 1a5e F51F      		adc r31,r21
 4444 1a60 4181      		ldd r20,Z+1
 4445 1a62 60E0      		ldi r22,lo8(0)
 4446 1a64 70E0      		ldi r23,hi8(0)
 4447 1a66 50E0      		ldi r21,lo8(0)
 4448 1a68 0E94 0000 		call memset
 4449               	.LM374:
 4450 1a6c D801      		movw r26,r16
 4451 1a6e ED91      		ld r30,X+
 4452 1a70 FC91      		ld r31,X
 4453 1a72 D201      		movw r26,r4
 4454 1a74 8C91      		ld r24,X
 4455 1a76 90E0      		ldi r25,lo8(0)
 4456 1a78 8F71      		andi r24,lo8(31)
 4457 1a7a 9070      		andi r25,hi8(31)
 4458 1a7c 880F      		lsl r24
 4459 1a7e 991F      		rol r25
 4460 1a80 880F      		lsl r24
 4461 1a82 991F      		rol r25
 4462 1a84 1196      		adiw r26,1
 4463 1a86 2C91      		ld r18,X
 4464 1a88 2295      		swap r18
 4465 1a8a 2695      		lsr r18
 4466 1a8c 2695      		lsr r18
 4467 1a8e 2370      		andi r18,0x3
 4468 1a90 282B      		or r18,r24
 4469 1a92 2083      		st Z,r18
 4470 1a94 00C0      		rjmp .L168
 4471               	.LVL319:
 4472               	.L250:
 4473               	.LBE232:
 4474               	.LM375:
 4475 1a96 0032      		cpi r16,32
 4476 1a98 1105      		cpc r17,__zero_reg__
 4477 1a9a 01F0      		breq .+2
 4478 1a9c 00C0      		rjmp .L168
 4479 1a9e BDB7      		in r27,__SP_L__
 4480 1aa0 B98B      		std Y+17,r27
 4481 1aa2 EEB7      		in r30,__SP_H__
 4482 1aa4 EA8B      		std Y+18,r30
 4483               	.LBB233:
 4484               	.LM376:
 4485 1aa6 6201      		movw r12,r4
 4486               	.LVL320:
 4487 1aa8 0894      		sec
 4488 1aaa C11C      		adc r12,__zero_reg__
 4489 1aac D11C      		adc r13,__zero_reg__
 4490 1aae D201      		movw r26,r4
 4491 1ab0 1196      		adiw r26,1
 4492 1ab2 EC91      		ld r30,X
 4493 1ab4 2E2E      		mov r2,r30
 4494               	.LVL321:
 4495 1ab6 3324      		clr r3
 4496               	.LVL322:
 4497 1ab8 BFE1      		ldi r27,lo8(31)
 4498 1aba 2B22      		and r2,r27
 4499 1abc 3324      		clr r3
 4500               	.LVL323:
 4501 1abe 220C      		lsl r2
 4502 1ac0 331C      		rol r3
 4503 1ac2 220C      		lsl r2
 4504 1ac4 331C      		rol r3
 4505 1ac6 2D85      		ldd r18,Y+13
 4506 1ac8 3E85      		ldd r19,Y+14
 4507 1aca 220E      		add r2,r18
 4508 1acc 331E      		adc r3,r19
 4509               	.LM377:
 4510 1ace E295      		swap r30
 4511 1ad0 E695      		lsr r30
 4512 1ad2 E770      		andi r30,0x7
 4513 1ad4 F0E0      		ldi r31,lo8(0)
 4514 1ad6 D201      		movw r26,r4
 4515 1ad8 8C91      		ld r24,X
 4516 1ada 90E0      		ldi r25,lo8(0)
 4517 1adc 8F70      		andi r24,lo8(15)
 4518 1ade 9070      		andi r25,hi8(15)
 4519 1ae0 63E0      		ldi r22,3
 4520 1ae2 880F      	1:	lsl r24
 4521 1ae4 991F      		rol r25
 4522 1ae6 6A95      		dec r22
 4523 1ae8 01F4      		brne 1b
 4524 1aea E82B      		or r30,r24
 4525 1aec F92B      		or r31,r25
 4526 1aee EE0F      		lsl r30
 4527 1af0 FF1F      		rol r31
 4528 1af2 E050      		subi r30,lo8(-(extern_functs_args))
 4529 1af4 F040      		sbci r31,hi8(-(extern_functs_args))
 4530 1af6 2081      		ld r18,Z
 4531 1af8 3181      		ldd r19,Z+1
 4532 1afa C901      		movw r24,r18
 4533 1afc 880F      		lsl r24
 4534 1afe 991F      		rol r25
 4535 1b00 880F      		lsl r24
 4536 1b02 991F      		rol r25
 4537 1b04 EDB7      		in r30,__SP_L__
 4538 1b06 FEB7      		in r31,__SP_H__
 4539 1b08 E81B      		sub r30,r24
 4540 1b0a F90B      		sbc r31,r25
 4541 1b0c EDBF      		out __SP_L__,r30
 4542 1b0e FEBF      		out __SP_H__,r31
 4543 1b10 8DB6      		in r8,__SP_L__
 4544 1b12 9EB6      		in r9,__SP_H__
 4545               	.LVL324:
 4546 1b14 0894      		sec
 4547 1b16 811C      		adc r8,__zero_reg__
 4548 1b18 911C      		adc r9,__zero_reg__
 4549               	.LM378:
 4550 1b1a 2630      		cpi r18,6
 4551 1b1c 3105      		cpc r19,__zero_reg__
 4552 1b1e 04F0      		brlt .L251
 4553 1b20 80E0      		ldi r24,lo8(.LC9)
 4554 1b22 90E0      		ldi r25,hi8(.LC9)
 4555 1b24 6FE6      		ldi r22,lo8(1391)
 4556 1b26 75E0      		ldi r23,hi8(1391)
 4557 1b28 40E0      		ldi r20,lo8(.LC26)
 4558 1b2a 50E0      		ldi r21,hi8(.LC26)
 4559 1b2c 0E94 0000 		call __myassert
 4560               	.L251:
 4561               	.LM379:
 4562 1b30 22E0      		ldi r18,lo8(2)
 4563 1b32 30E0      		ldi r19,hi8(2)
 4564 1b34 420E      		add r4,r18
 4565 1b36 531E      		adc r5,r19
 4566 1b38 4982      		std Y+1,r4
 4567 1b3a 5A82      		std Y+2,r5
 4568               	.LVL325:
 4569 1b3c 4EEF      		ldi r20,lo8(-2)
 4570 1b3e 5FEF      		ldi r21,hi8(-2)
 4571 1b40 440E      		add r4,r20
 4572 1b42 551E      		adc r5,r21
 4573 1b44 7401      		movw r14,r8
 4574               	.LVL326:
 4575 1b46 00E0      		ldi r16,lo8(0)
 4576 1b48 10E0      		ldi r17,hi8(0)
 4577               	.LVL327:
 4578 1b4a 00C0      		rjmp .L252
 4579               	.L253:
 4580               	.LBB234:
 4581               	.LM380:
 4582 1b4c E981      		ldd r30,Y+1
 4583 1b4e FA81      		ldd r31,Y+2
 4584 1b50 8191      		ld r24,Z+
 4585               	.LVL328:
 4586               	.LM381:
 4587 1b52 E983      		std Y+1,r30
 4588 1b54 FA83      		std Y+2,r31
 4589               	.LVL329:
 4590               	.LM382:
 4591 1b56 BE01      		movw r22,r28
 4592 1b58 6D5F      		subi r22,lo8(-(3))
 4593 1b5a 7F4F      		sbci r23,hi8(-(3))
 4594 1b5c AE01      		movw r20,r28
 4595 1b5e 4F5F      		subi r20,lo8(-(1))
 4596 1b60 5F4F      		sbci r21,hi8(-(1))
 4597 1b62 2D85      		ldd r18,Y+13
 4598 1b64 3E85      		ldd r19,Y+14
 4599 1b66 0E94 0000 		call eval
 4600               	.LVL330:
 4601 1b6a A0E0      		ldi r26,lo8(0)
 4602 1b6c B0E0      		ldi r27,hi8(0)
 4603 1b6e F701      		movw r30,r14
 4604 1b70 8193      		st Z+,r24
 4605 1b72 9193      		st Z+,r25
 4606 1b74 A193      		st Z+,r26
 4607 1b76 B193      		st Z+,r27
 4608 1b78 7F01      		movw r14,r30
 4609               	.LBE234:
 4610               	.LM383:
 4611 1b7a 0F5F      		subi r16,lo8(-(1))
 4612 1b7c 1F4F      		sbci r17,hi8(-(1))
 4613               	.L252:
 4614 1b7e D601      		movw r26,r12
 4615 1b80 8C91      		ld r24,X
 4616 1b82 8295      		swap r24
 4617 1b84 8695      		lsr r24
 4618 1b86 8770      		andi r24,0x7
 4619 1b88 A82F      		mov r26,r24
 4620 1b8a B0E0      		ldi r27,lo8(0)
 4621 1b8c F201      		movw r30,r4
 4622 1b8e 8081      		ld r24,Z
 4623 1b90 90E0      		ldi r25,lo8(0)
 4624 1b92 8F70      		andi r24,lo8(15)
 4625 1b94 9070      		andi r25,hi8(15)
 4626 1b96 23E0      		ldi r18,3
 4627 1b98 880F      	1:	lsl r24
 4628 1b9a 991F      		rol r25
 4629 1b9c 2A95      		dec r18
 4630 1b9e 01F4      		brne 1b
 4631 1ba0 A82B      		or r26,r24
 4632 1ba2 B92B      		or r27,r25
 4633 1ba4 AA0F      		lsl r26
 4634 1ba6 BB1F      		rol r27
 4635 1ba8 FD01      		movw r30,r26
 4636 1baa E050      		subi r30,lo8(-(extern_functs_args))
 4637 1bac F040      		sbci r31,hi8(-(extern_functs_args))
 4638 1bae 0190      		ld __tmp_reg__,Z+
 4639 1bb0 F081      		ld r31,Z
 4640 1bb2 E02D      		mov r30,__tmp_reg__
 4641 1bb4 0E17      		cp r16,r30
 4642 1bb6 1F07      		cpc r17,r31
 4643 1bb8 04F0      		brlt .L253
 4644               	.LM384:
 4645 1bba E230      		cpi r30,2
 4646 1bbc F105      		cpc r31,__zero_reg__
 4647 1bbe 01F0      		breq .L257
 4648 1bc0 E330      		cpi r30,3
 4649 1bc2 F105      		cpc r31,__zero_reg__
 4650 1bc4 04F4      		brge .L261
 4651 1bc6 3097      		sbiw r30,0
 4652 1bc8 01F0      		breq .L255
 4653 1bca 3197      		sbiw r30,1
 4654 1bcc 01F0      		breq .+2
 4655 1bce 00C0      		rjmp .L254
 4656 1bd0 00C0      		rjmp .L271
 4657               	.L261:
 4658 1bd2 E430      		cpi r30,4
 4659 1bd4 F105      		cpc r31,__zero_reg__
 4660 1bd6 01F4      		brne .+2
 4661 1bd8 00C0      		rjmp .L259
 4662 1bda E430      		cpi r30,4
 4663 1bdc F105      		cpc r31,__zero_reg__
 4664 1bde 04F0      		brlt .L258
 4665 1be0 3597      		sbiw r30,5
 4666 1be2 01F0      		breq .+2
 4667 1be4 00C0      		rjmp .L254
 4668 1be6 00C0      		rjmp .L272
 4669               	.L255:
 4670               	.LM385:
 4671 1be8 A050      		subi r26,lo8(-(extern_functs))
 4672 1bea B040      		sbci r27,hi8(-(extern_functs))
 4673 1bec ED91      		ld r30,X+
 4674 1bee FC91      		ld r31,X
 4675 1bf0 1995      		eicall
 4676 1bf2 00C0      		rjmp .L265
 4677               	.L271:
 4678               	.LM386:
 4679 1bf4 A050      		subi r26,lo8(-(extern_functs))
 4680 1bf6 B040      		sbci r27,hi8(-(extern_functs))
 4681 1bf8 F401      		movw r30,r8
 4682 1bfa 6081      		ld r22,Z
 4683 1bfc 7181      		ldd r23,Z+1
 4684 1bfe 8281      		ldd r24,Z+2
 4685 1c00 9381      		ldd r25,Z+3
 4686 1c02 ED91      		ld r30,X+
 4687 1c04 FC91      		ld r31,X
 4688 1c06 1995      		eicall
 4689               	.L265:
 4690 1c08 D101      		movw r26,r2
 4691 1c0a 6D93      		st X+,r22
 4692 1c0c 7D93      		st X+,r23
 4693 1c0e 8D93      		st X+,r24
 4694 1c10 9C93      		st X,r25
 4695 1c12 1397      		sbiw r26,3
 4696 1c14 00C0      		rjmp .L254
 4697               	.L257:
 4698               	.LM387:
 4699 1c16 A050      		subi r26,lo8(-(extern_functs))
 4700 1c18 B040      		sbci r27,hi8(-(extern_functs))
 4701 1c1a F401      		movw r30,r8
 4702 1c1c 6081      		ld r22,Z
 4703 1c1e 7181      		ldd r23,Z+1
 4704 1c20 8281      		ldd r24,Z+2
 4705 1c22 9381      		ldd r25,Z+3
 4706 1c24 2481      		ldd r18,Z+4
 4707 1c26 3581      		ldd r19,Z+5
 4708 1c28 4681      		ldd r20,Z+6
 4709 1c2a 5781      		ldd r21,Z+7
 4710 1c2c ED91      		ld r30,X+
 4711 1c2e FC91      		ld r31,X
 4712 1c30 1995      		eicall
 4713 1c32 00C0      		rjmp .L265
 4714               	.L258:
 4715               	.LM388:
 4716 1c34 A050      		subi r26,lo8(-(extern_functs))
 4717 1c36 B040      		sbci r27,hi8(-(extern_functs))
 4718 1c38 F401      		movw r30,r8
 4719 1c3a 6081      		ld r22,Z
 4720 1c3c 7181      		ldd r23,Z+1
 4721 1c3e 8281      		ldd r24,Z+2
 4722 1c40 9381      		ldd r25,Z+3
 4723 1c42 2481      		ldd r18,Z+4
 4724 1c44 3581      		ldd r19,Z+5
 4725 1c46 4681      		ldd r20,Z+6
 4726 1c48 5781      		ldd r21,Z+7
 4727 1c4a E084      		ldd r14,Z+8
 4728 1c4c F184      		ldd r15,Z+9
 4729 1c4e 0285      		ldd r16,Z+10
 4730 1c50 1385      		ldd r17,Z+11
 4731 1c52 ED91      		ld r30,X+
 4732 1c54 FC91      		ld r31,X
 4733 1c56 1995      		eicall
 4734 1c58 00C0      		rjmp .L265
 4735               	.L259:
 4736               	.LM389:
 4737 1c5a A050      		subi r26,lo8(-(extern_functs))
 4738 1c5c B040      		sbci r27,hi8(-(extern_functs))
 4739 1c5e F401      		movw r30,r8
 4740 1c60 6081      		ld r22,Z
 4741 1c62 7181      		ldd r23,Z+1
 4742 1c64 8281      		ldd r24,Z+2
 4743 1c66 9381      		ldd r25,Z+3
 4744 1c68 2481      		ldd r18,Z+4
 4745 1c6a 3581      		ldd r19,Z+5
 4746 1c6c 4681      		ldd r20,Z+6
 4747 1c6e 5781      		ldd r21,Z+7
 4748 1c70 E084      		ldd r14,Z+8
 4749 1c72 F184      		ldd r15,Z+9
 4750 1c74 0285      		ldd r16,Z+10
 4751 1c76 1385      		ldd r17,Z+11
 4752 1c78 A484      		ldd r10,Z+12
 4753 1c7a B584      		ldd r11,Z+13
 4754 1c7c C684      		ldd r12,Z+14
 4755 1c7e D784      		ldd r13,Z+15
 4756               	.LVL331:
 4757 1c80 ED91      		ld r30,X+
 4758 1c82 FC91      		ld r31,X
 4759 1c84 1995      		eicall
 4760 1c86 00C0      		rjmp .L265
 4761               	.LVL332:
 4762               	.L272:
 4763               	.LM390:
 4764 1c88 00D0      		rcall .
 4765 1c8a 0F92      		push __tmp_reg__
 4766 1c8c A050      		subi r26,lo8(-(extern_functs))
 4767 1c8e B040      		sbci r27,hi8(-(extern_functs))
 4768 1c90 F401      		movw r30,r8
 4769 1c92 6081      		ld r22,Z
 4770 1c94 7181      		ldd r23,Z+1
 4771 1c96 8281      		ldd r24,Z+2
 4772 1c98 9381      		ldd r25,Z+3
 4773 1c9a 2481      		ldd r18,Z+4
 4774 1c9c 3581      		ldd r19,Z+5
 4775 1c9e 4681      		ldd r20,Z+6
 4776 1ca0 5781      		ldd r21,Z+7
 4777 1ca2 E084      		ldd r14,Z+8
 4778 1ca4 F184      		ldd r15,Z+9
 4779 1ca6 0285      		ldd r16,Z+10
 4780 1ca8 1385      		ldd r17,Z+11
 4781 1caa A484      		ldd r10,Z+12
 4782 1cac B584      		ldd r11,Z+13
 4783 1cae C684      		ldd r12,Z+14
 4784 1cb0 D784      		ldd r13,Z+15
 4785               	.LVL333:
 4786 1cb2 6088      		ldd r6,Z+16
 4787 1cb4 7188      		ldd r7,Z+17
 4788 1cb6 8288      		ldd r8,Z+18
 4789 1cb8 9388      		ldd r9,Z+19
 4790               	.LVL334:
 4791 1cba EDB7      		in r30,__SP_L__
 4792 1cbc FEB7      		in r31,__SP_H__
 4793 1cbe 6182      		std Z+1,r6
 4794 1cc0 7282      		std Z+2,r7
 4795 1cc2 8382      		std Z+3,r8
 4796 1cc4 9482      		std Z+4,r9
 4797 1cc6 ED91      		ld r30,X+
 4798 1cc8 FC91      		ld r31,X
 4799 1cca 1995      		eicall
 4800 1ccc D101      		movw r26,r2
 4801 1cce 6D93      		st X+,r22
 4802 1cd0 7D93      		st X+,r23
 4803 1cd2 8D93      		st X+,r24
 4804 1cd4 9C93      		st X,r25
 4805 1cd6 1397      		sbiw r26,3
 4806 1cd8 0F90      		pop __tmp_reg__
 4807 1cda 0F90      		pop __tmp_reg__
 4808 1cdc 0F90      		pop __tmp_reg__
 4809 1cde 0F90      		pop __tmp_reg__
 4810               	.LVL335:
 4811               	.L254:
 4812 1ce0 8989      		ldd r24,Y+17
 4813 1ce2 9A89      		ldd r25,Y+18
 4814 1ce4 9C01      		movw r18,r24
 4815 1ce6 2DBF      		out __SP_L__,r18
 4816 1ce8 3EBF      		out __SP_H__,r19
 4817               	.LVL336:
 4818               	.L168:
 4819               	.LBE233:
 4820               	.LM391:
 4821 1cea C201      		movw r24,r4
 4822 1cec 0E94 0000 		call advance
 4823 1cf0 2C01      		movw r4,r24
 4824 1cf2 00C0      		rjmp .L263
 4825               	.LVL337:
 4826               	.L166:
 4827               	.LM392:
 4828 1cf4 20E0      		ldi r18,lo8(0)
 4829 1cf6 30E0      		ldi r19,hi8(0)
 4830               	.L188:
 4831               	.LM393:
 4832 1cf8 C901      		movw r24,r18
 4833 1cfa EF85      		ldd r30,Y+15
 4834 1cfc F889      		ldd r31,Y+16
 4835 1cfe EDBF      		out __SP_L__,r30
 4836 1d00 FEBF      		out __SP_H__,r31
 4837               	/* epilogue start */
 4838 1d02 6696      		adiw r28,22
 4839 1d04 CDBF      		out __SP_L__,r28
 4840 1d06 DEBF      		out __SP_H__,r29
 4841 1d08 CF91      		pop r28
 4842 1d0a DF91      		pop r29
 4843 1d0c 1F91      		pop r17
 4844 1d0e 0F91      		pop r16
 4845               	.LVL338:
 4846 1d10 FF90      		pop r15
 4847               	.LVL339:
 4848 1d12 EF90      		pop r14
 4849               	.LVL340:
 4850 1d14 DF90      		pop r13
 4851               	.LVL341:
 4852 1d16 CF90      		pop r12
 4853               	.LVL342:
 4854 1d18 BF90      		pop r11
 4855 1d1a AF90      		pop r10
 4856               	.LVL343:
 4857 1d1c 9F90      		pop r9
 4858 1d1e 8F90      		pop r8
 4859               	.LVL344:
 4860 1d20 7F90      		pop r7
 4861 1d22 6F90      		pop r6
 4862               	.LVL345:
 4863 1d24 5F90      		pop r5
 4864 1d26 4F90      		pop r4
 4865               	.LVL346:
 4866 1d28 3F90      		pop r3
 4867               	.LVL347:
 4868 1d2a 2F90      		pop r2
 4869               	.LVL348:
 4870 1d2c 0895      		ret
 4871               	.LFE45:
 4874               	aggregate_free:
 4875               	.LFB39:
 4876               	.LM394:
 4877               	.LVL349:
 4878 1d2e CF93      		push r28
 4879 1d30 DF93      		push r29
 4880               	/* prologue: function */
 4881               	/* frame size = 0 */
 4882 1d32 EC01      		movw r28,r24
 4883               	.LM395:
 4884 1d34 4A30      		cpi r20,lo8(10)
 4885 1d36 00F4      		brsh .L278
 4886               	.LVL350:
 4887 1d38 4830      		cpi r20,lo8(8)
 4888 1d3a 00F4      		brsh .L276
 4889 1d3c 4130      		cpi r20,lo8(1)
 4890 1d3e 00F0      		brlo .L274
 4891 1d40 00C0      		rjmp .L279
 4892               	.L278:
 4893 1d42 4C30      		cpi r20,lo8(12)
 4894 1d44 00F4      		brsh .L274
 4895 1d46 00C0      		rjmp .L281
 4896               	.L276:
 4897               	.LM396:
 4898 1d48 A091 0000 		lds r26,arguments
 4899 1d4c B091 0000 		lds r27,(arguments)+1
 4900 1d50 862F      		mov r24,r22
 4901 1d52 90E0      		ldi r25,lo8(0)
 4902               	.LVL351:
 4903 1d54 E881      		ld r30,Y
 4904 1d56 F0E0      		ldi r31,lo8(0)
 4905 1d58 EE0F      		lsl r30
 4906 1d5a FF1F      		rol r31
 4907               	.LVL352:
 4908 1d5c EA0F      		add r30,r26
 4909 1d5e FB1F      		adc r31,r27
 4910 1d60 2081      		ld r18,Z
 4911 1d62 880F      		lsl r24
 4912 1d64 991F      		rol r25
 4913               	.LVL353:
 4914 1d66 A80F      		add r26,r24
 4915 1d68 B91F      		adc r27,r25
 4916 1d6a A20F      		add r26,r18
 4917 1d6c B11D      		adc r27,__zero_reg__
 4918 1d6e 1196      		adiw r26,1
 4919 1d70 8C91      		ld r24,X
 4920               	.LVL354:
 4921 1d72 C80F      		add r28,r24
 4922 1d74 D11D      		adc r29,__zero_reg__
 4923 1d76 8981      		ldd r24,Y+1
 4924 1d78 9A81      		ldd r25,Y+2
 4925 1d7a 0E94 0000 		call set_delete
 4926               	.LVL355:
 4927 1d7e 00C0      		rjmp .L279
 4928               	.LVL356:
 4929               	.L281:
 4930               	.LM397:
 4931 1d80 A091 0000 		lds r26,arguments
 4932 1d84 B091 0000 		lds r27,(arguments)+1
 4933 1d88 862F      		mov r24,r22
 4934 1d8a 90E0      		ldi r25,lo8(0)
 4935               	.LVL357:
 4936 1d8c E881      		ld r30,Y
 4937 1d8e F0E0      		ldi r31,lo8(0)
 4938 1d90 EE0F      		lsl r30
 4939 1d92 FF1F      		rol r31
 4940 1d94 EA0F      		add r30,r26
 4941 1d96 FB1F      		adc r31,r27
 4942 1d98 2081      		ld r18,Z
 4943 1d9a 880F      		lsl r24
 4944 1d9c 991F      		rol r25
 4945               	.LVL358:
 4946 1d9e A80F      		add r26,r24
 4947 1da0 B91F      		adc r27,r25
 4948 1da2 A20F      		add r26,r18
 4949 1da4 B11D      		adc r27,__zero_reg__
 4950 1da6 1196      		adiw r26,1
 4951 1da8 8C91      		ld r24,X
 4952               	.LVL359:
 4953 1daa C80F      		add r28,r24
 4954 1dac D11D      		adc r29,__zero_reg__
 4955 1dae 8981      		ldd r24,Y+1
 4956 1db0 9A81      		ldd r25,Y+2
 4957 1db2 0E94 0000 		call list_delete
 4958               	.LVL360:
 4959 1db6 00C0      		rjmp .L279
 4960               	.LVL361:
 4961               	.L274:
 4962               	.LM398:
 4963 1db8 80E0      		ldi r24,lo8(.LC9)
 4964 1dba 90E0      		ldi r25,hi8(.LC9)
 4965 1dbc 64E0      		ldi r22,lo8(772)
 4966 1dbe 73E0      		ldi r23,hi8(772)
 4967               	.LVL362:
 4968 1dc0 40E0      		ldi r20,lo8(.LC10)
 4969 1dc2 50E0      		ldi r21,hi8(.LC10)
 4970               	.LVL363:
 4971 1dc4 0E94 0000 		call __myassert
 4972               	.LVL364:
 4973               	.L279:
 4974               	/* epilogue start */
 4975               	.LM399:
 4976 1dc8 DF91      		pop r29
 4977 1dca CF91      		pop r28
 4978               	.LVL365:
 4979 1dcc 0895      		ret
 4980               	.LFE39:
 4982               		.data
 4983               	.LC27:
 4984 016b 6C69 7374 		.string	"lists differ in size for accumulator AGG_SUM_LIST_INT: %d vs %d\n"
 4984      7320 6469 
 4984      6666 6572 
 4984      2069 6E20 
 4984      7369 7A65 
 4985               	.LC28:
 4986 01ac 6C69      		.ascii	"li"
 4987 01ae 7374 7320 		.string	"sts differ in size for accumulator AGG_SUM_LIST_FLOAT: %d vs %d\n"
 4987      6469 6666 
 4987      6572 2069 
 4987      6E20 7369 
 4987      7A65 2066 
 4988               		.text
 4990               	aggregate_recalc:
 4991               	.LFB40:
 4992               	.LM400:
 4993               	.LVL366:
 4994 1dce 2F92      		push r2
 4995 1dd0 3F92      		push r3
 4996 1dd2 4F92      		push r4
 4997 1dd4 5F92      		push r5
 4998 1dd6 6F92      		push r6
 4999 1dd8 7F92      		push r7
 5000 1dda 8F92      		push r8
 5001 1ddc 9F92      		push r9
 5002 1dde AF92      		push r10
 5003 1de0 BF92      		push r11
 5004 1de2 CF92      		push r12
 5005 1de4 DF92      		push r13
 5006 1de6 EF92      		push r14
 5007 1de8 FF92      		push r15
 5008 1dea 0F93      		push r16
 5009 1dec 1F93      		push r17
 5010 1dee DF93      		push r29
 5011 1df0 CF93      		push r28
 5012 1df2 CDB7      		in r28,__SP_L__
 5013 1df4 DEB7      		in r29,__SP_H__
 5014 1df6 6497      		sbiw r28,20
 5015 1df8 CDBF      		out __SP_L__,r28
 5016 1dfa DEBF      		out __SP_H__,r29
 5017               	/* prologue: function */
 5018               	/* frame size = 20 */
 5019 1dfc 8D87      		std Y+13,r24
 5020 1dfe 9E87      		std Y+14,r25
 5021 1e00 6F87      		std Y+15,r22
 5022 1e02 788B      		std Y+16,r23
 5023 1e04 498B      		std Y+17,r20
 5024               	.LM401:
 5025 1e06 FC01      		movw r30,r24
 5026 1e08 A481      		ldd r26,Z+4
 5027 1e0a B581      		ldd r27,Z+5
 5028 1e0c 4C91      		ld r20,X
 5029               	.LVL367:
 5030 1e0e 50E0      		ldi r21,lo8(0)
 5031               	.LVL368:
 5032               	.LM402:
 5033 1e10 9A01      		movw r18,r20
 5034               	.LVL369:
 5035 1e12 2F5F      		subi r18,lo8(-(1))
 5036 1e14 3F4F      		sbci r19,hi8(-(1))
 5037 1e16 2B87      		std Y+11,r18
 5038 1e18 3C87      		std Y+12,r19
 5039 1e1a F901      		movw r30,r18
 5040 1e1c E050      		subi r30,lo8(-(meld_prog))
 5041 1e1e F040      		sbci r31,hi8(-(meld_prog))
 5042 1e20 E081      		ld r30,Z
 5043 1e22 F0E0      		ldi r31,lo8(0)
 5044 1e24 E050      		subi r30,lo8(-(meld_prog))
 5045 1e26 F040      		sbci r31,hi8(-(meld_prog))
 5046 1e28 9381      		ldd r25,Z+3
 5047 1e2a 892F      		mov r24,r25
 5048               	.LVL370:
 5049 1e2c 8295      		swap r24
 5050 1e2e 8F70      		andi r24,0x0f
 5051 1e30 A82E      		mov r10,r24
 5052               	.LVL371:
 5053 1e32 BB24      		clr r11
 5054               	.LVL372:
 5055               	.LM403:
 5056 1e34 A92F      		mov r26,r25
 5057 1e36 B0E0      		ldi r27,lo8(0)
 5058 1e38 AF70      		andi r26,lo8(15)
 5059 1e3a B070      		andi r27,hi8(15)
 5060 1e3c AF83      		std Y+7,r26
 5061 1e3e B887      		std Y+8,r27
 5062               	.LVL373:
 5063               	.LM404:
 5064 1e40 ED85      		ldd r30,Y+13
 5065 1e42 FE85      		ldd r31,Y+14
 5066 1e44 A281      		ldd r26,Z+2
 5067 1e46 B381      		ldd r27,Z+3
 5068 1e48 2D91      		ld r18,X+
 5069 1e4a 3C91      		ld r19,X
 5070 1e4c 2D83      		std Y+5,r18
 5071 1e4e 3E83      		std Y+6,r19
 5072               	.LVL374:
 5073               	.LM405:
 5074 1e50 D901      		movw r26,r18
 5075 1e52 1496      		adiw r26,4
 5076 1e54 2D90      		ld r2,X+
 5077 1e56 3C90      		ld r3,X
 5078 1e58 1597      		sbiw r26,4+1
 5079               	.LVL375:
 5080               	.LM406:
 5081 1e5a 2091 0000 		lds r18,arguments
 5082 1e5e 3091 0000 		lds r19,(arguments)+1
 5083 1e62 EF81      		ldd r30,Y+7
 5084 1e64 F885      		ldd r31,Y+8
 5085 1e66 EE0F      		lsl r30
 5086 1e68 FF1F      		rol r31
 5087 1e6a E987      		std Y+9,r30
 5088 1e6c FA87      		std Y+10,r31
 5089 1e6e D101      		movw r26,r2
 5090 1e70 EC91      		ld r30,X
 5091 1e72 F0E0      		ldi r31,lo8(0)
 5092 1e74 EE0F      		lsl r30
 5093 1e76 FF1F      		rol r31
 5094 1e78 E20F      		add r30,r18
 5095 1e7a F31F      		adc r31,r19
 5096 1e7c 8081      		ld r24,Z
 5097 1e7e A985      		ldd r26,Y+9
 5098 1e80 BA85      		ldd r27,Y+10
 5099 1e82 A20F      		add r26,r18
 5100 1e84 B31F      		adc r27,r19
 5101 1e86 FD01      		movw r30,r26
 5102 1e88 E80F      		add r30,r24
 5103 1e8a F11D      		adc r31,__zero_reg__
 5104 1e8c 8181      		ldd r24,Z+1
 5105 1e8e 882E      		mov r8,r24
 5106               	.LVL376:
 5107 1e90 9924      		clr r9
 5108               	.LVL377:
 5109 1e92 0894      		sec
 5110 1e94 811C      		adc r8,__zero_reg__
 5111 1e96 911C      		adc r9,__zero_reg__
 5112               	.LVL378:
 5113 1e98 820C      		add r8,r2
 5114 1e9a 931C      		adc r9,r3
 5115               	.LM407:
 5116 1e9c 2A01      		movw r4,r20
 5117 1e9e 440C      		lsl r4
 5118 1ea0 551C      		rol r5
 5119 1ea2 240D      		add r18,r4
 5120 1ea4 351D      		adc r19,r5
 5121 1ea6 F901      		movw r30,r18
 5122 1ea8 8081      		ld r24,Z
 5123 1eaa A80F      		add r26,r24
 5124 1eac B11D      		adc r27,__zero_reg__
 5125 1eae FC91      		ld r31,X
 5126 1eb0 FA8B      		std Y+18,r31
 5127               	.LM408:
 5128 1eb2 8F2F      		mov r24,r31
 5129 1eb4 90E0      		ldi r25,lo8(0)
 5130 1eb6 0E94 0000 		call malloc
 5131               	.LVL379:
 5132 1eba 6C01      		movw r12,r24
 5133               	.LM409:
 5134 1ebc AD81      		ldd r26,Y+5
 5135 1ebe BE81      		ldd r27,Y+6
 5136 1ec0 1296      		adiw r26,2
 5137 1ec2 0D91      		ld r16,X+
 5138 1ec4 1C91      		ld r17,X
 5139 1ec6 1397      		sbiw r26,2+1
 5140               	.LBB235:
 5141               	.LBB236:
 5142               	.LM410:
 5143 1ec8 B7E0      		ldi r27,lo8(7)
 5144 1eca AB16      		cp r10,r27
 5145 1ecc B104      		cpc r11,__zero_reg__
 5146 1ece 04F4      		brge .L293
 5147 1ed0 E5E0      		ldi r30,lo8(5)
 5148 1ed2 AE16      		cp r10,r30
 5149 1ed4 B104      		cpc r11,__zero_reg__
 5150 1ed6 04F0      		brlt .+2
 5151 1ed8 00C0      		rjmp .L287
 5152 1eda F4E0      		ldi r31,lo8(4)
 5153 1edc AF16      		cp r10,r31
 5154 1ede B104      		cpc r11,__zero_reg__
 5155 1ee0 04F4      		brge .L286
 5156 1ee2 22E0      		ldi r18,lo8(2)
 5157 1ee4 A216      		cp r10,r18
 5158 1ee6 B104      		cpc r11,__zero_reg__
 5159 1ee8 04F4      		brge .L285
 5160 1eea 31E0      		ldi r19,lo8(1)
 5161 1eec A316      		cp r10,r19
 5162 1eee B104      		cpc r11,__zero_reg__
 5163 1ef0 01F0      		breq .+2
 5164 1ef2 00C0      		rjmp .L283
 5165 1ef4 00C0      		rjmp .L359
 5166               	.L293:
 5167 1ef6 89E0      		ldi r24,lo8(9)
 5168 1ef8 A816      		cp r10,r24
 5169 1efa B104      		cpc r11,__zero_reg__
 5170 1efc 01F4      		brne .+2
 5171 1efe 00C0      		rjmp .L290
 5172 1f00 9AE0      		ldi r25,lo8(10)
 5173 1f02 A916      		cp r10,r25
 5174 1f04 B104      		cpc r11,__zero_reg__
 5175 1f06 04F4      		brge .L294
 5176 1f08 A7E0      		ldi r26,lo8(7)
 5177 1f0a AA16      		cp r10,r26
 5178 1f0c B104      		cpc r11,__zero_reg__
 5179 1f0e 01F4      		brne .+2
 5180 1f10 00C0      		rjmp .L288
 5181 1f12 B8E0      		ldi r27,lo8(8)
 5182 1f14 AB16      		cp r10,r27
 5183 1f16 B104      		cpc r11,__zero_reg__
 5184 1f18 01F0      		breq .+2
 5185 1f1a 00C0      		rjmp .L283
 5186 1f1c 00C0      		rjmp .L360
 5187               	.L294:
 5188 1f1e EAE0      		ldi r30,lo8(10)
 5189 1f20 AE16      		cp r10,r30
 5190 1f22 B104      		cpc r11,__zero_reg__
 5191 1f24 01F4      		brne .+2
 5192 1f26 00C0      		rjmp .L291
 5193 1f28 FBE0      		ldi r31,lo8(11)
 5194 1f2a AF16      		cp r10,r31
 5195 1f2c B104      		cpc r11,__zero_reg__
 5196 1f2e 01F0      		breq .+2
 5197 1f30 00C0      		rjmp .L283
 5198 1f32 00C0      		rjmp .L361
 5199               	.L359:
 5200               	.LM411:
 5201 1f34 B401      		movw r22,r8
 5202               	.LVL380:
 5203 1f36 4A89      		ldd r20,Y+18
 5204 1f38 50E0      		ldi r21,lo8(0)
 5205 1f3a 0E94 0000 		call memcpy
 5206 1f3e 00C0      		rjmp .L296
 5207               	.LVL381:
 5208               	.L285:
 5209               	.LM412:
 5210 1f40 F401      		movw r30,r8
 5211 1f42 8081      		ld r24,Z
 5212 1f44 9181      		ldd r25,Z+1
 5213 1f46 A281      		ldd r26,Z+2
 5214 1f48 B381      		ldd r27,Z+3
 5215 1f4a F601      		movw r30,r12
 5216               	.LVL382:
 5217 1f4c 8083      		st Z,r24
 5218 1f4e 9183      		std Z+1,r25
 5219 1f50 A283      		std Z+2,r26
 5220 1f52 B383      		std Z+3,r27
 5221 1f54 00C0      		rjmp .L296
 5222               	.LVL383:
 5223               	.L286:
 5224               	.LM413:
 5225 1f56 9801      		movw r18,r16
 5226 1f58 4427      		clr r20
 5227 1f5a 37FD      		sbrc r19,7
 5228 1f5c 4095      		com r20
 5229 1f5e 542F      		mov r21,r20
 5230 1f60 D401      		movw r26,r8
 5231 1f62 6D91      		ld r22,X+
 5232 1f64 7D91      		ld r23,X+
 5233 1f66 8D91      		ld r24,X+
 5234 1f68 9C91      		ld r25,X
 5235 1f6a 0E94 0000 		call __mulsi3
 5236 1f6e F601      		movw r30,r12
 5237               	.LVL384:
 5238 1f70 6083      		st Z,r22
 5239 1f72 7183      		std Z+1,r23
 5240 1f74 8283      		std Z+2,r24
 5241 1f76 9383      		std Z+3,r25
 5242 1f78 00C0      		rjmp .L296
 5243               	.LVL385:
 5244               	.L287:
 5245               	.LM414:
 5246 1f7a F401      		movw r30,r8
 5247 1f7c 8081      		ld r24,Z
 5248 1f7e 9181      		ldd r25,Z+1
 5249 1f80 A281      		ldd r26,Z+2
 5250 1f82 B381      		ldd r27,Z+3
 5251 1f84 F601      		movw r30,r12
 5252               	.LVL386:
 5253 1f86 8083      		st Z,r24
 5254 1f88 9183      		std Z+1,r25
 5255 1f8a A283      		std Z+2,r26
 5256 1f8c B383      		std Z+3,r27
 5257 1f8e 00C0      		rjmp .L296
 5258               	.LVL387:
 5259               	.L288:
 5260               	.LM415:
 5261 1f90 B801      		movw r22,r16
 5262 1f92 8827      		clr r24
 5263 1f94 77FD      		sbrc r23,7
 5264 1f96 8095      		com r24
 5265 1f98 982F      		mov r25,r24
 5266 1f9a 0E94 0000 		call __floatsisf
 5267 1f9e 9B01      		movw r18,r22
 5268 1fa0 AC01      		movw r20,r24
 5269 1fa2 D401      		movw r26,r8
 5270 1fa4 6D91      		ld r22,X+
 5271 1fa6 7D91      		ld r23,X+
 5272 1fa8 8D91      		ld r24,X+
 5273 1faa 9C91      		ld r25,X
 5274 1fac 0E94 0000 		call __mulsf3
 5275 1fb0 F601      		movw r30,r12
 5276               	.LVL388:
 5277 1fb2 6083      		st Z,r22
 5278 1fb4 7183      		std Z+1,r23
 5279 1fb6 8283      		std Z+2,r24
 5280 1fb8 9383      		std Z+3,r25
 5281 1fba 00C0      		rjmp .L296
 5282               	.LVL389:
 5283               	.L360:
 5284               	.LBE236:
 5285               	.LM416:
 5286 1fbc 0E94 0000 		call set_int_create
 5287 1fc0 8C01      		movw r16,r24
 5288               	.LVL390:
 5289               	.LBB251:
 5290               	.LBB243:
 5291               	.LM417:
 5292 1fc2 D401      		movw r26,r8
 5293 1fc4 6D91      		ld r22,X+
 5294 1fc6 7C91      		ld r23,X
 5295 1fc8 0E94 0000 		call set_int_insert
 5296 1fcc 00C0      		rjmp .L354
 5297               	.LVL391:
 5298               	.L290:
 5299               	.LBE243:
 5300               	.LBE251:
 5301               	.LM418:
 5302 1fce 0E94 0000 		call set_float_create
 5303 1fd2 8C01      		movw r16,r24
 5304               	.LVL392:
 5305               	.LBB252:
 5306               	.LBB244:
 5307               	.LM419:
 5308 1fd4 D401      		movw r26,r8
 5309 1fd6 4D91      		ld r20,X+
 5310 1fd8 5D91      		ld r21,X+
 5311 1fda 6D91      		ld r22,X+
 5312 1fdc 7C91      		ld r23,X
 5313 1fde 0E94 0000 		call set_float_insert
 5314               	.LVL393:
 5315               	.L354:
 5316               	.LM420:
 5317 1fe2 C801      		movw r24,r16
 5318 1fe4 0E94 0000 		call set_print
 5319               	.LM421:
 5320 1fe8 F601      		movw r30,r12
 5321               	.LVL394:
 5322 1fea 0083      		st Z,r16
 5323 1fec 1183      		std Z+1,r17
 5324 1fee 00C0      		rjmp .L296
 5325               	.LVL395:
 5326               	.L291:
 5327               	.LBE244:
 5328               	.LBE252:
 5329               	.LM422:
 5330 1ff0 0E94 0000 		call list_int_create
 5331 1ff4 7C01      		movw r14,r24
 5332               	.LVL396:
 5333               	.LBB253:
 5334               	.LBB237:
 5335               	.LBB238:
 5336               	.LBB239:
 5337               	.LM423:
 5338 1ff6 D401      		movw r26,r8
 5339 1ff8 ED91      		ld r30,X+
 5340 1ffa FC91      		ld r31,X
 5341 1ffc 2081      		ld r18,Z
 5342 1ffe 3181      		ldd r19,Z+1
 5343 2000 2B8B      		std Y+19,r18
 5344 2002 3C8B      		std Y+20,r19
 5345               	.LVL397:
 5346               	.LBE239:
 5347               	.LBE238:
 5348               	.LBB240:
 5349               	.LM424:
 5350 2004 3801      		movw r6,r16
 5351 2006 8824      		clr r8
 5352 2008 77FC      		sbrc r7,7
 5353 200a 8094      		com r8
 5354 200c 982C      		mov r9,r8
 5355 200e 00C0      		rjmp .L297
 5356               	.L298:
 5357 2010 AB89      		ldd r26,Y+19
 5358 2012 BC89      		ldd r27,Y+20
 5359 2014 1296      		adiw r26,2
 5360 2016 2D91      		ld r18,X+
 5361 2018 3D91      		ld r19,X+
 5362 201a 4D91      		ld r20,X+
 5363 201c 5C91      		ld r21,X
 5364 201e 1597      		sbiw r26,2+3
 5365 2020 C401      		movw r24,r8
 5366 2022 B301      		movw r22,r6
 5367 2024 0E94 0000 		call __mulsi3
 5368 2028 AB01      		movw r20,r22
 5369 202a BC01      		movw r22,r24
 5370 202c C701      		movw r24,r14
 5371 202e 0E94 0000 		call list_int_push_tail
 5372               	.LBE240:
 5373               	.LBB241:
 5374               	.LBB242:
 5375               	.LM425:
 5376 2032 EB89      		ldd r30,Y+19
 5377 2034 FC89      		ldd r31,Y+20
 5378 2036 0190      		ld __tmp_reg__,Z+
 5379 2038 F081      		ld r31,Z
 5380 203a E02D      		mov r30,__tmp_reg__
 5381 203c EB8B      		std Y+19,r30
 5382 203e FC8B      		std Y+20,r31
 5383               	.LVL398:
 5384               	.L297:
 5385               	.LBE242:
 5386               	.LBE241:
 5387               	.LM426:
 5388 2040 2B89      		ldd r18,Y+19
 5389 2042 3C89      		ldd r19,Y+20
 5390 2044 232B      		or r18,r19
 5391 2046 01F4      		brne .L298
 5392 2048 00C0      		rjmp .L353
 5393               	.LVL399:
 5394               	.L361:
 5395               	.LBE237:
 5396               	.LBE253:
 5397               	.LM427:
 5398 204a 0E94 0000 		call list_float_create
 5399 204e 7C01      		movw r14,r24
 5400               	.LVL400:
 5401               	.LBB254:
 5402               	.LBB245:
 5403               	.LBB246:
 5404               	.LBB247:
 5405               	.LM428:
 5406 2050 D401      		movw r26,r8
 5407 2052 ED91      		ld r30,X+
 5408 2054 FC91      		ld r31,X
 5409 2056 2081      		ld r18,Z
 5410 2058 3181      		ldd r19,Z+1
 5411 205a 2B8B      		std Y+19,r18
 5412 205c 3C8B      		std Y+20,r19
 5413               	.LVL401:
 5414               	.LBE247:
 5415               	.LBE246:
 5416               	.LBB248:
 5417               	.LM429:
 5418 205e 3801      		movw r6,r16
 5419 2060 8824      		clr r8
 5420 2062 77FC      		sbrc r7,7
 5421 2064 8094      		com r8
 5422 2066 982C      		mov r9,r8
 5423 2068 00C0      		rjmp .L299
 5424               	.L300:
 5425 206a C401      		movw r24,r8
 5426 206c B301      		movw r22,r6
 5427 206e 0E94 0000 		call __floatsisf
 5428 2072 AB89      		ldd r26,Y+19
 5429 2074 BC89      		ldd r27,Y+20
 5430 2076 1296      		adiw r26,2
 5431 2078 2D91      		ld r18,X+
 5432 207a 3D91      		ld r19,X+
 5433 207c 4D91      		ld r20,X+
 5434 207e 5C91      		ld r21,X
 5435 2080 1597      		sbiw r26,2+3
 5436 2082 0E94 0000 		call __mulsf3
 5437 2086 AB01      		movw r20,r22
 5438 2088 BC01      		movw r22,r24
 5439 208a C701      		movw r24,r14
 5440 208c 0E94 0000 		call list_float_push_tail
 5441               	.LBE248:
 5442               	.LBB249:
 5443               	.LBB250:
 5444               	.LM430:
 5445 2090 EB89      		ldd r30,Y+19
 5446 2092 FC89      		ldd r31,Y+20
 5447 2094 0190      		ld __tmp_reg__,Z+
 5448 2096 F081      		ld r31,Z
 5449 2098 E02D      		mov r30,__tmp_reg__
 5450 209a EB8B      		std Y+19,r30
 5451 209c FC8B      		std Y+20,r31
 5452               	.LVL402:
 5453               	.L299:
 5454               	.LBE250:
 5455               	.LBE249:
 5456               	.LM431:
 5457 209e 2B89      		ldd r18,Y+19
 5458 20a0 3C89      		ldd r19,Y+20
 5459 20a2 232B      		or r18,r19
 5460 20a4 01F4      		brne .L300
 5461               	.LVL403:
 5462               	.L353:
 5463               	.LM432:
 5464 20a6 D601      		movw r26,r12
 5465               	.LVL404:
 5466 20a8 ED92      		st X+,r14
 5467 20aa FC92      		st X,r15
 5468 20ac 00C0      		rjmp .L296
 5469               	.LVL405:
 5470               	.L283:
 5471               	.LBE245:
 5472               	.LM433:
 5473 20ae 80E0      		ldi r24,lo8(.LC9)
 5474 20b0 90E0      		ldi r25,hi8(.LC9)
 5475 20b2 66EE      		ldi r22,lo8(742)
 5476 20b4 72E0      		ldi r23,hi8(742)
 5477 20b6 40E0      		ldi r20,lo8(.LC10)
 5478 20b8 50E0      		ldi r21,hi8(.LC10)
 5479 20ba 0E94 0000 		call __myassert
 5480               	.L301:
 5481 20be 00C0      		rjmp .L301
 5482               	.LVL406:
 5483               	.L296:
 5484               	.LBE254:
 5485               	.LBE235:
 5486               	.LM434:
 5487 20c0 2091 0000 		lds r18,arguments
 5488 20c4 3091 0000 		lds r19,(arguments)+1
 5489 20c8 A901      		movw r20,r18
 5490 20ca 440D      		add r20,r4
 5491 20cc 551D      		adc r21,r5
 5492 20ce FA01      		movw r30,r20
 5493 20d0 8081      		ld r24,Z
 5494 20d2 E985      		ldd r30,Y+9
 5495 20d4 FA85      		ldd r31,Y+10
 5496 20d6 E80F      		add r30,r24
 5497 20d8 F11D      		adc r31,__zero_reg__
 5498 20da E20F      		add r30,r18
 5499 20dc F31F      		adc r31,r19
 5500 20de 8081      		ld r24,Z
 5501 20e0 482E      		mov r4,r24
 5502               	.LVL407:
 5503 20e2 5524      		clr r5
 5504               	.LVL408:
 5505 20e4 0894      		sec
 5506 20e6 411C      		adc r4,__zero_reg__
 5507 20e8 511C      		adc r5,__zero_reg__
 5508               	.LVL409:
 5509 20ea 8181      		ldd r24,Z+1
 5510 20ec 480E      		add r4,r24
 5511 20ee 511C      		adc r5,__zero_reg__
 5512               	.LM435:
 5513 20f0 DA01      		movw r26,r20
 5514 20f2 1196      		adiw r26,1
 5515 20f4 8C91      		ld r24,X
 5516 20f6 E82F      		mov r30,r24
 5517 20f8 F0E0      		ldi r31,lo8(0)
 5518 20fa E419      		sub r30,r4
 5519 20fc F509      		sbc r31,r5
 5520 20fe EB83      		std Y+3,r30
 5521 2100 FC83      		std Y+4,r31
 5522               	.LVL410:
 5523               	.LM436:
 5524 2102 EF2B      		or r30,r31
 5525 2104 01F0      		breq .L302
 5526 2106 2982      		std Y+1,r2
 5527 2108 3A82      		std Y+2,r3
 5528               	.LVL411:
 5529 210a 00C0      		rjmp .L303
 5530               	.LVL412:
 5531               	.L302:
 5532 210c 1982      		std Y+1,__zero_reg__
 5533 210e 1A82      		std Y+2,__zero_reg__
 5534               	.LVL413:
 5535               	.L303:
 5536               	.LM437:
 5537 2110 AD81      		ldd r26,Y+5
 5538 2112 BE81      		ldd r27,Y+6
 5539 2114 00C0      		rjmp .L356
 5540               	.LVL414:
 5541               	.L330:
 5542               	.LM438:
 5543 2116 F101      		movw r30,r2
 5544 2118 A481      		ldd r26,Z+4
 5545 211a B581      		ldd r27,Z+5
 5546 211c EC91      		ld r30,X
 5547 211e F0E0      		ldi r31,lo8(0)
 5548 2120 EE0F      		lsl r30
 5549 2122 FF1F      		rol r31
 5550 2124 E40F      		add r30,r20
 5551 2126 F51F      		adc r31,r21
 5552 2128 8081      		ld r24,Z
 5553 212a 2985      		ldd r18,Y+9
 5554 212c 3A85      		ldd r19,Y+10
 5555 212e 420F      		add r20,r18
 5556 2130 531F      		adc r21,r19
 5557 2132 480F      		add r20,r24
 5558 2134 511D      		adc r21,__zero_reg__
 5559 2136 FA01      		movw r30,r20
 5560 2138 8181      		ldd r24,Z+1
 5561 213a 882E      		mov r8,r24
 5562               	.LVL415:
 5563 213c 9924      		clr r9
 5564               	.LVL416:
 5565 213e 0894      		sec
 5566 2140 811C      		adc r8,__zero_reg__
 5567 2142 911C      		adc r9,__zero_reg__
 5568 2144 8A0E      		add r8,r26
 5569 2146 9B1E      		adc r9,r27
 5570 2148 D101      		movw r26,r2
 5571 214a 1296      		adiw r26,2
 5572 214c ED90      		ld r14,X+
 5573 214e FC90      		ld r15,X
 5574 2150 1397      		sbiw r26,2+1
 5575               	.LVL417:
 5576               	.LBB255:
 5577               	.LBB256:
 5578               	.LM439:
 5579 2152 B6E0      		ldi r27,lo8(6)
 5580 2154 AB16      		cp r10,r27
 5581 2156 B104      		cpc r11,__zero_reg__
 5582 2158 01F4      		brne .+2
 5583 215a 00C0      		rjmp .L311
 5584 215c E7E0      		ldi r30,lo8(7)
 5585 215e AE16      		cp r10,r30
 5586 2160 B104      		cpc r11,__zero_reg__
 5587 2162 04F4      		brge .L317
 5588 2164 F3E0      		ldi r31,lo8(3)
 5589 2166 AF16      		cp r10,r31
 5590 2168 B104      		cpc r11,__zero_reg__
 5591 216a 01F4      		brne .+2
 5592 216c 00C0      		rjmp .L308
 5593 216e 24E0      		ldi r18,lo8(4)
 5594 2170 A216      		cp r10,r18
 5595 2172 B104      		cpc r11,__zero_reg__
 5596 2174 04F4      		brge .L318
 5597 2176 31E0      		ldi r19,lo8(1)
 5598 2178 A316      		cp r10,r19
 5599 217a B104      		cpc r11,__zero_reg__
 5600 217c 01F4      		brne .+2
 5601 217e 00C0      		rjmp .L306
 5602 2180 82E0      		ldi r24,lo8(2)
 5603 2182 A816      		cp r10,r24
 5604 2184 B104      		cpc r11,__zero_reg__
 5605 2186 01F0      		breq .+2
 5606 2188 00C0      		rjmp .L305
 5607 218a 00C0      		rjmp .L362
 5608               	.L318:
 5609 218c 94E0      		ldi r25,lo8(4)
 5610 218e A916      		cp r10,r25
 5611 2190 B104      		cpc r11,__zero_reg__
 5612 2192 01F4      		brne .+2
 5613 2194 00C0      		rjmp .L309
 5614 2196 A5E0      		ldi r26,lo8(5)
 5615 2198 AA16      		cp r10,r26
 5616 219a B104      		cpc r11,__zero_reg__
 5617 219c 01F0      		breq .+2
 5618 219e 00C0      		rjmp .L305
 5619 21a0 00C0      		rjmp .L363
 5620               	.L317:
 5621 21a2 B9E0      		ldi r27,lo8(9)
 5622 21a4 AB16      		cp r10,r27
 5623 21a6 B104      		cpc r11,__zero_reg__
 5624 21a8 01F0      		breq .L314
 5625 21aa EAE0      		ldi r30,lo8(10)
 5626 21ac AE16      		cp r10,r30
 5627 21ae B104      		cpc r11,__zero_reg__
 5628 21b0 04F4      		brge .L319
 5629 21b2 F7E0      		ldi r31,lo8(7)
 5630 21b4 AF16      		cp r10,r31
 5631 21b6 B104      		cpc r11,__zero_reg__
 5632 21b8 01F4      		brne .+2
 5633 21ba 00C0      		rjmp .L312
 5634 21bc 28E0      		ldi r18,lo8(8)
 5635 21be A216      		cp r10,r18
 5636 21c0 B104      		cpc r11,__zero_reg__
 5637 21c2 01F0      		breq .+2
 5638 21c4 00C0      		rjmp .L305
 5639 21c6 00C0      		rjmp .L364
 5640               	.L319:
 5641 21c8 3AE0      		ldi r19,lo8(10)
 5642 21ca A316      		cp r10,r19
 5643 21cc B104      		cpc r11,__zero_reg__
 5644 21ce 01F4      		brne .+2
 5645 21d0 00C0      		rjmp .L315
 5646 21d2 8BE0      		ldi r24,lo8(11)
 5647 21d4 A816      		cp r10,r24
 5648 21d6 B104      		cpc r11,__zero_reg__
 5649 21d8 01F0      		breq .+2
 5650 21da 00C0      		rjmp .L305
 5651 21dc 00C0      		rjmp .L365
 5652               	.L364:
 5653               	.LBB257:
 5654               	.LM440:
 5655 21de D601      		movw r26,r12
 5656 21e0 0D91      		ld r16,X+
 5657 21e2 1C91      		ld r17,X
 5658               	.LVL418:
 5659               	.LM441:
 5660 21e4 F401      		movw r30,r8
 5661 21e6 6081      		ld r22,Z
 5662 21e8 7181      		ldd r23,Z+1
 5663               	.LVL419:
 5664 21ea C801      		movw r24,r16
 5665 21ec 0E94 0000 		call set_int_insert
 5666 21f0 00C0      		rjmp .L355
 5667               	.LVL420:
 5668               	.L314:
 5669               	.LBE257:
 5670               	.LBB258:
 5671               	.LM442:
 5672 21f2 D601      		movw r26,r12
 5673 21f4 0D91      		ld r16,X+
 5674 21f6 1C91      		ld r17,X
 5675               	.LVL421:
 5676               	.LM443:
 5677 21f8 F401      		movw r30,r8
 5678 21fa 4081      		ld r20,Z
 5679 21fc 5181      		ldd r21,Z+1
 5680 21fe 6281      		ldd r22,Z+2
 5681 2200 7381      		ldd r23,Z+3
 5682 2202 C801      		movw r24,r16
 5683 2204 0E94 0000 		call set_float_insert
 5684               	.LVL422:
 5685               	.L355:
 5686               	.LM444:
 5687 2208 C801      		movw r24,r16
 5688 220a 0E94 0000 		call set_print
 5689 220e 00C0      		rjmp .L306
 5690               	.LVL423:
 5691               	.L362:
 5692               	.LBE258:
 5693               	.LM445:
 5694 2210 D401      		movw r26,r8
 5695 2212 2D91      		ld r18,X+
 5696 2214 3D91      		ld r19,X+
 5697 2216 4D91      		ld r20,X+
 5698 2218 5C91      		ld r21,X
 5699 221a F601      		movw r30,r12
 5700 221c 8081      		ld r24,Z
 5701 221e 9181      		ldd r25,Z+1
 5702 2220 A281      		ldd r26,Z+2
 5703 2222 B381      		ldd r27,Z+3
 5704 2224 8217      		cp r24,r18
 5705 2226 9307      		cpc r25,r19
 5706 2228 A407      		cpc r26,r20
 5707 222a B507      		cpc r27,r21
 5708 222c 04F0      		brlt .+2
 5709 222e 00C0      		rjmp .L306
 5710 2230 00C0      		rjmp .L357
 5711               	.L308:
 5712               	.LM446:
 5713 2232 F401      		movw r30,r8
 5714 2234 2081      		ld r18,Z
 5715 2236 3181      		ldd r19,Z+1
 5716 2238 4281      		ldd r20,Z+2
 5717 223a 5381      		ldd r21,Z+3
 5718 223c F601      		movw r30,r12
 5719 223e 8081      		ld r24,Z
 5720 2240 9181      		ldd r25,Z+1
 5721 2242 A281      		ldd r26,Z+2
 5722 2244 B381      		ldd r27,Z+3
 5723 2246 2817      		cp r18,r24
 5724 2248 3907      		cpc r19,r25
 5725 224a 4A07      		cpc r20,r26
 5726 224c 5B07      		cpc r21,r27
 5727 224e 04F0      		brlt .+2
 5728 2250 00C0      		rjmp .L306
 5729               	.L357:
 5730               	.LM447:
 5731 2252 D601      		movw r26,r12
 5732 2254 2D93      		st X+,r18
 5733 2256 3D93      		st X+,r19
 5734 2258 4D93      		st X+,r20
 5735 225a 5C93      		st X,r21
 5736 225c 1397      		sbiw r26,3
 5737 225e 00C0      		rjmp .L320
 5738               	.L309:
 5739               	.LM448:
 5740 2260 B701      		movw r22,r14
 5741 2262 8827      		clr r24
 5742 2264 77FD      		sbrc r23,7
 5743 2266 8095      		com r24
 5744 2268 982F      		mov r25,r24
 5745               	.LVL424:
 5746 226a F401      		movw r30,r8
 5747 226c 2081      		ld r18,Z
 5748 226e 3181      		ldd r19,Z+1
 5749 2270 4281      		ldd r20,Z+2
 5750 2272 5381      		ldd r21,Z+3
 5751 2274 0E94 0000 		call __mulsi3
 5752 2278 D601      		movw r26,r12
 5753 227a 2D91      		ld r18,X+
 5754 227c 3D91      		ld r19,X+
 5755 227e 4D91      		ld r20,X+
 5756 2280 5C91      		ld r21,X
 5757 2282 260F      		add r18,r22
 5758 2284 371F      		adc r19,r23
 5759 2286 481F      		adc r20,r24
 5760 2288 591F      		adc r21,r25
 5761 228a F601      		movw r30,r12
 5762 228c 2083      		st Z,r18
 5763 228e 3183      		std Z+1,r19
 5764 2290 4283      		std Z+2,r20
 5765 2292 5383      		std Z+3,r21
 5766 2294 00C0      		rjmp .L306
 5767               	.LVL425:
 5768               	.L363:
 5769               	.LM449:
 5770 2296 D401      		movw r26,r8
 5771 2298 ED90      		ld r14,X+
 5772 229a FD90      		ld r15,X+
 5773 229c 0D91      		ld r16,X+
 5774 229e 1C91      		ld r17,X
 5775 22a0 C801      		movw r24,r16
 5776 22a2 B701      		movw r22,r14
 5777               	.LVL426:
 5778 22a4 F601      		movw r30,r12
 5779 22a6 2081      		ld r18,Z
 5780 22a8 3181      		ldd r19,Z+1
 5781 22aa 4281      		ldd r20,Z+2
 5782 22ac 5381      		ldd r21,Z+3
 5783 22ae 0E94 0000 		call __gtsf2
 5784 22b2 1816      		cp __zero_reg__,r24
 5785 22b4 04F0      		brlt .+2
 5786 22b6 00C0      		rjmp .L306
 5787               	.LM450:
 5788 22b8 D601      		movw r26,r12
 5789 22ba ED92      		st X+,r14
 5790 22bc FD92      		st X+,r15
 5791 22be 0D93      		st X+,r16
 5792 22c0 1C93      		st X,r17
 5793 22c2 1397      		sbiw r26,3
 5794 22c4 00C0      		rjmp .L320
 5795               	.LVL427:
 5796               	.L311:
 5797               	.LM451:
 5798 22c6 F401      		movw r30,r8
 5799 22c8 E080      		ld r14,Z
 5800 22ca F180      		ldd r15,Z+1
 5801 22cc 0281      		ldd r16,Z+2
 5802 22ce 1381      		ldd r17,Z+3
 5803 22d0 C801      		movw r24,r16
 5804 22d2 B701      		movw r22,r14
 5805               	.LVL428:
 5806 22d4 D601      		movw r26,r12
 5807 22d6 2D91      		ld r18,X+
 5808 22d8 3D91      		ld r19,X+
 5809 22da 4D91      		ld r20,X+
 5810 22dc 5C91      		ld r21,X
 5811 22de 0E94 0000 		call __ltsf2
 5812 22e2 8823      		tst r24
 5813 22e4 04F0      		brlt .+2
 5814 22e6 00C0      		rjmp .L306
 5815               	.LM452:
 5816 22e8 F601      		movw r30,r12
 5817 22ea E082      		st Z,r14
 5818 22ec F182      		std Z+1,r15
 5819 22ee 0283      		std Z+2,r16
 5820 22f0 1383      		std Z+3,r17
 5821 22f2 00C0      		rjmp .L320
 5822               	.LVL429:
 5823               	.L312:
 5824               	.LM453:
 5825 22f4 B701      		movw r22,r14
 5826 22f6 8827      		clr r24
 5827 22f8 77FD      		sbrc r23,7
 5828 22fa 8095      		com r24
 5829 22fc 982F      		mov r25,r24
 5830               	.LVL430:
 5831 22fe 0E94 0000 		call __floatsisf
 5832 2302 D401      		movw r26,r8
 5833 2304 2D91      		ld r18,X+
 5834 2306 3D91      		ld r19,X+
 5835 2308 4D91      		ld r20,X+
 5836 230a 5C91      		ld r21,X
 5837 230c 0E94 0000 		call __mulsf3
 5838 2310 9B01      		movw r18,r22
 5839 2312 AC01      		movw r20,r24
 5840 2314 F601      		movw r30,r12
 5841 2316 6081      		ld r22,Z
 5842 2318 7181      		ldd r23,Z+1
 5843 231a 8281      		ldd r24,Z+2
 5844 231c 9381      		ldd r25,Z+3
 5845 231e 0E94 0000 		call __addsf3
 5846 2322 D601      		movw r26,r12
 5847 2324 6D93      		st X+,r22
 5848 2326 7D93      		st X+,r23
 5849 2328 8D93      		st X+,r24
 5850 232a 9C93      		st X,r25
 5851 232c 1397      		sbiw r26,3
 5852 232e 00C0      		rjmp .L306
 5853               	.LVL431:
 5854               	.L315:
 5855               	.LBB259:
 5856               	.LM454:
 5857 2330 F601      		movw r30,r12
 5858 2332 6081      		ld r22,Z
 5859 2334 7181      		ldd r23,Z+1
 5860               	.LVL432:
 5861               	.LM455:
 5862 2336 F401      		movw r30,r8
 5863 2338 A081      		ld r26,Z
 5864 233a B181      		ldd r27,Z+1
 5865               	.LVL433:
 5866               	.LBB260:
 5867               	.LBB261:
 5868               	.LM456:
 5869 233c FB01      		movw r30,r22
 5870 233e 2481      		ldd r18,Z+4
 5871 2340 3581      		ldd r19,Z+5
 5872               	.LBE261:
 5873               	.LBE260:
 5874               	.LBB262:
 5875               	.LBB263:
 5876 2342 1496      		adiw r26,4
 5877 2344 4D91      		ld r20,X+
 5878 2346 5C91      		ld r21,X
 5879 2348 1597      		sbiw r26,4+1
 5880               	.LBE263:
 5881               	.LBE262:
 5882               	.LM457:
 5883 234a 2417      		cp r18,r20
 5884 234c 3507      		cpc r19,r21
 5885 234e 01F0      		breq .L323
 5886               	.LM458:
 5887 2350 8DB7      		in r24,__SP_L__
 5888 2352 9EB7      		in r25,__SP_H__
 5889 2354 0897      		sbiw r24,8
 5890 2356 8DBF      		out __SP_L__,r24
 5891 2358 9EBF      		out __SP_H__,r25
 5892 235a EDB7      		in r30,__SP_L__
 5893 235c FEB7      		in r31,__SP_H__
 5894 235e 3196      		adiw r30,1
 5895 2360 8091 0000 		lds r24,__iob+4
 5896 2364 9091 0000 		lds r25,(__iob+4)+1
 5897 2368 ADB7      		in r26,__SP_L__
 5898 236a BEB7      		in r27,__SP_H__
 5899               	.LVL434:
 5900 236c 1196      		adiw r26,1
 5901 236e 8D93      		st X+,r24
 5902 2370 9C93      		st X,r25
 5903 2372 1297      		sbiw r26,1+1
 5904 2374 80E0      		ldi r24,lo8(.LC27)
 5905 2376 90E0      		ldi r25,hi8(.LC27)
 5906 2378 00C0      		rjmp .L358
 5907               	.LVL435:
 5908               	.L323:
 5909               	.LBB264:
 5910               	.LBB265:
 5911               	.LM459:
 5912 237a FB01      		movw r30,r22
 5913 237c 0190      		ld __tmp_reg__,Z+
 5914 237e F081      		ld r31,Z
 5915 2380 E02D      		mov r30,__tmp_reg__
 5916 2382 EB8B      		std Y+19,r30
 5917 2384 FC8B      		std Y+20,r31
 5918               	.LVL436:
 5919               	.LBE265:
 5920               	.LBE264:
 5921               	.LBB266:
 5922               	.LBB267:
 5923 2386 0D91      		ld r16,X+
 5924 2388 1C91      		ld r17,X
 5925               	.LVL437:
 5926               	.LBE267:
 5927               	.LBE266:
 5928               	.LM460:
 5929 238a 3701      		movw r6,r14
 5930 238c 8824      		clr r8
 5931 238e 77FC      		sbrc r7,7
 5932 2390 8094      		com r8
 5933 2392 982C      		mov r9,r8
 5934 2394 00C0      		rjmp .L324
 5935               	.L325:
 5936 2396 D801      		movw r26,r16
 5937               	.LVL438:
 5938 2398 1296      		adiw r26,2
 5939 239a 2D91      		ld r18,X+
 5940 239c 3D91      		ld r19,X+
 5941 239e 4D91      		ld r20,X+
 5942 23a0 5C91      		ld r21,X
 5943 23a2 1597      		sbiw r26,2+3
 5944 23a4 C401      		movw r24,r8
 5945 23a6 B301      		movw r22,r6
 5946               	.LVL439:
 5947 23a8 0E94 0000 		call __mulsi3
 5948 23ac EB89      		ldd r30,Y+19
 5949 23ae FC89      		ldd r31,Y+20
 5950 23b0 2281      		ldd r18,Z+2
 5951 23b2 3381      		ldd r19,Z+3
 5952 23b4 4481      		ldd r20,Z+4
 5953 23b6 5581      		ldd r21,Z+5
 5954 23b8 260F      		add r18,r22
 5955 23ba 371F      		adc r19,r23
 5956 23bc 481F      		adc r20,r24
 5957 23be 591F      		adc r21,r25
 5958 23c0 DF01      		movw r26,r30
 5959 23c2 2283      		std Z+2,r18
 5960 23c4 3383      		std Z+3,r19
 5961 23c6 4483      		std Z+4,r20
 5962 23c8 5583      		std Z+5,r21
 5963               	.LBB268:
 5964               	.LBB269:
 5965               	.LM461:
 5966 23ca F801      		movw r30,r16
 5967 23cc 0081      		ld r16,Z
 5968 23ce 1181      		ldd r17,Z+1
 5969               	.LBE269:
 5970               	.LBE268:
 5971               	.LBB270:
 5972               	.LBB271:
 5973 23d0 2D91      		ld r18,X+
 5974 23d2 3C91      		ld r19,X
 5975 23d4 2B8B      		std Y+19,r18
 5976 23d6 3C8B      		std Y+20,r19
 5977               	.LVL440:
 5978               	.L324:
 5979               	.LBE271:
 5980               	.LBE270:
 5981               	.LM462:
 5982 23d8 8B89      		ldd r24,Y+19
 5983 23da 9C89      		ldd r25,Y+20
 5984 23dc 892B      		or r24,r25
 5985 23de 01F4      		brne .L325
 5986 23e0 00C0      		rjmp .L306
 5987               	.LVL441:
 5988               	.L365:
 5989               	.LBE259:
 5990               	.LBB272:
 5991               	.LM463:
 5992 23e2 D601      		movw r26,r12
 5993 23e4 6D91      		ld r22,X+
 5994 23e6 7C91      		ld r23,X
 5995               	.LVL442:
 5996               	.LM464:
 5997 23e8 F401      		movw r30,r8
 5998 23ea A081      		ld r26,Z
 5999 23ec B181      		ldd r27,Z+1
 6000               	.LVL443:
 6001               	.LBB273:
 6002               	.LBB274:
 6003               	.LM465:
 6004 23ee FB01      		movw r30,r22
 6005 23f0 2481      		ldd r18,Z+4
 6006 23f2 3581      		ldd r19,Z+5
 6007               	.LBE274:
 6008               	.LBE273:
 6009               	.LBB275:
 6010               	.LBB276:
 6011 23f4 1496      		adiw r26,4
 6012 23f6 4D91      		ld r20,X+
 6013 23f8 5C91      		ld r21,X
 6014 23fa 1597      		sbiw r26,4+1
 6015               	.LBE276:
 6016               	.LBE275:
 6017               	.LM466:
 6018 23fc 2417      		cp r18,r20
 6019 23fe 3507      		cpc r19,r21
 6020 2400 01F0      		breq .L326
 6021               	.LM467:
 6022 2402 8DB7      		in r24,__SP_L__
 6023 2404 9EB7      		in r25,__SP_H__
 6024 2406 0897      		sbiw r24,8
 6025 2408 8DBF      		out __SP_L__,r24
 6026 240a 9EBF      		out __SP_H__,r25
 6027 240c EDB7      		in r30,__SP_L__
 6028 240e FEB7      		in r31,__SP_H__
 6029 2410 3196      		adiw r30,1
 6030 2412 8091 0000 		lds r24,__iob+4
 6031 2416 9091 0000 		lds r25,(__iob+4)+1
 6032 241a ADB7      		in r26,__SP_L__
 6033 241c BEB7      		in r27,__SP_H__
 6034               	.LVL444:
 6035 241e 1196      		adiw r26,1
 6036 2420 8D93      		st X+,r24
 6037 2422 9C93      		st X,r25
 6038 2424 1297      		sbiw r26,1+1
 6039 2426 80E0      		ldi r24,lo8(.LC28)
 6040 2428 90E0      		ldi r25,hi8(.LC28)
 6041               	.LVL445:
 6042               	.L358:
 6043 242a 8283      		std Z+2,r24
 6044 242c 9383      		std Z+3,r25
 6045 242e 2483      		std Z+4,r18
 6046 2430 3583      		std Z+5,r19
 6047 2432 4683      		std Z+6,r20
 6048 2434 5783      		std Z+7,r21
 6049 2436 0E94 0000 		call fprintf
 6050               	.LVL446:
 6051               	.LM468:
 6052 243a EDB7      		in r30,__SP_L__
 6053 243c FEB7      		in r31,__SP_H__
 6054 243e 3896      		adiw r30,8
 6055 2440 EDBF      		out __SP_L__,r30
 6056 2442 FEBF      		out __SP_H__,r31
 6057 2444 81E0      		ldi r24,lo8(1)
 6058 2446 90E0      		ldi r25,hi8(1)
 6059 2448 0E94 0000 		call exit
 6060               	.LVL447:
 6061               	.L326:
 6062               	.LBB277:
 6063               	.LBB278:
 6064               	.LM469:
 6065 244c FB01      		movw r30,r22
 6066 244e 0190      		ld __tmp_reg__,Z+
 6067 2450 F081      		ld r31,Z
 6068 2452 E02D      		mov r30,__tmp_reg__
 6069 2454 EB8B      		std Y+19,r30
 6070 2456 FC8B      		std Y+20,r31
 6071               	.LVL448:
 6072               	.LBE278:
 6073               	.LBE277:
 6074               	.LBB279:
 6075               	.LBB280:
 6076 2458 0D91      		ld r16,X+
 6077 245a 1C91      		ld r17,X
 6078               	.LVL449:
 6079               	.LBE280:
 6080               	.LBE279:
 6081               	.LM470:
 6082 245c 3701      		movw r6,r14
 6083 245e 8824      		clr r8
 6084 2460 77FC      		sbrc r7,7
 6085 2462 8094      		com r8
 6086 2464 982C      		mov r9,r8
 6087 2466 00C0      		rjmp .L327
 6088               	.L328:
 6089 2468 C401      		movw r24,r8
 6090 246a B301      		movw r22,r6
 6091               	.LVL450:
 6092 246c 0E94 0000 		call __floatsisf
 6093               	.LVL451:
 6094 2470 D801      		movw r26,r16
 6095 2472 1296      		adiw r26,2
 6096 2474 2D91      		ld r18,X+
 6097 2476 3D91      		ld r19,X+
 6098 2478 4D91      		ld r20,X+
 6099 247a 5C91      		ld r21,X
 6100 247c 1597      		sbiw r26,2+3
 6101 247e 0E94 0000 		call __mulsf3
 6102 2482 9B01      		movw r18,r22
 6103 2484 AC01      		movw r20,r24
 6104 2486 EB89      		ldd r30,Y+19
 6105 2488 FC89      		ldd r31,Y+20
 6106 248a 6281      		ldd r22,Z+2
 6107 248c 7381      		ldd r23,Z+3
 6108 248e 8481      		ldd r24,Z+4
 6109 2490 9581      		ldd r25,Z+5
 6110 2492 0E94 0000 		call __addsf3
 6111 2496 AB89      		ldd r26,Y+19
 6112 2498 BC89      		ldd r27,Y+20
 6113 249a 1296      		adiw r26,2
 6114 249c 6D93      		st X+,r22
 6115 249e 7D93      		st X+,r23
 6116 24a0 8D93      		st X+,r24
 6117 24a2 9C93      		st X,r25
 6118 24a4 1597      		sbiw r26,2+3
 6119               	.LBB281:
 6120               	.LBB282:
 6121               	.LM471:
 6122 24a6 ED91      		ld r30,X+
 6123 24a8 FC91      		ld r31,X
 6124 24aa EB8B      		std Y+19,r30
 6125 24ac FC8B      		std Y+20,r31
 6126               	.LVL452:
 6127               	.LBE282:
 6128               	.LBE281:
 6129               	.LBB283:
 6130               	.LBB284:
 6131 24ae D801      		movw r26,r16
 6132 24b0 0D91      		ld r16,X+
 6133 24b2 1C91      		ld r17,X
 6134               	.LVL453:
 6135               	.L327:
 6136               	.LBE284:
 6137               	.LBE283:
 6138               	.LM472:
 6139 24b4 EB89      		ldd r30,Y+19
 6140 24b6 FC89      		ldd r31,Y+20
 6141 24b8 EF2B      		or r30,r31
 6142 24ba 01F4      		brne .L328
 6143 24bc 00C0      		rjmp .L306
 6144               	.LVL454:
 6145               	.L305:
 6146               	.LBE272:
 6147               	.LM473:
 6148 24be 80E0      		ldi r24,lo8(.LC9)
 6149 24c0 90E0      		ldi r25,hi8(.LC9)
 6150 24c2 67E6      		ldi r22,lo8(615)
 6151 24c4 72E0      		ldi r23,hi8(615)
 6152               	.LVL455:
 6153 24c6 40E0      		ldi r20,lo8(.LC10)
 6154 24c8 50E0      		ldi r21,hi8(.LC10)
 6155 24ca 0E94 0000 		call __myassert
 6156               	.L329:
 6157 24ce 00C0      		rjmp .L329
 6158               	.LVL456:
 6159               	.L306:
 6160               	.LBE256:
 6161               	.LBE255:
 6162               	.LM474:
 6163 24d0 D101      		movw r26,r2
 6164               	.LVL457:
 6165               	.L356:
 6166 24d2 2D90      		ld r2,X+
 6167 24d4 3C90      		ld r3,X
 6168               	.LVL458:
 6169 24d6 4091 0000 		lds r20,arguments
 6170 24da 5091 0000 		lds r21,(arguments)+1
 6171 24de 2114      		cp r2,__zero_reg__
 6172 24e0 3104      		cpc r3,__zero_reg__
 6173 24e2 01F0      		breq .+2
 6174 24e4 00C0      		rjmp .L330
 6175               	.LM475:
 6176 24e6 ED85      		ldd r30,Y+13
 6177 24e8 FE85      		ldd r31,Y+14
 6178 24ea A481      		ldd r26,Z+4
 6179 24ec B581      		ldd r27,Z+5
 6180 24ee EC91      		ld r30,X
 6181 24f0 F0E0      		ldi r31,lo8(0)
 6182 24f2 EE0F      		lsl r30
 6183 24f4 FF1F      		rol r31
 6184               	.LVL459:
 6185 24f6 E40F      		add r30,r20
 6186 24f8 F51F      		adc r31,r21
 6187 24fa 8081      		ld r24,Z
 6188 24fc 2985      		ldd r18,Y+9
 6189 24fe 3A85      		ldd r19,Y+10
 6190 2500 420F      		add r20,r18
 6191 2502 531F      		adc r21,r19
 6192 2504 480F      		add r20,r24
 6193 2506 511D      		adc r21,__zero_reg__
 6194 2508 FA01      		movw r30,r20
 6195 250a 8181      		ldd r24,Z+1
 6196 250c E82E      		mov r14,r24
 6197               	.LVL460:
 6198 250e FF24      		clr r15
 6199               	.LVL461:
 6200 2510 0894      		sec
 6201 2512 E11C      		adc r14,__zero_reg__
 6202 2514 F11C      		adc r15,__zero_reg__
 6203               	.LVL462:
 6204 2516 EA0E      		add r14,r26
 6205 2518 FB1E      		adc r15,r27
 6206               	.LM476:
 6207 251a F989      		ldd r31,Y+17
 6208 251c FF23      		tst r31
 6209 251e 01F0      		breq .L331
 6210               	.LM477:
 6211 2520 C701      		movw r24,r14
 6212               	.LVL463:
 6213 2522 B601      		movw r22,r12
 6214               	.LVL464:
 6215 2524 4A89      		ldd r20,Y+18
 6216 2526 50E0      		ldi r21,lo8(0)
 6217 2528 0E94 0000 		call memcpy
 6218 252c 00C0      		rjmp .L333
 6219               	.LVL465:
 6220               	.L331:
 6221               	.LBB285:
 6222               	.LBB286:
 6223               	.LM478:
 6224 252e 28E0      		ldi r18,lo8(8)
 6225 2530 A216      		cp r10,r18
 6226 2532 B104      		cpc r11,__zero_reg__
 6227 2534 04F4      		brge .L339
 6228 2536 35E0      		ldi r19,lo8(5)
 6229 2538 A316      		cp r10,r19
 6230 253a B104      		cpc r11,__zero_reg__
 6231 253c 04F4      		brge .L336
 6232 253e 81E0      		ldi r24,lo8(1)
 6233 2540 A816      		cp r10,r24
 6234 2542 B104      		cpc r11,__zero_reg__
 6235 2544 01F4      		brne .+2
 6236 2546 00C0      		rjmp .L333
 6237 2548 91E0      		ldi r25,lo8(1)
 6238 254a A916      		cp r10,r25
 6239 254c B104      		cpc r11,__zero_reg__
 6240 254e 04F4      		brge .L351
 6241 2550 00C0      		rjmp .L334
 6242               	.L339:
 6243 2552 AAE0      		ldi r26,lo8(10)
 6244 2554 AA16      		cp r10,r26
 6245 2556 B104      		cpc r11,__zero_reg__
 6246 2558 04F0      		brlt .L337
 6247 255a BCE0      		ldi r27,lo8(12)
 6248 255c AB16      		cp r10,r27
 6249 255e B104      		cpc r11,__zero_reg__
 6250 2560 04F4      		brge .L334
 6251 2562 00C0      		rjmp .L366
 6252               	.L351:
 6253               	.LM479:
 6254 2564 F701      		movw r30,r14
 6255 2566 2081      		ld r18,Z
 6256 2568 3181      		ldd r19,Z+1
 6257 256a 4281      		ldd r20,Z+2
 6258 256c 5381      		ldd r21,Z+3
 6259 256e F601      		movw r30,r12
 6260 2570 8081      		ld r24,Z
 6261 2572 9181      		ldd r25,Z+1
 6262 2574 A281      		ldd r26,Z+2
 6263 2576 B381      		ldd r27,Z+3
 6264 2578 2817      		cp r18,r24
 6265 257a 3907      		cpc r19,r25
 6266 257c 4A07      		cpc r20,r26
 6267 257e 5B07      		cpc r21,r27
 6268 2580 01F4      		brne .L344
 6269 2582 00C0      		rjmp .L333
 6270               	.L336:
 6271               	.LM480:
 6272 2584 D701      		movw r26,r14
 6273 2586 6D91      		ld r22,X+
 6274 2588 7D91      		ld r23,X+
 6275 258a 8D91      		ld r24,X+
 6276 258c 9C91      		ld r25,X
 6277 258e F601      		movw r30,r12
 6278 2590 2081      		ld r18,Z
 6279 2592 3181      		ldd r19,Z+1
 6280 2594 4281      		ldd r20,Z+2
 6281 2596 5381      		ldd r21,Z+3
 6282 2598 0E94 0000 		call __nesf2
 6283 259c 8823      		tst r24
 6284 259e 01F4      		brne .L344
 6285 25a0 00C0      		rjmp .L333
 6286               	.L337:
 6287               	.LBB289:
 6288               	.LM481:
 6289 25a2 D601      		movw r26,r12
 6290 25a4 0D91      		ld r16,X+
 6291 25a6 1C91      		ld r17,X
 6292               	.LVL466:
 6293               	.LBE289:
 6294               	.LBE286:
 6295               	.LM482:
 6296 25a8 F701      		movw r30,r14
 6297 25aa 8081      		ld r24,Z
 6298 25ac 9181      		ldd r25,Z+1
 6299 25ae B801      		movw r22,r16
 6300 25b0 0E94 0000 		call set_equal
 6301               	.LBB291:
 6302               	.LBB288:
 6303 25b4 892B      		or r24,r25
 6304 25b6 01F0      		breq .L344
 6305               	.LM483:
 6306 25b8 C801      		movw r24,r16
 6307 25ba 0E94 0000 		call set_delete
 6308 25be 00C0      		rjmp .L333
 6309               	.LVL467:
 6310               	.L366:
 6311               	.LBE288:
 6312               	.LBB287:
 6313               	.LM484:
 6314 25c0 D601      		movw r26,r12
 6315 25c2 0D91      		ld r16,X+
 6316 25c4 1C91      		ld r17,X
 6317               	.LVL468:
 6318               	.LBE287:
 6319               	.LBE291:
 6320               	.LM485:
 6321 25c6 F701      		movw r30,r14
 6322 25c8 8081      		ld r24,Z
 6323 25ca 9181      		ldd r25,Z+1
 6324 25cc B801      		movw r22,r16
 6325 25ce 0E94 0000 		call list_equal
 6326               	.LBB292:
 6327               	.LBB290:
 6328 25d2 892B      		or r24,r25
 6329 25d4 01F0      		breq .L344
 6330               	.LM486:
 6331 25d6 C801      		movw r24,r16
 6332 25d8 0E94 0000 		call list_delete
 6333 25dc 00C0      		rjmp .L333
 6334               	.LVL469:
 6335               	.L334:
 6336               	.LBE290:
 6337               	.LM487:
 6338 25de 80E0      		ldi r24,lo8(.LC9)
 6339 25e0 90E0      		ldi r25,hi8(.LC9)
 6340 25e2 69E9      		ldi r22,lo8(665)
 6341 25e4 72E0      		ldi r23,hi8(665)
 6342 25e6 40E0      		ldi r20,lo8(.LC10)
 6343 25e8 50E0      		ldi r21,hi8(.LC10)
 6344 25ea 0E94 0000 		call __myassert
 6345               	.LVL470:
 6346               	.L344:
 6347               	.LBE292:
 6348               	.LBE285:
 6349               	.LM488:
 6350 25ee 2B85      		ldd r18,Y+11
 6351 25f0 3C85      		ldd r19,Y+12
 6352 25f2 2050      		subi r18,lo8(-(meld_prog))
 6353 25f4 3040      		sbci r19,hi8(-(meld_prog))
 6354 25f6 D901      		movw r26,r18
 6355 25f8 8C91      		ld r24,X
 6356 25fa 082F      		mov r16,r24
 6357               	.LVL471:
 6358 25fc 10E0      		ldi r17,lo8(0)
 6359 25fe 0050      		subi r16,lo8(-(meld_prog))
 6360 2600 1040      		sbci r17,hi8(-(meld_prog))
 6361 2602 F801      		movw r30,r16
 6362 2604 6081      		ld r22,Z
 6363 2606 7181      		ldd r23,Z+1
 6364 2608 6050      		subi r22,lo8(-(meld_prog))
 6365 260a 7040      		sbci r23,hi8(-(meld_prog))
 6366 260c AD85      		ldd r26,Y+13
 6367 260e BE85      		ldd r27,Y+14
 6368 2610 1496      		adiw r26,4
 6369 2612 8D91      		ld r24,X+
 6370 2614 9C91      		ld r25,X
 6371 2616 1597      		sbiw r26,4+1
 6372 2618 4FEF      		ldi r20,lo8(-1)
 6373 261a 5FEF      		ldi r21,hi8(-1)
 6374 261c 2F85      		ldd r18,Y+15
 6375 261e 3889      		ldd r19,Y+16
 6376 2620 0E94 0000 		call tuple_process
 6377               	.LM489:
 6378 2624 ED85      		ldd r30,Y+13
 6379 2626 FE85      		ldd r31,Y+14
 6380 2628 8481      		ldd r24,Z+4
 6381 262a 9581      		ldd r25,Z+5
 6382 262c 6F81      		ldd r22,Y+7
 6383 262e 4A2D      		mov r20,r10
 6384 2630 0E94 0000 		call aggregate_free
 6385               	.LM490:
 6386 2634 C701      		movw r24,r14
 6387               	.LVL472:
 6388 2636 B601      		movw r22,r12
 6389               	.LVL473:
 6390 2638 4A89      		ldd r20,Y+18
 6391 263a 50E0      		ldi r21,lo8(0)
 6392 263c 0E94 0000 		call memcpy
 6393               	.LM491:
 6394 2640 2B81      		ldd r18,Y+3
 6395 2642 3C81      		ldd r19,Y+4
 6396 2644 232B      		or r18,r19
 6397 2646 01F0      		breq .L346
 6398               	.LVL474:
 6399               	.LM492:
 6400 2648 AD85      		ldd r26,Y+13
 6401 264a BE85      		ldd r27,Y+14
 6402 264c 1496      		adiw r26,4
 6403 264e 2D91      		ld r18,X+
 6404 2650 3C91      		ld r19,X
 6405 2652 1597      		sbiw r26,4+1
 6406 2654 240D      		add r18,r4
 6407 2656 351D      		adc r19,r5
 6408 2658 4981      		ldd r20,Y+1
 6409 265a 5A81      		ldd r21,Y+2
 6410 265c 440D      		add r20,r4
 6411 265e 551D      		adc r21,r5
 6412 2660 C901      		movw r24,r18
 6413 2662 BA01      		movw r22,r20
 6414 2664 4B81      		ldd r20,Y+3
 6415 2666 5C81      		ldd r21,Y+4
 6416               	.LVL475:
 6417 2668 0E94 0000 		call memcpy
 6418               	.L346:
 6419               	.LM493:
 6420 266c F801      		movw r30,r16
 6421 266e 6081      		ld r22,Z
 6422 2670 7181      		ldd r23,Z+1
 6423 2672 6050      		subi r22,lo8(-(meld_prog))
 6424 2674 7040      		sbci r23,hi8(-(meld_prog))
 6425 2676 AD85      		ldd r26,Y+13
 6426 2678 BE85      		ldd r27,Y+14
 6427 267a 1496      		adiw r26,4
 6428 267c 8D91      		ld r24,X+
 6429 267e 9C91      		ld r25,X
 6430 2680 1597      		sbiw r26,4+1
 6431 2682 41E0      		ldi r20,lo8(1)
 6432 2684 50E0      		ldi r21,hi8(1)
 6433 2686 2F85      		ldd r18,Y+15
 6434 2688 3889      		ldd r19,Y+16
 6435 268a 0E94 0000 		call tuple_process
 6436               	.LVL476:
 6437               	.L333:
 6438               	.LM494:
 6439 268e C601      		movw r24,r12
 6440 2690 0E94 0000 		call free
 6441               	/* epilogue start */
 6442               	.LM495:
 6443 2694 6496      		adiw r28,20
 6444 2696 CDBF      		out __SP_L__,r28
 6445 2698 DEBF      		out __SP_H__,r29
 6446 269a CF91      		pop r28
 6447 269c DF91      		pop r29
 6448 269e 1F91      		pop r17
 6449 26a0 0F91      		pop r16
 6450               	.LVL477:
 6451 26a2 FF90      		pop r15
 6452               	.LVL478:
 6453 26a4 EF90      		pop r14
 6454               	.LVL479:
 6455 26a6 DF90      		pop r13
 6456 26a8 CF90      		pop r12
 6457               	.LVL480:
 6458 26aa BF90      		pop r11
 6459               	.LVL481:
 6460 26ac AF90      		pop r10
 6461               	.LVL482:
 6462 26ae 9F90      		pop r9
 6463               	.LVL483:
 6464 26b0 8F90      		pop r8
 6465               	.LVL484:
 6466 26b2 7F90      		pop r7
 6467 26b4 6F90      		pop r6
 6468 26b6 5F90      		pop r5
 6469               	.LVL485:
 6470 26b8 4F90      		pop r4
 6471               	.LVL486:
 6472 26ba 3F90      		pop r3
 6473 26bc 2F90      		pop r2
 6474               	.LVL487:
 6475 26be 0895      		ret
 6476               	.LVL488:
 6477               	.L320:
 6478               	.LM496:
 6479 26c0 F101      		movw r30,r2
 6480 26c2 0480      		ldd __tmp_reg__,Z+4
 6481 26c4 F581      		ldd r31,Z+5
 6482 26c6 E02D      		mov r30,__tmp_reg__
 6483 26c8 E983      		std Y+1,r30
 6484 26ca FA83      		std Y+2,r31
 6485               	.LVL489:
 6486 26cc 00C0      		rjmp .L306
 6487               	.LFE40:
 6489               		.data
 6490               	.LC29:
 6491 01ef 556E 7265 		.string	"Unrecognized type: %d\n"
 6491      636F 676E 
 6491      697A 6564 
 6491      2074 7970 
 6491      653A 2025 
 6492               	.LC30:
 6493 0206 6D65 6C64 		.string	"meld: persistent types can't be deleted\n"
 6493      3A20 7065 
 6493      7273 6973 
 6493      7465 6E74 
 6493      2074 7970 
 6494               		.text
 6495               	.global	tuple_do_handle
 6497               	tuple_do_handle:
 6498               	.LFB43:
 6499               	.LM497:
 6500               	.LVL490:
 6501 26ce 2F92      		push r2
 6502 26d0 3F92      		push r3
 6503 26d2 4F92      		push r4
 6504 26d4 5F92      		push r5
 6505 26d6 6F92      		push r6
 6506 26d8 7F92      		push r7
 6507 26da 8F92      		push r8
 6508 26dc 9F92      		push r9
 6509 26de AF92      		push r10
 6510 26e0 BF92      		push r11
 6511 26e2 CF92      		push r12
 6512 26e4 DF92      		push r13
 6513 26e6 EF92      		push r14
 6514 26e8 FF92      		push r15
 6515 26ea 0F93      		push r16
 6516 26ec 1F93      		push r17
 6517 26ee DF93      		push r29
 6518 26f0 CF93      		push r28
 6519 26f2 CDB7      		in r28,__SP_L__
 6520 26f4 DEB7      		in r29,__SP_H__
 6521 26f6 6997      		sbiw r28,25
 6522 26f8 CDBF      		out __SP_L__,r28
 6523 26fa DEBF      		out __SP_H__,r29
 6524               	/* prologue: function */
 6525               	/* frame size = 25 */
 6526 26fc 6C01      		movw r12,r24
 6527 26fe 3B01      		movw r6,r22
 6528 2700 4C8B      		std Y+20,r20
 6529 2702 5D8B      		std Y+21,r21
 6530 2704 2E8B      		std Y+22,r18
 6531 2706 3F8B      		std Y+23,r19
 6532               	.LM498:
 6533 2708 2C01      		movw r4,r24
 6534 270a 0894      		sec
 6535 270c 411C      		adc r4,__zero_reg__
 6536 270e 511C      		adc r5,__zero_reg__
 6537 2710 F201      		movw r30,r4
 6538 2712 E050      		subi r30,lo8(-(meld_prog))
 6539 2714 F040      		sbci r31,hi8(-(meld_prog))
 6540 2716 8081      		ld r24,Z
 6541               	.LVL491:
 6542 2718 E82F      		mov r30,r24
 6543 271a F0E0      		ldi r31,lo8(0)
 6544 271c E050      		subi r30,lo8(-(meld_prog))
 6545 271e F040      		sbci r31,hi8(-(meld_prog))
 6546 2720 8281      		ldd r24,Z+2
 6547 2722 E090 0000 		lds r14,TYPE_PROVED
 6548 2726 F090 0000 		lds r15,(TYPE_PROVED)+1
 6549 272a 86FF      		sbrs r24,6
 6550 272c 00C0      		rjmp .L368
 6551               	.LVL492:
 6552               	.LBB293:
 6553               	.LM499:
 6554 272e C601      		movw r24,r12
 6555 2730 880F      		lsl r24
 6556 2732 991F      		rol r25
 6557 2734 880F      		lsl r24
 6558 2736 991F      		rol r25
 6559 2738 E091 0000 		lds r30,proved
 6560 273c F091 0000 		lds r31,(proved)+1
 6561 2740 E80F      		add r30,r24
 6562 2742 F91F      		adc r31,r25
 6563 2744 CA01      		movw r24,r20
 6564 2746 9C01      		movw r18,r24
 6565 2748 4427      		clr r20
 6566 274a 37FD      		sbrc r19,7
 6567 274c 4095      		com r20
 6568 274e 542F      		mov r21,r20
 6569               	.LVL493:
 6570 2750 8081      		ld r24,Z
 6571 2752 9181      		ldd r25,Z+1
 6572 2754 A281      		ldd r26,Z+2
 6573 2756 B381      		ldd r27,Z+3
 6574 2758 820F      		add r24,r18
 6575 275a 931F      		adc r25,r19
 6576 275c A41F      		adc r26,r20
 6577 275e B51F      		adc r27,r21
 6578 2760 8083      		st Z,r24
 6579 2762 9183      		std Z+1,r25
 6580 2764 A283      		std Z+2,r26
 6581 2766 B383      		std Z+3,r27
 6582               	.LM500:
 6583 2768 8983      		std Y+1,r24
 6584 276a 9A83      		std Y+2,r25
 6585 276c AB83      		std Y+3,r26
 6586 276e BC83      		std Y+4,r27
 6587               	.LVL494:
 6588               	.LBB294:
 6589               	.LBB295:
 6590               	.LBB296:
 6591               	.LBB297:
 6592               	.LM501:
 6593 2770 8091 0000 		lds r24,meld_prog
 6594 2774 90E0      		ldi r25,lo8(0)
 6595 2776 E816      		cp r14,r24
 6596 2778 F906      		cpc r15,r25
 6597 277a 04F4      		brge .L369
 6598 277c F7FE      		sbrs r15,7
 6599 277e 00C0      		rjmp .L370
 6600               	.L369:
 6601               	.LM502:
 6602 2780 00D0      		rcall .
 6603 2782 00D0      		rcall .
 6604 2784 EDB7      		in r30,__SP_L__
 6605 2786 FEB7      		in r31,__SP_H__
 6606 2788 3196      		adiw r30,1
 6607 278a 8091 0000 		lds r24,__iob+4
 6608 278e 9091 0000 		lds r25,(__iob+4)+1
 6609 2792 ADB7      		in r26,__SP_L__
 6610 2794 BEB7      		in r27,__SP_H__
 6611 2796 1196      		adiw r26,1
 6612 2798 8D93      		st X+,r24
 6613 279a 9C93      		st X,r25
 6614 279c 1297      		sbiw r26,1+1
 6615 279e 80E0      		ldi r24,lo8(.LC29)
 6616 27a0 90E0      		ldi r25,hi8(.LC29)
 6617 27a2 8283      		std Z+2,r24
 6618 27a4 9383      		std Z+3,r25
 6619 27a6 E482      		std Z+4,r14
 6620 27a8 F582      		std Z+5,r15
 6621 27aa 0E94 0000 		call fprintf
 6622               	.LVL495:
 6623               	.LM503:
 6624 27ae EDB7      		in r30,__SP_L__
 6625 27b0 FEB7      		in r31,__SP_H__
 6626 27b2 3696      		adiw r30,6
 6627 27b4 EDBF      		out __SP_L__,r30
 6628 27b6 FEBF      		out __SP_H__,r31
 6629 27b8 00C0      		rjmp .L421
 6630               	.LVL496:
 6631               	.L370:
 6632               	.LBE297:
 6633               	.LM504:
 6634 27ba C701      		movw r24,r14
 6635 27bc 880F      		lsl r24
 6636 27be 991F      		rol r25
 6637               	.LVL497:
 6638 27c0 E091 0000 		lds r30,arguments
 6639 27c4 F091 0000 		lds r31,(arguments)+1
 6640 27c8 E80F      		add r30,r24
 6641 27ca F91F      		adc r31,r25
 6642 27cc 8181      		ldd r24,Z+1
 6643 27ce 90E0      		ldi r25,lo8(0)
 6644 27d0 0E94 0000 		call malloc
 6645 27d4 8C01      		movw r16,r24
 6646               	.LBB298:
 6647               	.LM505:
 6648 27d6 DC01      		movw r26,r24
 6649               	.LVL498:
 6650 27d8 EC92      		st X,r14
 6651               	.LBE298:
 6652               	.LBE296:
 6653               	.LM506:
 6654 27da C601      		movw r24,r12
 6655 27dc AA27      		clr r26
 6656 27de 97FD      		sbrc r25,7
 6657 27e0 A095      		com r26
 6658 27e2 BA2F      		mov r27,r26
 6659               	.LVL499:
 6660 27e4 8D83      		std Y+5,r24
 6661 27e6 9E83      		std Y+6,r25
 6662 27e8 AF83      		std Y+7,r26
 6663 27ea B887      		std Y+8,r27
 6664               	.LVL500:
 6665               	.LM507:
 6666 27ec A091 0000 		lds r26,arguments
 6667 27f0 B091 0000 		lds r27,(arguments)+1
 6668 27f4 F801      		movw r30,r16
 6669               	.LVL501:
 6670 27f6 8081      		ld r24,Z
 6671               	.LVL502:
 6672 27f8 E82F      		mov r30,r24
 6673 27fa F0E0      		ldi r31,lo8(0)
 6674 27fc EE0F      		lsl r30
 6675 27fe FF1F      		rol r31
 6676 2800 EA0F      		add r30,r26
 6677 2802 FB1F      		adc r31,r27
 6678 2804 8081      		ld r24,Z
 6679 2806 A80F      		add r26,r24
 6680 2808 B11D      		adc r27,__zero_reg__
 6681 280a 1196      		adiw r26,1
 6682 280c 2C91      		ld r18,X
 6683 280e 1197      		sbiw r26,1
 6684 2810 30E0      		ldi r19,lo8(0)
 6685 2812 2F5F      		subi r18,lo8(-(1))
 6686 2814 3F4F      		sbci r19,hi8(-(1))
 6687 2816 200F      		add r18,r16
 6688 2818 311F      		adc r19,r17
 6689 281a 4C91      		ld r20,X
 6690 281c FE01      		movw r30,r28
 6691 281e 3596      		adiw r30,5
 6692 2820 C901      		movw r24,r18
 6693 2822 BF01      		movw r22,r30
 6694 2824 50E0      		ldi r21,lo8(0)
 6695 2826 0E94 0000 		call memcpy
 6696               	.LM508:
 6697 282a A091 0000 		lds r26,arguments
 6698 282e B091 0000 		lds r27,(arguments)+1
 6699 2832 F801      		movw r30,r16
 6700 2834 8081      		ld r24,Z
 6701 2836 E82F      		mov r30,r24
 6702 2838 F0E0      		ldi r31,lo8(0)
 6703 283a EE0F      		lsl r30
 6704 283c FF1F      		rol r31
 6705 283e EA0F      		add r30,r26
 6706 2840 FB1F      		adc r31,r27
 6707 2842 8081      		ld r24,Z
 6708 2844 A80F      		add r26,r24
 6709 2846 B11D      		adc r27,__zero_reg__
 6710 2848 1396      		adiw r26,3
 6711 284a 2C91      		ld r18,X
 6712 284c 1397      		sbiw r26,3
 6713 284e 30E0      		ldi r19,lo8(0)
 6714 2850 2F5F      		subi r18,lo8(-(1))
 6715 2852 3F4F      		sbci r19,hi8(-(1))
 6716 2854 200F      		add r18,r16
 6717 2856 311F      		adc r19,r17
 6718 2858 1296      		adiw r26,2
 6719 285a 4C91      		ld r20,X
 6720 285c C901      		movw r24,r18
 6721 285e BE01      		movw r22,r28
 6722 2860 6F5F      		subi r22,lo8(-(1))
 6723 2862 7F4F      		sbci r23,hi8(-(1))
 6724 2864 50E0      		ldi r21,lo8(0)
 6725 2866 0E94 0000 		call memcpy
 6726               	.LBE295:
 6727               	.LBE294:
 6728               	.LM509:
 6729 286a C801      		movw r24,r16
 6730 286c 61E0      		ldi r22,lo8(1)
 6731 286e 70E0      		ldi r23,hi8(1)
 6732 2870 0E94 0000 		call enqueueNewTuple
 6733 2874 00C0      		rjmp .L373
 6734               	.LVL503:
 6735               	.L368:
 6736               	.LBE293:
 6737               	.LM510:
 6738 2876 CE14      		cp r12,r14
 6739 2878 DF04      		cpc r13,r15
 6740 287a 01F4      		brne .L374
 6741               	.LM511:
 6742 287c 6081      		ld r22,Z
 6743 287e 7181      		ldd r23,Z+1
 6744 2880 6050      		subi r22,lo8(-(meld_prog))
 6745 2882 7040      		sbci r23,hi8(-(meld_prog))
 6746 2884 C301      		movw r24,r6
 6747 2886 4C89      		ldd r20,Y+20
 6748 2888 5D89      		ldd r21,Y+21
 6749 288a 2E89      		ldd r18,Y+22
 6750 288c 3F89      		ldd r19,Y+23
 6751 288e 0E94 0000 		call tuple_process
 6752 2892 00C0      		rjmp .L419
 6753               	.LVL504:
 6754               	.L374:
 6755               	.LM512:
 6756 2894 8091 0000 		lds r24,TYPE_TERMINATE
 6757 2898 9091 0000 		lds r25,(TYPE_TERMINATE)+1
 6758 289c C816      		cp r12,r24
 6759 289e D906      		cpc r13,r25
 6760 28a0 01F4      		brne .+2
 6761 28a2 00C0      		rjmp .L419
 6762               	.LVL505:
 6763               	.L373:
 6764               	.LM513:
 6765 28a4 F201      		movw r30,r4
 6766 28a6 E050      		subi r30,lo8(-(meld_prog))
 6767 28a8 F040      		sbci r31,hi8(-(meld_prog))
 6768 28aa 8081      		ld r24,Z
 6769 28ac 282E      		mov r2,r24
 6770 28ae 3324      		clr r3
 6771 28b0 70E0      		ldi r23,lo8(meld_prog+2)
 6772 28b2 872E      		mov r8,r23
 6773 28b4 70E0      		ldi r23,hi8(meld_prog+2)
 6774 28b6 972E      		mov r9,r23
 6775 28b8 820C      		add r8,r2
 6776 28ba 931C      		adc r9,r3
 6777 28bc D401      		movw r26,r8
 6778 28be 8C91      		ld r24,X
 6779 28c0 80FD      		sbrc r24,0
 6780 28c2 00C0      		rjmp .L376
 6781 28c4 81FF      		sbrs r24,1
 6782 28c6 00C0      		rjmp .L377
 6783               	.LBB299:
 6784               	.LM514:
 6785 28c8 C601      		movw r24,r12
 6786 28ca 880F      		lsl r24
 6787 28cc 991F      		rol r25
 6788 28ce C80E      		add r12,r24
 6789 28d0 D91E      		adc r13,r25
 6790 28d2 CC0C      		lsl r12
 6791 28d4 DD1C      		rol r13
 6792 28d6 E090 0000 		lds r14,persistent
 6793 28da F090 0000 		lds r15,(persistent)+1
 6794               	.LVL506:
 6795 28de EC0C      		add r14,r12
 6796 28e0 FD1C      		adc r15,r13
 6797               	.LM515:
 6798 28e2 E091 0000 		lds r30,arguments
 6799 28e6 F091 0000 		lds r31,(arguments)+1
 6800 28ea E80F      		add r30,r24
 6801 28ec F91F      		adc r31,r25
 6802 28ee 8181      		ldd r24,Z+1
 6803 28f0 882E      		mov r8,r24
 6804               	.LVL507:
 6805 28f2 9924      		clr r9
 6806               	.LVL508:
 6807               	.LM516:
 6808 28f4 EC89      		ldd r30,Y+20
 6809 28f6 FD89      		ldd r31,Y+21
 6810 28f8 F7FD      		sbrc r31,7
 6811 28fa 00C0      		rjmp .L378
 6812               	.LM517:
 6813 28fc D701      		movw r26,r14
 6814 28fe 1296      		adiw r26,2
 6815 2900 0D91      		ld r16,X+
 6816 2902 1C91      		ld r17,X
 6817 2904 1397      		sbiw r26,2+1
 6818               	.LVL509:
 6819 2906 AA24      		clr r10
 6820 2908 BB24      		clr r11
 6821               	.LVL510:
 6822 290a CC24      		clr r12
 6823 290c DD24      		clr r13
 6824               	.LVL511:
 6825 290e 00C0      		rjmp .L379
 6826               	.LVL512:
 6827               	.L378:
 6828               	.LM518:
 6829 2910 6091 0000 		lds r22,__iob+4
 6830 2914 7091 0000 		lds r23,(__iob+4)+1
 6831 2918 80E0      		ldi r24,lo8(.LC30)
 6832 291a 90E0      		ldi r25,hi8(.LC30)
 6833 291c 0E94 0000 		call fputs
 6834               	.L421:
 6835               	.LM519:
 6836 2920 8FEF      		ldi r24,lo8(-1)
 6837 2922 9FEF      		ldi r25,hi8(-1)
 6838 2924 0E94 0000 		call exit
 6839               	.LVL513:
 6840               	.L381:
 6841               	.LBB300:
 6842               	.LM520:
 6843 2928 F701      		movw r30,r14
 6844 292a 8081      		ld r24,Z
 6845 292c 9181      		ldd r25,Z+1
 6846 292e 8C0D      		add r24,r12
 6847 2930 9D1D      		adc r25,r13
 6848 2932 B301      		movw r22,r6
 6849 2934 A401      		movw r20,r8
 6850 2936 0E94 0000 		call memcmp
 6851 293a C80C      		add r12,r8
 6852 293c D91C      		adc r13,r9
 6853 293e 0097      		sbiw r24,0
 6854 2940 01F4      		brne .+2
 6855 2942 00C0      		rjmp .L419
 6856               	.L380:
 6857               	.LBE300:
 6858               	.LM521:
 6859 2944 0894      		sec
 6860 2946 A11C      		adc r10,__zero_reg__
 6861 2948 B11C      		adc r11,__zero_reg__
 6862               	.LVL514:
 6863               	.L379:
 6864 294a A016      		cp r10,r16
 6865 294c B106      		cpc r11,r17
 6866 294e 04F0      		brlt .L381
 6867               	.LM522:
 6868 2950 D701      		movw r26,r14
 6869 2952 1496      		adiw r26,4
 6870 2954 8D91      		ld r24,X+
 6871 2956 9C91      		ld r25,X
 6872 2958 1597      		sbiw r26,4+1
 6873 295a 0817      		cp r16,r24
 6874 295c 1907      		cpc r17,r25
 6875 295e 01F4      		brne .L382
 6876               	.LM523:
 6877 2960 0115      		cp r16,__zero_reg__
 6878 2962 1105      		cpc r17,__zero_reg__
 6879 2964 01F4      		brne .L383
 6880               	.LM524:
 6881 2966 82E0      		ldi r24,lo8(2)
 6882 2968 90E0      		ldi r25,hi8(2)
 6883 296a 1296      		adiw r26,2
 6884 296c 8D93      		st X+,r24
 6885 296e 9C93      		st X,r25
 6886 2970 1397      		sbiw r26,2+1
 6887 2972 00C0      		rjmp .L384
 6888               	.L383:
 6889               	.LM525:
 6890 2974 000F      		lsl r16
 6891 2976 111F      		rol r17
 6892 2978 F701      		movw r30,r14
 6893 297a 0283      		std Z+2,r16
 6894 297c 1383      		std Z+3,r17
 6895               	.LVL515:
 6896               	.L384:
 6897               	.LM526:
 6898 297e D701      		movw r26,r14
 6899 2980 1296      		adiw r26,2
 6900 2982 8D91      		ld r24,X+
 6901 2984 9C91      		ld r25,X
 6902 2986 1397      		sbiw r26,2+1
 6903 2988 889E      		mul r8,r24
 6904 298a B001      		movw r22,r0
 6905 298c 899E      		mul r8,r25
 6906 298e 700D      		add r23,r0
 6907 2990 989E      		mul r9,r24
 6908 2992 700D      		add r23,r0
 6909 2994 1124      		clr r1
 6910 2996 8D91      		ld r24,X+
 6911 2998 9C91      		ld r25,X
 6912 299a 0E94 0000 		call realloc
 6913 299e F701      		movw r30,r14
 6914 29a0 8083      		st Z,r24
 6915 29a2 9183      		std Z+1,r25
 6916               	.LVL516:
 6917               	.L382:
 6918               	.LM527:
 6919 29a4 D701      		movw r26,r14
 6920 29a6 1496      		adiw r26,4
 6921 29a8 8D91      		ld r24,X+
 6922 29aa 9C91      		ld r25,X
 6923 29ac 1597      		sbiw r26,4+1
 6924 29ae FC01      		movw r30,r24
 6925 29b0 8E9E      		mul r8,r30
 6926 29b2 C001      		movw r24,r0
 6927 29b4 8F9E      		mul r8,r31
 6928 29b6 900D      		add r25,r0
 6929 29b8 9E9E      		mul r9,r30
 6930 29ba 900D      		add r25,r0
 6931 29bc 1124      		clr r1
 6932 29be 2D91      		ld r18,X+
 6933 29c0 3C91      		ld r19,X
 6934 29c2 280F      		add r18,r24
 6935 29c4 391F      		adc r19,r25
 6936 29c6 C901      		movw r24,r18
 6937 29c8 B301      		movw r22,r6
 6938               	.LVL517:
 6939 29ca 482D      		mov r20,r8
 6940 29cc 50E0      		ldi r21,lo8(0)
 6941 29ce 0E94 0000 		call memcpy
 6942               	.LM528:
 6943 29d2 D701      		movw r26,r14
 6944 29d4 1496      		adiw r26,4
 6945 29d6 8D91      		ld r24,X+
 6946 29d8 9C91      		ld r25,X
 6947 29da 1597      		sbiw r26,4+1
 6948 29dc 0196      		adiw r24,1
 6949 29de 1496      		adiw r26,4
 6950 29e0 8D93      		st X+,r24
 6951 29e2 9C93      		st X,r25
 6952 29e4 1597      		sbiw r26,4+1
 6953               	.LM529:
 6954 29e6 E0E0      		ldi r30,lo8(meld_prog)
 6955 29e8 F0E0      		ldi r31,hi8(meld_prog)
 6956 29ea 4E0E      		add r4,r30
 6957 29ec 5F1E      		adc r5,r31
 6958 29ee D201      		movw r26,r4
 6959 29f0 EC91      		ld r30,X
 6960 29f2 00C0      		rjmp .L423
 6961               	.LVL518:
 6962               	.L376:
 6963               	.LBE299:
 6964               	.LM530:
 6965 29f4 82FF      		sbrs r24,2
 6966 29f6 00C0      		rjmp .L386
 6967               	.L377:
 6968               	.LBB301:
 6969               	.LM531:
 6970 29f8 C601      		movw r24,r12
 6971 29fa 880F      		lsl r24
 6972 29fc 991F      		rol r25
 6973 29fe 880F      		lsl r24
 6974 2a00 991F      		rol r25
 6975 2a02 0091 0000 		lds r16,tuples
 6976 2a06 1091 0000 		lds r17,(tuples)+1
 6977               	.LVL519:
 6978 2a0a 080F      		add r16,r24
 6979 2a0c 191F      		adc r17,r25
 6980               	.LM532:
 6981 2a0e 302E      		mov r3,r16
 6982               	.LVL520:
 6983 2a10 212E      		mov r2,r17
 6984               	.LVL521:
 6985 2a12 F801      		movw r30,r16
 6986 2a14 E080      		ld r14,Z
 6987 2a16 F180      		ldd r15,Z+1
 6988               	.LM533:
 6989 2a18 C601      		movw r24,r12
 6990 2a1a 880F      		lsl r24
 6991 2a1c 991F      		rol r25
 6992 2a1e 0196      		adiw r24,1
 6993 2a20 A090 0000 		lds r10,arguments
 6994 2a24 B090 0000 		lds r11,(arguments)+1
 6995 2a28 A80E      		add r10,r24
 6996 2a2a B91E      		adc r11,r25
 6997 2a2c 00C0      		rjmp .L387
 6998               	.L393:
 6999               	.LM534:
 7000 2a2e D501      		movw r26,r10
 7001 2a30 4C91      		ld r20,X
 7002 2a32 F701      		movw r30,r14
 7003 2a34 8481      		ldd r24,Z+4
 7004 2a36 9581      		ldd r25,Z+5
 7005 2a38 B301      		movw r22,r6
 7006 2a3a 50E0      		ldi r21,lo8(0)
 7007 2a3c 0E94 0000 		call memcmp
 7008               	.LM535:
 7009 2a40 0097      		sbiw r24,0
 7010 2a42 01F0      		breq .+2
 7011 2a44 00C0      		rjmp .L388
 7012               	.LM536:
 7013 2a46 D701      		movw r26,r14
 7014 2a48 1296      		adiw r26,2
 7015 2a4a 8D91      		ld r24,X+
 7016 2a4c 9C91      		ld r25,X
 7017 2a4e 1397      		sbiw r26,2+1
 7018 2a50 EC89      		ldd r30,Y+20
 7019 2a52 FD89      		ldd r31,Y+21
 7020 2a54 8E0F      		add r24,r30
 7021 2a56 9F1F      		adc r25,r31
 7022 2a58 1296      		adiw r26,2
 7023 2a5a 8D93      		st X+,r24
 7024 2a5c 9C93      		st X,r25
 7025 2a5e 1397      		sbiw r26,2+1
 7026               	.LM537:
 7027 2a60 1816      		cp __zero_reg__,r24
 7028 2a62 1906      		cpc __zero_reg__,r25
 7029 2a64 04F4      		brge .+2
 7030 2a66 00C0      		rjmp .L419
 7031               	.LM538:
 7032 2a68 20E0      		ldi r18,lo8(meld_prog)
 7033 2a6a 30E0      		ldi r19,hi8(meld_prog)
 7034 2a6c 420E      		add r4,r18
 7035 2a6e 531E      		adc r5,r19
 7036 2a70 D201      		movw r26,r4
 7037 2a72 EC91      		ld r30,X
 7038 2a74 F0E0      		ldi r31,lo8(0)
 7039 2a76 E20F      		add r30,r18
 7040 2a78 F31F      		adc r31,r19
 7041 2a7a 8281      		ldd r24,Z+2
 7042 2a7c 82FD      		sbrc r24,2
 7043 2a7e 00C0      		rjmp .L390
 7044               	.LM539:
 7045 2a80 D301      		movw r26,r6
 7046 2a82 EC91      		ld r30,X
 7047 2a84 F0E0      		ldi r31,lo8(0)
 7048 2a86 E20F      		add r30,r18
 7049 2a88 F31F      		adc r31,r19
 7050 2a8a E181      		ldd r30,Z+1
 7051 2a8c F0E0      		ldi r31,lo8(0)
 7052 2a8e E20F      		add r30,r18
 7053 2a90 F31F      		adc r31,r19
 7054 2a92 6081      		ld r22,Z
 7055 2a94 7181      		ldd r23,Z+1
 7056 2a96 620F      		add r22,r18
 7057 2a98 731F      		adc r23,r19
 7058 2a9a C301      		movw r24,r6
 7059 2a9c 4FEF      		ldi r20,lo8(-1)
 7060 2a9e 5FEF      		ldi r21,hi8(-1)
 7061 2aa0 2E89      		ldd r18,Y+22
 7062 2aa2 3F89      		ldd r19,Y+23
 7063 2aa4 0E94 0000 		call tuple_process
 7064 2aa8 00C0      		rjmp .L391
 7065               	.L390:
 7066               	.LM540:
 7067 2aaa 7601      		movw r14,r12
 7068 2aac EE0C      		lsl r14
 7069 2aae FF1C      		rol r15
 7070 2ab0 E091 0000 		lds r30,delta_sizes
 7071 2ab4 F091 0000 		lds r31,(delta_sizes)+1
 7072 2ab8 EE0D      		add r30,r14
 7073 2aba FF1D      		adc r31,r15
 7074 2abc 8081      		ld r24,Z
 7075 2abe 9181      		ldd r25,Z+1
 7076 2ac0 892B      		or r24,r25
 7077 2ac2 01F0      		breq .L391
 7078               	.LM541:
 7079 2ac4 E091 0000 		lds r30,oldTuples
 7080 2ac8 F091 0000 		lds r31,(oldTuples)+1
 7081 2acc EE0D      		add r30,r14
 7082 2ace FF1D      		adc r31,r15
 7083 2ad0 8081      		ld r24,Z
 7084 2ad2 9181      		ldd r25,Z+1
 7085 2ad4 0097      		sbiw r24,0
 7086 2ad6 01F0      		breq .L392
 7087               	.LM542:
 7088 2ad8 0E94 0000 		call free
 7089               	.L392:
 7090               	.LM543:
 7091 2adc 8091 0000 		lds r24,oldTuples
 7092 2ae0 9091 0000 		lds r25,(oldTuples)+1
 7093 2ae4 E80E      		add r14,r24
 7094 2ae6 F91E      		adc r15,r25
 7095 2ae8 C801      		movw r24,r16
 7096 2aea 632D      		mov r22,r3
 7097 2aec 722D      		mov r23,r2
 7098 2aee 0E94 0000 		call queue_dequeue_pos
 7099 2af2 F701      		movw r30,r14
 7100 2af4 8083      		st Z,r24
 7101 2af6 9183      		std Z+1,r25
 7102 2af8 00C0      		rjmp .L419
 7103               	.L391:
 7104               	.LM544:
 7105 2afa C801      		movw r24,r16
 7106 2afc 632D      		mov r22,r3
 7107 2afe 722D      		mov r23,r2
 7108 2b00 0E94 0000 		call queue_dequeue_pos
 7109 2b04 00C0      		rjmp .L422
 7110               	.L388:
 7111               	.LM545:
 7112 2b06 3E2C      		mov r3,r14
 7113 2b08 2F2C      		mov r2,r15
 7114 2b0a D701      		movw r26,r14
 7115 2b0c ED90      		ld r14,X+
 7116 2b0e FC90      		ld r15,X
 7117               	.LVL522:
 7118               	.L387:
 7119               	.LM546:
 7120 2b10 E114      		cp r14,__zero_reg__
 7121 2b12 F104      		cpc r15,__zero_reg__
 7122 2b14 01F0      		breq .+2
 7123 2b16 00C0      		rjmp .L393
 7124               	.LM547:
 7125 2b18 EC89      		ldd r30,Y+20
 7126 2b1a FD89      		ldd r31,Y+21
 7127 2b1c 1E16      		cp __zero_reg__,r30
 7128 2b1e 1F06      		cpc __zero_reg__,r31
 7129 2b20 04F0      		brlt .+2
 7130 2b22 00C0      		rjmp .L419
 7131               	.L394:
 7132               	.LM548:
 7133 2b24 C801      		movw r24,r16
 7134 2b26 B301      		movw r22,r6
 7135 2b28 4C89      		ldd r20,Y+20
 7136 2b2a 5D89      		ldd r21,Y+21
 7137 2b2c 0E94 0000 		call queue_enqueue
 7138               	.LM549:
 7139 2b30 D401      		movw r26,r8
 7140 2b32 8C91      		ld r24,X
 7141 2b34 82FF      		sbrs r24,2
 7142 2b36 00C0      		rjmp .L395
 7143 2b38 F601      		movw r30,r12
 7144 2b3a EE0F      		lsl r30
 7145 2b3c FF1F      		rol r31
 7146               	.LVL523:
 7147 2b3e E987      		std Y+9,r30
 7148 2b40 FA87      		std Y+10,r31
 7149 2b42 E091 0000 		lds r30,delta_sizes
 7150 2b46 F091 0000 		lds r31,(delta_sizes)+1
 7151 2b4a 2985      		ldd r18,Y+9
 7152 2b4c 3A85      		ldd r19,Y+10
 7153 2b4e E20F      		add r30,r18
 7154 2b50 F31F      		adc r31,r19
 7155 2b52 8081      		ld r24,Z
 7156 2b54 9181      		ldd r25,Z+1
 7157 2b56 892B      		or r24,r25
 7158 2b58 01F4      		brne .+2
 7159 2b5a 00C0      		rjmp .L395
 7160               	.LBB302:
 7161               	.LBB303:
 7162               	.LM550:
 7163 2b5c E091 0000 		lds r30,oldTuples
 7164 2b60 F091 0000 		lds r31,(oldTuples)+1
 7165 2b64 E20F      		add r30,r18
 7166 2b66 F31F      		adc r31,r19
 7167 2b68 2080      		ld r2,Z
 7168 2b6a 3180      		ldd r3,Z+1
 7169               	.LVL524:
 7170               	.LM551:
 7171 2b6c 2114      		cp r2,__zero_reg__
 7172 2b6e 3104      		cpc r3,__zero_reg__
 7173 2b70 01F4      		brne .+2
 7174 2b72 00C0      		rjmp .L395
 7175               	.LM552:
 7176 2b74 1082      		st Z,__zero_reg__
 7177 2b76 1182      		std Z+1,__zero_reg__
 7178 2b78 1F86      		std Y+15,__zero_reg__
 7179 2b7a 188A      		std Y+16,__zero_reg__
 7180               	.LVL525:
 7181 2b7c 81E0      		ldi r24,lo8(1)
 7182 2b7e 90E0      		ldi r25,hi8(1)
 7183 2b80 8D87      		std Y+13,r24
 7184 2b82 9E87      		std Y+14,r25
 7185               	.LBB304:
 7186               	.LM553:
 7187 2b84 A0E0      		ldi r26,lo8(meld_prog)
 7188 2b86 B0E0      		ldi r27,hi8(meld_prog)
 7189 2b88 4A0E      		add r4,r26
 7190 2b8a 5B1E      		adc r5,r27
 7191 2b8c 00C0      		rjmp .L396
 7192               	.LVL526:
 7193               	.L402:
 7194               	.LM554:
 7195 2b8e E091 0000 		lds r30,deltas
 7196 2b92 F091 0000 		lds r31,(deltas)+1
 7197 2b96 2985      		ldd r18,Y+9
 7198 2b98 3A85      		ldd r19,Y+10
 7199 2b9a E20F      		add r30,r18
 7200 2b9c F31F      		adc r31,r19
 7201 2b9e A081      		ld r26,Z
 7202 2ba0 B181      		ldd r27,Z+1
 7203 2ba2 EF85      		ldd r30,Y+15
 7204 2ba4 F889      		ldd r31,Y+16
 7205 2ba6 EE0F      		lsl r30
 7206 2ba8 FF1F      		rol r31
 7207               	.LVL527:
 7208 2baa EA0F      		add r30,r26
 7209 2bac FB1F      		adc r31,r27
 7210 2bae D080      		ld r13,Z
 7211               	.LM555:
 7212 2bb0 8D85      		ldd r24,Y+13
 7213 2bb2 9E85      		ldd r25,Y+14
 7214 2bb4 A80F      		add r26,r24
 7215 2bb6 B91F      		adc r27,r25
 7216 2bb8 AC91      		ld r26,X
 7217 2bba 8A2E      		mov r8,r26
 7218               	.LVL528:
 7219 2bbc 9924      		clr r9
 7220               	.LM556:
 7221 2bbe 0D2D      		mov r16,r13
 7222               	.LVL529:
 7223 2bc0 10E0      		ldi r17,lo8(0)
 7224 2bc2 000F      		lsl r16
 7225 2bc4 111F      		rol r17
 7226 2bc6 7801      		movw r14,r16
 7227 2bc8 0894      		sec
 7228 2bca E11C      		adc r14,__zero_reg__
 7229 2bcc F11C      		adc r15,__zero_reg__
 7230               	.LBE304:
 7231               	.LBE303:
 7232 2bce E091 0000 		lds r30,arguments
 7233 2bd2 F091 0000 		lds r31,(arguments)+1
 7234 2bd6 EE0D      		add r30,r14
 7235 2bd8 FF1D      		adc r31,r15
 7236 2bda 8081      		ld r24,Z
 7237 2bdc 90E0      		ldi r25,lo8(0)
 7238 2bde 0E94 0000 		call malloc
 7239 2be2 5C01      		movw r10,r24
 7240               	.LVL530:
 7241               	.LBB306:
 7242               	.LBB305:
 7243               	.LM557:
 7244 2be4 E091 0000 		lds r30,arguments
 7245 2be8 F091 0000 		lds r31,(arguments)+1
 7246 2bec EE0D      		add r30,r14
 7247 2bee FF1D      		adc r31,r15
 7248 2bf0 4081      		ld r20,Z
 7249 2bf2 B101      		movw r22,r2
 7250               	.LVL531:
 7251 2bf4 50E0      		ldi r21,lo8(0)
 7252 2bf6 0E94 0000 		call memcpy
 7253               	.LM558:
 7254 2bfa D501      		movw r26,r10
 7255               	.LVL532:
 7256 2bfc DC92      		st X,r13
 7257               	.LM559:
 7258 2bfe 2091 0000 		lds r18,arguments
 7259 2c02 3091 0000 		lds r19,(arguments)+1
 7260 2c06 D401      		movw r26,r8
 7261 2c08 AA0F      		lsl r26
 7262 2c0a BB1F      		rol r27
 7263 2c0c 020F      		add r16,r18
 7264 2c0e 131F      		adc r17,r19
 7265 2c10 F801      		movw r30,r16
 7266 2c12 8081      		ld r24,Z
 7267 2c14 A20F      		add r26,r18
 7268 2c16 B31F      		adc r27,r19
 7269 2c18 FD01      		movw r30,r26
 7270 2c1a E80F      		add r30,r24
 7271 2c1c F11D      		adc r31,__zero_reg__
 7272 2c1e 8181      		ldd r24,Z+1
 7273 2c20 082F      		mov r16,r24
 7274               	.LVL533:
 7275 2c22 10E0      		ldi r17,lo8(0)
 7276               	.LVL534:
 7277 2c24 0F5F      		subi r16,lo8(-(1))
 7278 2c26 1F4F      		sbci r17,hi8(-(1))
 7279               	.LVL535:
 7280 2c28 0A0D      		add r16,r10
 7281 2c2a 1B1D      		adc r17,r11
 7282               	.LM560:
 7283 2c2c F101      		movw r30,r2
 7284               	.LVL536:
 7285 2c2e 8081      		ld r24,Z
 7286 2c30 E82F      		mov r30,r24
 7287 2c32 F0E0      		ldi r31,lo8(0)
 7288 2c34 EE0F      		lsl r30
 7289 2c36 FF1F      		rol r31
 7290 2c38 E20F      		add r30,r18
 7291 2c3a F31F      		adc r31,r19
 7292 2c3c 8081      		ld r24,Z
 7293 2c3e FD01      		movw r30,r26
 7294 2c40 E80F      		add r30,r24
 7295 2c42 F11D      		adc r31,__zero_reg__
 7296 2c44 8181      		ldd r24,Z+1
 7297 2c46 482F      		mov r20,r24
 7298               	.LVL537:
 7299 2c48 50E0      		ldi r21,lo8(0)
 7300               	.LVL538:
 7301 2c4a 4F5F      		subi r20,lo8(-(1))
 7302 2c4c 5F4F      		sbci r21,hi8(-(1))
 7303               	.LVL539:
 7304 2c4e 420D      		add r20,r2
 7305 2c50 531D      		adc r21,r3
 7306               	.LM561:
 7307 2c52 F301      		movw r30,r6
 7308 2c54 8081      		ld r24,Z
 7309 2c56 90E0      		ldi r25,lo8(0)
 7310 2c58 880F      		lsl r24
 7311 2c5a 991F      		rol r25
 7312 2c5c 280F      		add r18,r24
 7313 2c5e 391F      		adc r19,r25
 7314 2c60 F901      		movw r30,r18
 7315 2c62 8081      		ld r24,Z
 7316 2c64 A80F      		add r26,r24
 7317 2c66 B11D      		adc r27,__zero_reg__
 7318 2c68 1196      		adiw r26,1
 7319 2c6a 8C91      		ld r24,X
 7320 2c6c E82F      		mov r30,r24
 7321               	.LVL540:
 7322 2c6e F0E0      		ldi r31,lo8(0)
 7323               	.LVL541:
 7324 2c70 3196      		adiw r30,1
 7325               	.LVL542:
 7326 2c72 E60D      		add r30,r6
 7327 2c74 F71D      		adc r31,r7
 7328               	.LM562:
 7329 2c76 D201      		movw r26,r4
 7330 2c78 8C91      		ld r24,X
 7331 2c7a 20E0      		ldi r18,lo8(meld_prog)
 7332 2c7c 30E0      		ldi r19,hi8(meld_prog)
 7333 2c7e 820E      		add r8,r18
 7334 2c80 931E      		adc r9,r19
 7335               	.LVL543:
 7336 2c82 880E      		add r8,r24
 7337 2c84 911C      		adc r9,__zero_reg__
 7338 2c86 D401      		movw r26,r8
 7339 2c88 1796      		adiw r26,7
 7340 2c8a 8C91      		ld r24,X
 7341 2c8c 8823      		tst r24
 7342 2c8e 01F0      		breq .L399
 7343 2c90 8130      		cpi r24,lo8(1)
 7344 2c92 01F4      		brne .L417
 7345 2c94 00C0      		rjmp .L424
 7346               	.L399:
 7347               	.LM563:
 7348 2c96 8081      		ld r24,Z
 7349 2c98 9181      		ldd r25,Z+1
 7350 2c9a A281      		ldd r26,Z+2
 7351 2c9c B381      		ldd r27,Z+3
 7352 2c9e FA01      		movw r30,r20
 7353               	.LVL544:
 7354 2ca0 2081      		ld r18,Z
 7355 2ca2 3181      		ldd r19,Z+1
 7356 2ca4 4281      		ldd r20,Z+2
 7357 2ca6 5381      		ldd r21,Z+3
 7358 2ca8 821B      		sub r24,r18
 7359 2caa 930B      		sbc r25,r19
 7360 2cac A40B      		sbc r26,r20
 7361 2cae B50B      		sbc r27,r21
 7362 2cb0 F801      		movw r30,r16
 7363 2cb2 8083      		st Z,r24
 7364 2cb4 9183      		std Z+1,r25
 7365 2cb6 A283      		std Z+2,r26
 7366 2cb8 B383      		std Z+3,r27
 7367 2cba 00C0      		rjmp .L401
 7368               	.LVL545:
 7369               	.L424:
 7370               	.LM564:
 7371 2cbc 6081      		ld r22,Z
 7372 2cbe 7181      		ldd r23,Z+1
 7373 2cc0 8281      		ldd r24,Z+2
 7374 2cc2 9381      		ldd r25,Z+3
 7375 2cc4 DA01      		movw r26,r20
 7376 2cc6 2D91      		ld r18,X+
 7377 2cc8 3D91      		ld r19,X+
 7378 2cca 4D91      		ld r20,X+
 7379 2ccc 5C91      		ld r21,X
 7380 2cce 0E94 0000 		call __subsf3
 7381               	.LVL546:
 7382 2cd2 F801      		movw r30,r16
 7383 2cd4 6083      		st Z,r22
 7384 2cd6 7183      		std Z+1,r23
 7385 2cd8 8283      		std Z+2,r24
 7386 2cda 9383      		std Z+3,r25
 7387 2cdc 00C0      		rjmp .L401
 7388               	.LVL547:
 7389               	.L417:
 7390               	.LM565:
 7391 2cde 80E0      		ldi r24,lo8(.LC9)
 7392 2ce0 90E0      		ldi r25,hi8(.LC9)
 7393 2ce2 6CE5      		ldi r22,lo8(860)
 7394 2ce4 73E0      		ldi r23,hi8(860)
 7395 2ce6 40E0      		ldi r20,lo8(.LC10)
 7396 2ce8 50E0      		ldi r21,hi8(.LC10)
 7397               	.LVL548:
 7398 2cea 0E94 0000 		call __myassert
 7399               	.LVL549:
 7400               	.L401:
 7401               	.LM566:
 7402 2cee D501      		movw r26,r10
 7403 2cf0 EC91      		ld r30,X
 7404 2cf2 F0E0      		ldi r31,lo8(0)
 7405               	.LVL550:
 7406 2cf4 E050      		subi r30,lo8(-(meld_prog))
 7407 2cf6 F040      		sbci r31,hi8(-(meld_prog))
 7408 2cf8 E181      		ldd r30,Z+1
 7409 2cfa F0E0      		ldi r31,lo8(0)
 7410 2cfc E050      		subi r30,lo8(-(meld_prog))
 7411 2cfe F040      		sbci r31,hi8(-(meld_prog))
 7412 2d00 6081      		ld r22,Z
 7413 2d02 7181      		ldd r23,Z+1
 7414 2d04 6050      		subi r22,lo8(-(meld_prog))
 7415 2d06 7040      		sbci r23,hi8(-(meld_prog))
 7416 2d08 C501      		movw r24,r10
 7417 2d0a 41E0      		ldi r20,lo8(1)
 7418 2d0c 50E0      		ldi r21,hi8(1)
 7419               	.LVL551:
 7420 2d0e 2E89      		ldd r18,Y+22
 7421 2d10 3F89      		ldd r19,Y+23
 7422 2d12 0E94 0000 		call tuple_process
 7423               	.LVL552:
 7424               	.LBE305:
 7425               	.LM567:
 7426 2d16 EF85      		ldd r30,Y+15
 7427 2d18 F889      		ldd r31,Y+16
 7428 2d1a 3196      		adiw r30,1
 7429 2d1c EF87      		std Y+15,r30
 7430 2d1e F88B      		std Y+16,r31
 7431               	.LVL553:
 7432 2d20 2D85      		ldd r18,Y+13
 7433 2d22 3E85      		ldd r19,Y+14
 7434 2d24 2E5F      		subi r18,lo8(-(2))
 7435 2d26 3F4F      		sbci r19,hi8(-(2))
 7436 2d28 2D87      		std Y+13,r18
 7437 2d2a 3E87      		std Y+14,r19
 7438               	.LVL554:
 7439               	.L396:
 7440 2d2c E091 0000 		lds r30,delta_sizes
 7441 2d30 F091 0000 		lds r31,(delta_sizes)+1
 7442 2d34 8985      		ldd r24,Y+9
 7443 2d36 9A85      		ldd r25,Y+10
 7444 2d38 E80F      		add r30,r24
 7445 2d3a F91F      		adc r31,r25
 7446 2d3c 8081      		ld r24,Z
 7447 2d3e 9181      		ldd r25,Z+1
 7448 2d40 AF85      		ldd r26,Y+15
 7449 2d42 B889      		ldd r27,Y+16
 7450 2d44 A817      		cp r26,r24
 7451 2d46 B907      		cpc r27,r25
 7452 2d48 04F4      		brge .+2
 7453 2d4a 00C0      		rjmp .L402
 7454               	.LM568:
 7455 2d4c C101      		movw r24,r2
 7456 2d4e 0E94 0000 		call free
 7457               	.LVL555:
 7458               	.L395:
 7459               	.LBE306:
 7460               	.LBE302:
 7461               	.LM569:
 7462 2d52 D301      		movw r26,r6
 7463 2d54 EC91      		ld r30,X
 7464 2d56 F0E0      		ldi r31,lo8(0)
 7465 2d58 E050      		subi r30,lo8(-(meld_prog))
 7466 2d5a F040      		sbci r31,hi8(-(meld_prog))
 7467 2d5c E181      		ldd r30,Z+1
 7468               	.LVL556:
 7469               	.L423:
 7470 2d5e F0E0      		ldi r31,lo8(0)
 7471 2d60 E050      		subi r30,lo8(-(meld_prog))
 7472 2d62 F040      		sbci r31,hi8(-(meld_prog))
 7473 2d64 6081      		ld r22,Z
 7474 2d66 7181      		ldd r23,Z+1
 7475 2d68 6050      		subi r22,lo8(-(meld_prog))
 7476 2d6a 7040      		sbci r23,hi8(-(meld_prog))
 7477 2d6c 00C0      		rjmp .L420
 7478               	.LVL557:
 7479               	.L386:
 7480               	.LBE301:
 7481               	.LM570:
 7482 2d6e F101      		movw r30,r2
 7483 2d70 E050      		subi r30,lo8(-(meld_prog))
 7484 2d72 F040      		sbci r31,hi8(-(meld_prog))
 7485 2d74 B381      		ldd r27,Z+3
 7486 2d76 BA8B      		std Y+18,r27
 7487               	.LVL558:
 7488               	.LM571:
 7489 2d78 BF70      		andi r27,lo8(15)
 7490 2d7a B98B      		std Y+17,r27
 7491               	.LVL559:
 7492               	.LM572:
 7493 2d7c F601      		movw r30,r12
 7494 2d7e EE0F      		lsl r30
 7495 2d80 FF1F      		rol r31
 7496 2d82 EE0F      		lsl r30
 7497 2d84 FF1F      		rol r31
 7498 2d86 EB87      		std Y+11,r30
 7499 2d88 FC87      		std Y+12,r31
 7500 2d8a 4090 0000 		lds r4,tuples
 7501 2d8e 5090 0000 		lds r5,(tuples)+1
 7502               	.LVL560:
 7503 2d92 4E0E      		add r4,r30
 7504 2d94 5F1E      		adc r5,r31
 7505               	.LM573:
 7506 2d96 488E      		std Y+24,r4
 7507 2d98 598E      		std Y+25,r5
 7508               	.LVL561:
 7509 2d9a D201      		movw r26,r4
 7510 2d9c AD90      		ld r10,X+
 7511 2d9e BC90      		ld r11,X
 7512               	.LBB307:
 7513               	.LM574:
 7514 2da0 8090 0000 		lds r8,arguments
 7515 2da4 9090 0000 		lds r9,(arguments)+1
 7516 2da8 8601      		movw r16,r12
 7517               	.LVL562:
 7518 2daa 000F      		lsl r16
 7519 2dac 111F      		rol r17
 7520 2dae 6401      		movw r12,r8
 7521               	.LVL563:
 7522 2db0 C00E      		add r12,r16
 7523 2db2 D11E      		adc r13,r17
 7524 2db4 B989      		ldd r27,Y+17
 7525 2db6 EB2E      		mov r14,r27
 7526 2db8 FF24      		clr r15
 7527 2dba EE0C      		lsl r14
 7528 2dbc FF1C      		rol r15
 7529               	.LM575:
 7530 2dbe E80C      		add r14,r8
 7531 2dc0 F91C      		adc r15,r9
 7532 2dc2 00C0      		rjmp .L403
 7533               	.L413:
 7534 2dc4 F601      		movw r30,r12
 7535 2dc6 8081      		ld r24,Z
 7536 2dc8 F701      		movw r30,r14
 7537 2dca E80F      		add r30,r24
 7538 2dcc F11D      		adc r31,__zero_reg__
 7539 2dce 4181      		ldd r20,Z+1
 7540 2dd0 50E0      		ldi r21,lo8(0)
 7541 2dd2 4F5F      		subi r20,lo8(-(1))
 7542 2dd4 5F4F      		sbci r21,hi8(-(1))
 7543 2dd6 D501      		movw r26,r10
 7544 2dd8 1496      		adiw r26,4
 7545 2dda 8D91      		ld r24,X+
 7546 2ddc 9C91      		ld r25,X
 7547 2dde 1597      		sbiw r26,4+1
 7548 2de0 B301      		movw r22,r6
 7549 2de2 0E94 0000 		call memcmp
 7550 2de6 0097      		sbiw r24,0
 7551 2de8 01F0      		breq .+2
 7552 2dea 00C0      		rjmp .L404
 7553               	.LM576:
 7554 2dec F501      		movw r30,r10
 7555 2dee C280      		ldd r12,Z+2
 7556 2df0 D380      		ldd r13,Z+3
 7557               	.LVL564:
 7558               	.LM577:
 7559 2df2 FA89      		ldd r31,Y+18
 7560 2df4 F295      		swap r31
 7561 2df6 FF70      		andi r31,0x0f
 7562 2df8 FB8B      		std Y+19,r31
 7563 2dfa F130      		cpi r31,lo8(1)
 7564 2dfc 01F4      		brne .L405
 7565 2dfe 2C89      		ldd r18,Y+20
 7566 2e00 3D89      		ldd r19,Y+21
 7567 2e02 1216      		cp __zero_reg__,r18
 7568 2e04 1306      		cpc __zero_reg__,r19
 7569 2e06 04F4      		brge .L405
 7570 2e08 D601      		movw r26,r12
 7571 2e0a 8D91      		ld r24,X+
 7572 2e0c 9C91      		ld r25,X
 7573 2e0e 892B      		or r24,r25
 7574 2e10 01F0      		breq .+2
 7575 2e12 00C0      		rjmp .L419
 7576               	.L405:
 7577               	.LM578:
 7578 2e14 1601      		movw r2,r12
 7579               	.LVL565:
 7580 2e16 F601      		movw r30,r12
 7581               	.LVL566:
 7582 2e18 E080      		ld r14,Z
 7583 2e1a F180      		ldd r15,Z+1
 7584               	.LM579:
 7585 2e1c 080D      		add r16,r8
 7586 2e1e 191D      		adc r17,r9
 7587 2e20 0F5F      		subi r16,lo8(-(1))
 7588 2e22 1F4F      		sbci r17,hi8(-(1))
 7589 2e24 00C0      		rjmp .L406
 7590               	.L411:
 7591 2e26 D801      		movw r26,r16
 7592 2e28 4C91      		ld r20,X
 7593 2e2a F701      		movw r30,r14
 7594 2e2c 8481      		ldd r24,Z+4
 7595 2e2e 9581      		ldd r25,Z+5
 7596 2e30 B301      		movw r22,r6
 7597 2e32 50E0      		ldi r21,lo8(0)
 7598 2e34 0E94 0000 		call memcmp
 7599 2e38 0097      		sbiw r24,0
 7600 2e3a 01F0      		breq .+2
 7601 2e3c 00C0      		rjmp .L407
 7602               	.LM580:
 7603 2e3e D701      		movw r26,r14
 7604 2e40 1296      		adiw r26,2
 7605 2e42 8D91      		ld r24,X+
 7606 2e44 9C91      		ld r25,X
 7607 2e46 1397      		sbiw r26,2+1
 7608 2e48 EC89      		ldd r30,Y+20
 7609 2e4a FD89      		ldd r31,Y+21
 7610 2e4c 8E0F      		add r24,r30
 7611 2e4e 9F1F      		adc r25,r31
 7612 2e50 1296      		adiw r26,2
 7613 2e52 8D93      		st X+,r24
 7614 2e54 9C93      		st X,r25
 7615 2e56 1397      		sbiw r26,2+1
 7616               	.LM581:
 7617 2e58 1816      		cp __zero_reg__,r24
 7618 2e5a 1906      		cpc __zero_reg__,r25
 7619 2e5c 04F0      		brlt .L408
 7620               	.LM582:
 7621 2e5e C601      		movw r24,r12
 7622 2e60 B101      		movw r22,r2
 7623 2e62 0E94 0000 		call queue_dequeue_pos
 7624 2e66 0E94 0000 		call free
 7625               	.LM583:
 7626 2e6a D601      		movw r26,r12
 7627 2e6c 8D91      		ld r24,X+
 7628 2e6e 9C91      		ld r25,X
 7629 2e70 892B      		or r24,r25
 7630 2e72 01F4      		brne .L408
 7631               	.LBB308:
 7632               	.LM584:
 7633 2e74 C201      		movw r24,r4
 7634 2e76 688D      		ldd r22,Y+24
 7635 2e78 798D      		ldd r23,Y+25
 7636 2e7a 0E94 0000 		call queue_dequeue_pos
 7637 2e7e 8C01      		movw r16,r24
 7638               	.LVL567:
 7639               	.LM585:
 7640 2e80 C601      		movw r24,r12
 7641 2e82 0E94 0000 		call free
 7642               	.LM586:
 7643 2e86 D801      		movw r26,r16
 7644 2e88 EC91      		ld r30,X
 7645 2e8a F0E0      		ldi r31,lo8(0)
 7646 2e8c E050      		subi r30,lo8(-(meld_prog))
 7647 2e8e F040      		sbci r31,hi8(-(meld_prog))
 7648 2e90 E181      		ldd r30,Z+1
 7649 2e92 F0E0      		ldi r31,lo8(0)
 7650 2e94 E050      		subi r30,lo8(-(meld_prog))
 7651 2e96 F040      		sbci r31,hi8(-(meld_prog))
 7652 2e98 6081      		ld r22,Z
 7653 2e9a 7181      		ldd r23,Z+1
 7654 2e9c 6050      		subi r22,lo8(-(meld_prog))
 7655 2e9e 7040      		sbci r23,hi8(-(meld_prog))
 7656 2ea0 C801      		movw r24,r16
 7657 2ea2 4FEF      		ldi r20,lo8(-1)
 7658 2ea4 5FEF      		ldi r21,hi8(-1)
 7659 2ea6 2E89      		ldd r18,Y+22
 7660 2ea8 3F89      		ldd r19,Y+23
 7661 2eaa 0E94 0000 		call tuple_process
 7662               	.LM587:
 7663 2eae C801      		movw r24,r16
 7664 2eb0 6989      		ldd r22,Y+17
 7665 2eb2 4B89      		ldd r20,Y+19
 7666 2eb4 0E94 0000 		call aggregate_free
 7667               	.LM588:
 7668 2eb8 C801      		movw r24,r16
 7669               	.LVL568:
 7670               	.L422:
 7671 2eba 0E94 0000 		call free
 7672 2ebe 00C0      		rjmp .L419
 7673               	.LVL569:
 7674               	.L408:
 7675               	.LBE308:
 7676               	.LM589:
 7677 2ec0 C501      		movw r24,r10
 7678 2ec2 6E89      		ldd r22,Y+22
 7679 2ec4 7F89      		ldd r23,Y+23
 7680 2ec6 40E0      		ldi r20,lo8(0)
 7681 2ec8 0E94 0000 		call aggregate_recalc
 7682 2ecc 00C0      		rjmp .L419
 7683               	.L407:
 7684               	.LM590:
 7685 2ece 1701      		movw r2,r14
 7686 2ed0 F701      		movw r30,r14
 7687 2ed2 E080      		ld r14,Z
 7688 2ed4 F180      		ldd r15,Z+1
 7689               	.L406:
 7690               	.LM591:
 7691 2ed6 E114      		cp r14,__zero_reg__
 7692 2ed8 F104      		cpc r15,__zero_reg__
 7693 2eda 01F0      		breq .+2
 7694 2edc 00C0      		rjmp .L411
 7695               	.LM592:
 7696 2ede 2C89      		ldd r18,Y+20
 7697 2ee0 3D89      		ldd r19,Y+21
 7698 2ee2 1216      		cp __zero_reg__,r18
 7699 2ee4 1306      		cpc __zero_reg__,r19
 7700 2ee6 04F4      		brge .L419
 7701               	.L412:
 7702               	.LM593:
 7703 2ee8 C601      		movw r24,r12
 7704 2eea B301      		movw r22,r6
 7705 2eec 4C89      		ldd r20,Y+20
 7706 2eee 5D89      		ldd r21,Y+21
 7707 2ef0 0E94 0000 		call queue_enqueue
 7708               	.LM594:
 7709 2ef4 C501      		movw r24,r10
 7710 2ef6 6E89      		ldd r22,Y+22
 7711 2ef8 7F89      		ldd r23,Y+23
 7712 2efa 40E0      		ldi r20,lo8(0)
 7713 2efc 0E94 0000 		call aggregate_recalc
 7714 2f00 00C0      		rjmp .L416
 7715               	.LVL570:
 7716               	.L404:
 7717               	.LBE307:
 7718               	.LM595:
 7719 2f02 A88E      		std Y+24,r10
 7720 2f04 B98E      		std Y+25,r11
 7721 2f06 D501      		movw r26,r10
 7722 2f08 AD90      		ld r10,X+
 7723 2f0a BC90      		ld r11,X
 7724               	.LVL571:
 7725               	.L403:
 7726               	.LM596:
 7727 2f0c A114      		cp r10,__zero_reg__
 7728 2f0e B104      		cpc r11,__zero_reg__
 7729 2f10 01F0      		breq .+2
 7730 2f12 00C0      		rjmp .L413
 7731               	.LM597:
 7732 2f14 EC89      		ldd r30,Y+20
 7733 2f16 FD89      		ldd r31,Y+21
 7734 2f18 1E16      		cp __zero_reg__,r30
 7735 2f1a 1F06      		cpc __zero_reg__,r31
 7736 2f1c 04F0      		brlt .L414
 7737               	.LVL572:
 7738               	.L419:
 7739               	.LM598:
 7740 2f1e C301      		movw r24,r6
 7741 2f20 0E94 0000 		call free
 7742 2f24 00C0      		rjmp .L416
 7743               	.LVL573:
 7744               	.L414:
 7745               	.LM599:
 7746 2f26 0F5F      		subi r16,lo8(-(1))
 7747 2f28 1F4F      		sbci r17,hi8(-(1))
 7748 2f2a 800E      		add r8,r16
 7749 2f2c 911E      		adc r9,r17
 7750 2f2e D401      		movw r26,r8
 7751 2f30 8C91      		ld r24,X
 7752 2f32 90E0      		ldi r25,lo8(0)
 7753 2f34 0E94 0000 		call malloc
 7754 2f38 F82E      		mov r15,r24
 7755 2f3a E92E      		mov r14,r25
 7756               	.LM600:
 7757 2f3c E091 0000 		lds r30,arguments
 7758 2f40 F091 0000 		lds r31,(arguments)+1
 7759 2f44 E00F      		add r30,r16
 7760 2f46 F11F      		adc r31,r17
 7761 2f48 4081      		ld r20,Z
 7762 2f4a B301      		movw r22,r6
 7763               	.LVL574:
 7764 2f4c 50E0      		ldi r21,lo8(0)
 7765 2f4e 0E94 0000 		call memcpy
 7766               	.LM601:
 7767 2f52 84E0      		ldi r24,lo8(4)
 7768 2f54 90E0      		ldi r25,hi8(4)
 7769 2f56 0E94 0000 		call malloc
 7770 2f5a 8C01      		movw r16,r24
 7771               	.LBB309:
 7772               	.LBB310:
 7773               	.LM602:
 7774 2f5c FC01      		movw r30,r24
 7775               	.LVL575:
 7776 2f5e 1282      		std Z+2,__zero_reg__
 7777 2f60 1382      		std Z+3,__zero_reg__
 7778 2f62 1082      		st Z,__zero_reg__
 7779 2f64 1182      		std Z+1,__zero_reg__
 7780               	.LBE310:
 7781               	.LBE309:
 7782               	.LM603:
 7783 2f66 B301      		movw r22,r6
 7784               	.LVL576:
 7785 2f68 4C89      		ldd r20,Y+20
 7786 2f6a 5D89      		ldd r21,Y+21
 7787 2f6c 0E94 0000 		call queue_enqueue
 7788               	.LVL577:
 7789               	.LM604:
 7790 2f70 8091 0000 		lds r24,tuples
 7791 2f74 9091 0000 		lds r25,(tuples)+1
 7792 2f78 2B85      		ldd r18,Y+11
 7793 2f7a 3C85      		ldd r19,Y+12
 7794 2f7c 820F      		add r24,r18
 7795 2f7e 931F      		adc r25,r19
 7796 2f80 6F2D      		mov r22,r15
 7797 2f82 7E2D      		mov r23,r14
 7798 2f84 A801      		movw r20,r16
 7799               	.LVL578:
 7800 2f86 0E94 0000 		call queue_enqueue
 7801               	.LM605:
 7802 2f8a 6E89      		ldd r22,Y+22
 7803 2f8c 7F89      		ldd r23,Y+23
 7804 2f8e 41E0      		ldi r20,lo8(1)
 7805 2f90 0E94 0000 		call aggregate_recalc
 7806               	.LM606:
 7807 2f94 80E0      		ldi r24,lo8(meld_prog)
 7808 2f96 90E0      		ldi r25,hi8(meld_prog)
 7809 2f98 280E      		add r2,r24
 7810 2f9a 391E      		adc r3,r25
 7811 2f9c D101      		movw r26,r2
 7812 2f9e 6D91      		ld r22,X+
 7813 2fa0 7C91      		ld r23,X
 7814 2fa2 680F      		add r22,r24
 7815 2fa4 791F      		adc r23,r25
 7816               	.LVL579:
 7817               	.L420:
 7818 2fa6 C301      		movw r24,r6
 7819 2fa8 4C89      		ldd r20,Y+20
 7820 2faa 5D89      		ldd r21,Y+21
 7821 2fac 2E89      		ldd r18,Y+22
 7822 2fae 3F89      		ldd r19,Y+23
 7823 2fb0 0E94 0000 		call tuple_process
 7824               	.LVL580:
 7825               	.L416:
 7826               	/* epilogue start */
 7827               	.LM607:
 7828 2fb4 6996      		adiw r28,25
 7829 2fb6 CDBF      		out __SP_L__,r28
 7830 2fb8 DEBF      		out __SP_H__,r29
 7831 2fba CF91      		pop r28
 7832 2fbc DF91      		pop r29
 7833 2fbe 1F91      		pop r17
 7834               	.LVL581:
 7835 2fc0 0F91      		pop r16
 7836               	.LVL582:
 7837 2fc2 FF90      		pop r15
 7838 2fc4 EF90      		pop r14
 7839               	.LVL583:
 7840 2fc6 DF90      		pop r13
 7841 2fc8 CF90      		pop r12
 7842               	.LVL584:
 7843 2fca BF90      		pop r11
 7844 2fcc AF90      		pop r10
 7845               	.LVL585:
 7846 2fce 9F90      		pop r9
 7847               	.LVL586:
 7848 2fd0 8F90      		pop r8
 7849               	.LVL587:
 7850 2fd2 7F90      		pop r7
 7851 2fd4 6F90      		pop r6
 7852               	.LVL588:
 7853 2fd6 5F90      		pop r5
 7854               	.LVL589:
 7855 2fd8 4F90      		pop r4
 7856               	.LVL590:
 7857 2fda 3F90      		pop r3
 7858               	.LVL591:
 7859 2fdc 2F90      		pop r2
 7860               	.LVL592:
 7861 2fde 0895      		ret
 7862               	.LFE43:
 7864               		.data
 7865               	.LC31:
 7866 022f 5F69 6E69 		.string	"_init"
 7866      7400 
 7867               	.LC32:
 7868 0235 6564 6765 		.string	"edge"
 7868      00
 7869               	.LC33:
 7870 023a 636F 6C6F 		.string	"colocated"
 7870      6361 7465 
 7870      6400 
 7871               	.LC34:
 7872 0244 7465 726D 		.string	"terminate"
 7872      696E 6174 
 7872      6500 
 7873               		.text
 7874               	.global	init_consts
 7876               	init_consts:
 7877               	.LFB32:
 7878               	.LM608:
 7879 2fe0 CF92      		push r12
 7880 2fe2 DF92      		push r13
 7881 2fe4 EF92      		push r14
 7882 2fe6 FF92      		push r15
 7883 2fe8 0F93      		push r16
 7884 2fea 1F93      		push r17
 7885 2fec CF93      		push r28
 7886 2fee DF93      		push r29
 7887               	/* prologue: function */
 7888               	/* frame size = 0 */
 7889               	.LM609:
 7890 2ff0 8091 0000 		lds r24,meld_prog
 7891 2ff4 C82E      		mov r12,r24
 7892 2ff6 DD24      		clr r13
 7893 2ff8 40E0      		ldi r20,lo8(tuple_names)
 7894 2ffa E42E      		mov r14,r20
 7895 2ffc 40E0      		ldi r20,hi8(tuple_names)
 7896 2ffe F42E      		mov r15,r20
 7897 3000 C0E0      		ldi r28,lo8(0)
 7898 3002 D0E0      		ldi r29,hi8(0)
 7899               	.LVL593:
 7900 3004 00C0      		rjmp .L426
 7901               	.L432:
 7902               	.LM610:
 7903 3006 F701      		movw r30,r14
 7904 3008 0081      		ld r16,Z
 7905 300a 1181      		ldd r17,Z+1
 7906 300c C801      		movw r24,r16
 7907 300e 60E0      		ldi r22,lo8(.LC31)
 7908 3010 70E0      		ldi r23,hi8(.LC31)
 7909 3012 0E94 0000 		call strcmp
 7910 3016 0097      		sbiw r24,0
 7911 3018 01F4      		brne .L427
 7912               	.LM611:
 7913 301a C093 0000 		sts TYPE_INIT,r28
 7914 301e D093 0000 		sts (TYPE_INIT)+1,r29
 7915 3022 00C0      		rjmp .L428
 7916               	.L427:
 7917               	.LM612:
 7918 3024 C801      		movw r24,r16
 7919 3026 60E0      		ldi r22,lo8(.LC32)
 7920 3028 70E0      		ldi r23,hi8(.LC32)
 7921 302a 0E94 0000 		call strcmp
 7922 302e 0097      		sbiw r24,0
 7923 3030 01F4      		brne .L429
 7924               	.LM613:
 7925 3032 C093 0000 		sts TYPE_EDGE,r28
 7926 3036 D093 0000 		sts (TYPE_EDGE)+1,r29
 7927 303a 00C0      		rjmp .L428
 7928               	.L429:
 7929               	.LM614:
 7930 303c C801      		movw r24,r16
 7931 303e 60E0      		ldi r22,lo8(.LC33)
 7932 3040 70E0      		ldi r23,hi8(.LC33)
 7933 3042 0E94 0000 		call strcmp
 7934 3046 0097      		sbiw r24,0
 7935 3048 01F4      		brne .L430
 7936               	.LM615:
 7937 304a C093 0000 		sts TYPE_COLOCATED,r28
 7938 304e D093 0000 		sts (TYPE_COLOCATED)+1,r29
 7939 3052 00C0      		rjmp .L428
 7940               	.L430:
 7941               	.LM616:
 7942 3054 C801      		movw r24,r16
 7943 3056 60E0      		ldi r22,lo8(.LC5)
 7944 3058 70E0      		ldi r23,hi8(.LC5)
 7945 305a 0E94 0000 		call strcmp
 7946 305e 0097      		sbiw r24,0
 7947 3060 01F4      		brne .L431
 7948               	.LM617:
 7949 3062 C093 0000 		sts TYPE_PROVED,r28
 7950 3066 D093 0000 		sts (TYPE_PROVED)+1,r29
 7951 306a 00C0      		rjmp .L428
 7952               	.L431:
 7953               	.LM618:
 7954 306c C801      		movw r24,r16
 7955 306e 60E0      		ldi r22,lo8(.LC34)
 7956 3070 70E0      		ldi r23,hi8(.LC34)
 7957 3072 0E94 0000 		call strcmp
 7958 3076 0097      		sbiw r24,0
 7959 3078 01F4      		brne .L428
 7960               	.LM619:
 7961 307a C093 0000 		sts TYPE_TERMINATE,r28
 7962 307e D093 0000 		sts (TYPE_TERMINATE)+1,r29
 7963               	.L428:
 7964               	.LM620:
 7965 3082 2196      		adiw r28,1
 7966 3084 82E0      		ldi r24,lo8(2)
 7967 3086 90E0      		ldi r25,hi8(2)
 7968 3088 E80E      		add r14,r24
 7969 308a F91E      		adc r15,r25
 7970               	.L426:
 7971 308c CC15      		cp r28,r12
 7972 308e DD05      		cpc r29,r13
 7973 3090 04F4      		brge .+2
 7974 3092 00C0      		rjmp .L432
 7975               	/* epilogue start */
 7976               	.LM621:
 7977 3094 DF91      		pop r29
 7978 3096 CF91      		pop r28
 7979               	.LVL594:
 7980 3098 1F91      		pop r17
 7981 309a 0F91      		pop r16
 7982 309c FF90      		pop r15
 7983 309e EF90      		pop r14
 7984 30a0 DF90      		pop r13
 7985 30a2 CF90      		pop r12
 7986 30a4 0895      		ret
 7987               	.LFE32:
 7989               	.global	delta_sizes
 7990               	.global	delta_sizes
 7991               		.section .bss
 7994               	delta_sizes:
 7995 0000 0000      		.skip 2,0
 7996               	.global	arguments
 7997               	.global	arguments
 8000               	arguments:
 8001 0002 0000      		.skip 2,0
 8002               	.global	TYPE_EDGE
 8003               		.data
 8006               	TYPE_EDGE:
 8007 024e FFFF      		.word	-1
 8008               	.global	TYPE_INIT
 8011               	TYPE_INIT:
 8012 0250 FFFF      		.word	-1
 8013               	.global	TYPE_COLOCATED
 8016               	TYPE_COLOCATED:
 8017 0252 FFFF      		.word	-1
 8018               	.global	TYPE_PROVED
 8021               	TYPE_PROVED:
 8022 0254 FFFF      		.word	-1
 8023               	.global	TYPE_TERMINATE
 8026               	TYPE_TERMINATE:
 8027 0256 FFFF      		.word	-1
 8028               		.lcomm deltas,2
 8029               		.lcomm type,2
 8214               	.Letext0:
DEFINED SYMBOLS
                            *ABS*:00000000 core.c
     /tmp/cc8ZLlCc.s:2      *ABS*:0000003f __SREG__
     /tmp/cc8ZLlCc.s:3      *ABS*:0000003e __SP_H__
     /tmp/cc8ZLlCc.s:4      *ABS*:0000003d __SP_L__
     /tmp/cc8ZLlCc.s:5      *ABS*:00000034 __CCP__
     /tmp/cc8ZLlCc.s:6      *ABS*:00000000 __tmp_reg__
     /tmp/cc8ZLlCc.s:7      *ABS*:00000001 __zero_reg__
     /tmp/cc8ZLlCc.s:20     .text:00000000 queue_is_empty
     /tmp/cc8ZLlCc.s:44     .text:00000012 queue_push_tuple
     /tmp/cc8ZLlCc.s:84     .text:00000042 queue_pop_tuple
     /tmp/cc8ZLlCc.s:124    .text:00000068 p_dequeue
     /tmp/cc8ZLlCc.s:156    .text:00000080 queue_length
     /tmp/cc8ZLlCc.s:211    .text:000000a0 print_program_info
     /tmp/cc8ZLlCc.s:8000   .bss:00000002 arguments
     /tmp/cc8ZLlCc.s:556    .text:0000030e eval
     /tmp/cc8ZLlCc.s:789    .text:0000041e tuple_print
     /tmp/cc8ZLlCc.s:1254   .text:0000075c facts_dump
     /tmp/cc8ZLlCc.s:1430   .text:000008a4 init_fields
     /tmp/cc8ZLlCc.s:8028   .bss:00000006 type
     /tmp/cc8ZLlCc.s:1649   .text:000009f8 init_deltas
                             .bss:00000004 deltas
     /tmp/cc8ZLlCc.s:7994   .bss:00000000 delta_sizes
     /tmp/cc8ZLlCc.s:1743   .text:00000a9c p_enqueue
     /tmp/cc8ZLlCc.s:1864   .text:00000b38 queue_enqueue
     /tmp/cc8ZLlCc.s:1943   .text:00000b98 queue_dequeue_pos
     /tmp/cc8ZLlCc.s:2021   .text:00000bf4 queue_dequeue
     /tmp/cc8ZLlCc.s:2099   .text:00000c44 advance
     /tmp/cc8ZLlCc.s:2653   .text:00000f0a tuple_process
     /tmp/cc8ZLlCc.s:4874   .text:00001d2e aggregate_free
     /tmp/cc8ZLlCc.s:4990   .text:00001dce aggregate_recalc
     /tmp/cc8ZLlCc.s:6497   .text:000026ce tuple_do_handle
     /tmp/cc8ZLlCc.s:8021   .data:00000254 TYPE_PROVED
     /tmp/cc8ZLlCc.s:8026   .data:00000256 TYPE_TERMINATE
     /tmp/cc8ZLlCc.s:7876   .text:00002fe0 init_consts
     /tmp/cc8ZLlCc.s:8011   .data:00000250 TYPE_INIT
     /tmp/cc8ZLlCc.s:8006   .data:0000024e TYPE_EDGE
     /tmp/cc8ZLlCc.s:8016   .data:00000252 TYPE_COLOCATED

UNDEFINED SYMBOLS
__do_copy_data
__do_clear_bss
meld_prog
tuple_names
printf
putchar
blockId
__myassert
fprintf
fputs
fputc
tuples
__iob
malloc
free
exit
extern_functs_args
persistent
random
__divmodsi4
memcmp
tuple_send
memcpy
tuple_handle
__mulsi3
__nesf2
__eqsf2
__ltsf2
__lesf2
__gtsf2
__gesf2
fmod
__addsf3
__subsf3
__mulsf3
__divsf3
memset
extern_functs
set_delete
list_delete
__floatsisf
set_int_create
set_int_insert
set_float_create
set_float_insert
set_print
list_int_create
list_int_push_tail
list_float_create
list_float_push_tail
set_equal
list_equal
proved
enqueueNewTuple
realloc
oldTuples
strcmp
