   1               		.file	"ext_memory.c"
   2               	__SP_H__ = 0x3e
   3               	__SP_L__ = 0x3d
   4               	__SREG__ = 0x3f
   5               	__RAMPZ__ = 0x3b
   6               	__CCP__ = 0x34
   7               	__tmp_reg__ = 0
   8               	__zero_reg__ = 1
   9               		.text
  10               	.Ltext0:
  11               		.cfi_sections	.debug_frame
  12               	.global	spiTxRx
  14               	spiTxRx:
  15               	.LFB1:
  16               		.file 1 "/Users/pthalamy/Studies/CMU/benchmark/build/src-bobby/hw-block/ext_memory.c"
   1:/Users/pthalamy/Studies/CMU/benchmark/build/src-bobby/hw-block/ext_memory.c **** #include "ext_memory.h"
   2:/Users/pthalamy/Studies/CMU/benchmark/build/src-bobby/hw-block/ext_memory.c **** #include <avr/io.h>
   3:/Users/pthalamy/Studies/CMU/benchmark/build/src-bobby/hw-block/ext_memory.c **** 
   4:/Users/pthalamy/Studies/CMU/benchmark/build/src-bobby/hw-block/ext_memory.c **** uint8_t spiTxRx(uint8_t input)
   5:/Users/pthalamy/Studies/CMU/benchmark/build/src-bobby/hw-block/ext_memory.c **** {
  17               		.loc 1 5 0
  18               		.cfi_startproc
  19               	.LVL0:
  20               	/* prologue: function */
  21               	/* frame size = 0 */
  22               	/* stack size = 0 */
  23               	.L__stack_usage = 0
   6:/Users/pthalamy/Studies/CMU/benchmark/build/src-bobby/hw-block/ext_memory.c **** 	SPIE.DATA = input;
  24               		.loc 1 6 0
  25 0000 8093 C30A 		sts 2755,r24
  26               	.LVL1:
  27               	.L2:
   7:/Users/pthalamy/Studies/CMU/benchmark/build/src-bobby/hw-block/ext_memory.c **** 	
   8:/Users/pthalamy/Studies/CMU/benchmark/build/src-bobby/hw-block/ext_memory.c **** 	while(!(SPIE.STATUS & SPI_IF_bm));
  28               		.loc 1 8 0 discriminator 1
  29 0004 8091 C20A 		lds r24,2754
  30 0008 87FF      		sbrs r24,7
  31 000a 00C0      		rjmp .L2
   9:/Users/pthalamy/Studies/CMU/benchmark/build/src-bobby/hw-block/ext_memory.c **** 	
  10:/Users/pthalamy/Studies/CMU/benchmark/build/src-bobby/hw-block/ext_memory.c **** 	return SPIE.DATA;
  32               		.loc 1 10 0
  33 000c 8091 C30A 		lds r24,2755
  11:/Users/pthalamy/Studies/CMU/benchmark/build/src-bobby/hw-block/ext_memory.c **** 	
  12:/Users/pthalamy/Studies/CMU/benchmark/build/src-bobby/hw-block/ext_memory.c **** }
  34               		.loc 1 12 0
  35 0010 0895      		ret
  36               		.cfi_endproc
  37               	.LFE1:
  39               	.global	setSS
  41               	setSS:
  42               	.LFB2:
  13:/Users/pthalamy/Studies/CMU/benchmark/build/src-bobby/hw-block/ext_memory.c **** 
  14:/Users/pthalamy/Studies/CMU/benchmark/build/src-bobby/hw-block/ext_memory.c **** void setSS(int which, int level)
  15:/Users/pthalamy/Studies/CMU/benchmark/build/src-bobby/hw-block/ext_memory.c **** {
  43               		.loc 1 15 0
  44               		.cfi_startproc
  45               	.LVL2:
  46               	/* prologue: function */
  47               	/* frame size = 0 */
  48               	/* stack size = 0 */
  49               	.L__stack_usage = 0
  16:/Users/pthalamy/Studies/CMU/benchmark/build/src-bobby/hw-block/ext_memory.c **** 	if(which == SRAM)
  50               		.loc 1 16 0
  51 0012 0197      		sbiw r24,1
  52 0014 01F0      		breq .L10
  17:/Users/pthalamy/Studies/CMU/benchmark/build/src-bobby/hw-block/ext_memory.c **** 	{
  18:/Users/pthalamy/Studies/CMU/benchmark/build/src-bobby/hw-block/ext_memory.c **** 		if(level)
  19:/Users/pthalamy/Studies/CMU/benchmark/build/src-bobby/hw-block/ext_memory.c **** 		{
  20:/Users/pthalamy/Studies/CMU/benchmark/build/src-bobby/hw-block/ext_memory.c **** 			PORTF.OUTSET = PIN4_bm;
  21:/Users/pthalamy/Studies/CMU/benchmark/build/src-bobby/hw-block/ext_memory.c **** 		}
  22:/Users/pthalamy/Studies/CMU/benchmark/build/src-bobby/hw-block/ext_memory.c **** 		else
  23:/Users/pthalamy/Studies/CMU/benchmark/build/src-bobby/hw-block/ext_memory.c **** 		{
  24:/Users/pthalamy/Studies/CMU/benchmark/build/src-bobby/hw-block/ext_memory.c **** 			PORTF.OUTCLR = PIN4_bm;	
  25:/Users/pthalamy/Studies/CMU/benchmark/build/src-bobby/hw-block/ext_memory.c **** 		}
  26:/Users/pthalamy/Studies/CMU/benchmark/build/src-bobby/hw-block/ext_memory.c **** 	}
  27:/Users/pthalamy/Studies/CMU/benchmark/build/src-bobby/hw-block/ext_memory.c **** 	else
  28:/Users/pthalamy/Studies/CMU/benchmark/build/src-bobby/hw-block/ext_memory.c **** 	{
  29:/Users/pthalamy/Studies/CMU/benchmark/build/src-bobby/hw-block/ext_memory.c **** 		if(level)
  30:/Users/pthalamy/Studies/CMU/benchmark/build/src-bobby/hw-block/ext_memory.c **** 		{
  31:/Users/pthalamy/Studies/CMU/benchmark/build/src-bobby/hw-block/ext_memory.c **** 			PORTE.OUTSET = PIN4_bm;
  53               		.loc 1 31 0
  54 0016 80E1      		ldi r24,lo8(16)
  55               	.LVL3:
  29:/Users/pthalamy/Studies/CMU/benchmark/build/src-bobby/hw-block/ext_memory.c **** 		if(level)
  56               		.loc 1 29 0
  57 0018 672B      		or r22,r23
  58 001a 01F4      		brne .L11
  32:/Users/pthalamy/Studies/CMU/benchmark/build/src-bobby/hw-block/ext_memory.c **** 		}
  33:/Users/pthalamy/Studies/CMU/benchmark/build/src-bobby/hw-block/ext_memory.c **** 		else
  34:/Users/pthalamy/Studies/CMU/benchmark/build/src-bobby/hw-block/ext_memory.c **** 		{
  35:/Users/pthalamy/Studies/CMU/benchmark/build/src-bobby/hw-block/ext_memory.c **** 			PORTE.OUTCLR = PIN4_bm;	
  59               		.loc 1 35 0
  60 001c 8093 8606 		sts 1670,r24
  61 0020 0895      		ret
  62               	.L11:
  31:/Users/pthalamy/Studies/CMU/benchmark/build/src-bobby/hw-block/ext_memory.c **** 			PORTE.OUTSET = PIN4_bm;
  63               		.loc 1 31 0
  64 0022 8093 8506 		sts 1669,r24
  65 0026 0895      		ret
  66               	.LVL4:
  67               	.L10:
  68               	.LBB57:
  69               	.LBB58:
  20:/Users/pthalamy/Studies/CMU/benchmark/build/src-bobby/hw-block/ext_memory.c **** 			PORTF.OUTSET = PIN4_bm;
  70               		.loc 1 20 0
  71 0028 80E1      		ldi r24,lo8(16)
  72               	.LVL5:
  18:/Users/pthalamy/Studies/CMU/benchmark/build/src-bobby/hw-block/ext_memory.c **** 		if(level)
  73               		.loc 1 18 0
  74 002a 672B      		or r22,r23
  75 002c 01F0      		breq .L7
  20:/Users/pthalamy/Studies/CMU/benchmark/build/src-bobby/hw-block/ext_memory.c **** 			PORTF.OUTSET = PIN4_bm;
  76               		.loc 1 20 0
  77 002e 8093 A506 		sts 1701,r24
  78 0032 0895      		ret
  79               	.L7:
  24:/Users/pthalamy/Studies/CMU/benchmark/build/src-bobby/hw-block/ext_memory.c **** 			PORTF.OUTCLR = PIN4_bm;	
  80               		.loc 1 24 0
  81 0034 8093 A606 		sts 1702,r24
  82 0038 0895      		ret
  83               	.LBE58:
  84               	.LBE57:
  85               		.cfi_endproc
  86               	.LFE2:
  88               	.global	readExtMem
  90               	readExtMem:
  91               	.LFB3:
  36:/Users/pthalamy/Studies/CMU/benchmark/build/src-bobby/hw-block/ext_memory.c **** 		}	
  37:/Users/pthalamy/Studies/CMU/benchmark/build/src-bobby/hw-block/ext_memory.c **** 	
  38:/Users/pthalamy/Studies/CMU/benchmark/build/src-bobby/hw-block/ext_memory.c **** 	}
  39:/Users/pthalamy/Studies/CMU/benchmark/build/src-bobby/hw-block/ext_memory.c **** }
  40:/Users/pthalamy/Studies/CMU/benchmark/build/src-bobby/hw-block/ext_memory.c **** 
  41:/Users/pthalamy/Studies/CMU/benchmark/build/src-bobby/hw-block/ext_memory.c **** int readExtMem(int which, int start, char * buf, int length)
  42:/Users/pthalamy/Studies/CMU/benchmark/build/src-bobby/hw-block/ext_memory.c **** {
  92               		.loc 1 42 0
  93               		.cfi_startproc
  94               	.LVL6:
  95               	/* prologue: function */
  96               	/* frame size = 0 */
  97               	/* stack size = 0 */
  98               	.L__stack_usage = 0
  43:/Users/pthalamy/Studies/CMU/benchmark/build/src-bobby/hw-block/ext_memory.c **** 	if(which == SRAM)
  99               		.loc 1 43 0
 100 003a 0197      		sbiw r24,1
 101 003c 01F4      		brne .+2
 102 003e 00C0      		rjmp .L43
 103               	.LVL7:
 104               	.LBB97:
 105               	.LBB98:
 106               	.LBB99:
  35:/Users/pthalamy/Studies/CMU/benchmark/build/src-bobby/hw-block/ext_memory.c **** 			PORTE.OUTCLR = PIN4_bm;	
 107               		.loc 1 35 0
 108 0040 80E1      		ldi r24,lo8(16)
 109               	.LVL8:
 110 0042 8093 8606 		sts 1670,r24
 111               	.LVL9:
 112               	.LBE99:
 113               	.LBE98:
 114               	.LBB100:
 115               	.LBB101:
   6:/Users/pthalamy/Studies/CMU/benchmark/build/src-bobby/hw-block/ext_memory.c **** 	SPIE.DATA = input;
 116               		.loc 1 6 0
 117 0046 84ED      		ldi r24,lo8(-44)
 118 0048 8093 C30A 		sts 2755,r24
 119               	.L22:
   8:/Users/pthalamy/Studies/CMU/benchmark/build/src-bobby/hw-block/ext_memory.c **** 	while(!(SPIE.STATUS & SPI_IF_bm));
 120               		.loc 1 8 0
 121 004c 8091 C20A 		lds r24,2754
 122 0050 87FF      		sbrs r24,7
 123 0052 00C0      		rjmp .L22
  10:/Users/pthalamy/Studies/CMU/benchmark/build/src-bobby/hw-block/ext_memory.c **** 	return SPIE.DATA;
 124               		.loc 1 10 0
 125 0054 8091 C30A 		lds r24,2755
 126               	.LVL10:
 127               	.LBE101:
 128               	.LBE100:
 129               	.LBB102:
 130               	.LBB103:
   6:/Users/pthalamy/Studies/CMU/benchmark/build/src-bobby/hw-block/ext_memory.c **** 	SPIE.DATA = input;
 131               		.loc 1 6 0
 132 0058 1092 C30A 		sts 2755,__zero_reg__
 133               	.L23:
   8:/Users/pthalamy/Studies/CMU/benchmark/build/src-bobby/hw-block/ext_memory.c **** 	while(!(SPIE.STATUS & SPI_IF_bm));
 134               		.loc 1 8 0
 135 005c 8091 C20A 		lds r24,2754
 136 0060 87FF      		sbrs r24,7
 137 0062 00C0      		rjmp .L23
  10:/Users/pthalamy/Studies/CMU/benchmark/build/src-bobby/hw-block/ext_memory.c **** 	return SPIE.DATA;
 138               		.loc 1 10 0
 139 0064 8091 C30A 		lds r24,2755
 140               	.LBE103:
 141               	.LBE102:
  44:/Users/pthalamy/Studies/CMU/benchmark/build/src-bobby/hw-block/ext_memory.c **** 	{
  45:/Users/pthalamy/Studies/CMU/benchmark/build/src-bobby/hw-block/ext_memory.c **** 		int i;
  46:/Users/pthalamy/Studies/CMU/benchmark/build/src-bobby/hw-block/ext_memory.c **** 		
  47:/Users/pthalamy/Studies/CMU/benchmark/build/src-bobby/hw-block/ext_memory.c **** 		setSS(SRAM, 0);
  48:/Users/pthalamy/Studies/CMU/benchmark/build/src-bobby/hw-block/ext_memory.c **** 		
  49:/Users/pthalamy/Studies/CMU/benchmark/build/src-bobby/hw-block/ext_memory.c **** 		spiTxRx(SRAM_READ);
  50:/Users/pthalamy/Studies/CMU/benchmark/build/src-bobby/hw-block/ext_memory.c **** 		spiTxRx((start >> 8) & 0x00FF);
  51:/Users/pthalamy/Studies/CMU/benchmark/build/src-bobby/hw-block/ext_memory.c **** 		spiTxRx(start & 0x00FF);
  52:/Users/pthalamy/Studies/CMU/benchmark/build/src-bobby/hw-block/ext_memory.c **** 		
  53:/Users/pthalamy/Studies/CMU/benchmark/build/src-bobby/hw-block/ext_memory.c **** 		for(i = 0; i < length; ++i)
  54:/Users/pthalamy/Studies/CMU/benchmark/build/src-bobby/hw-block/ext_memory.c **** 		{
  55:/Users/pthalamy/Studies/CMU/benchmark/build/src-bobby/hw-block/ext_memory.c **** 			buf[i] = spiTxRx(0);
  56:/Users/pthalamy/Studies/CMU/benchmark/build/src-bobby/hw-block/ext_memory.c **** 		}
  57:/Users/pthalamy/Studies/CMU/benchmark/build/src-bobby/hw-block/ext_memory.c **** 		
  58:/Users/pthalamy/Studies/CMU/benchmark/build/src-bobby/hw-block/ext_memory.c **** 		setSS(SRAM, 1);	
  59:/Users/pthalamy/Studies/CMU/benchmark/build/src-bobby/hw-block/ext_memory.c **** 		
  60:/Users/pthalamy/Studies/CMU/benchmark/build/src-bobby/hw-block/ext_memory.c **** 		return 1;
  61:/Users/pthalamy/Studies/CMU/benchmark/build/src-bobby/hw-block/ext_memory.c **** 	}
  62:/Users/pthalamy/Studies/CMU/benchmark/build/src-bobby/hw-block/ext_memory.c **** 	else
  63:/Users/pthalamy/Studies/CMU/benchmark/build/src-bobby/hw-block/ext_memory.c **** 	{
  64:/Users/pthalamy/Studies/CMU/benchmark/build/src-bobby/hw-block/ext_memory.c **** 		int i;
  65:/Users/pthalamy/Studies/CMU/benchmark/build/src-bobby/hw-block/ext_memory.c **** 		
  66:/Users/pthalamy/Studies/CMU/benchmark/build/src-bobby/hw-block/ext_memory.c **** 		setSS(FLASH, 0);
  67:/Users/pthalamy/Studies/CMU/benchmark/build/src-bobby/hw-block/ext_memory.c **** 		
  68:/Users/pthalamy/Studies/CMU/benchmark/build/src-bobby/hw-block/ext_memory.c **** 		spiTxRx(FLASH_BF1RD);
  69:/Users/pthalamy/Studies/CMU/benchmark/build/src-bobby/hw-block/ext_memory.c **** 		spiTxRx(0x00);
  70:/Users/pthalamy/Studies/CMU/benchmark/build/src-bobby/hw-block/ext_memory.c **** 		spiTxRx((start & 0x0300) >> 8);
 142               		.loc 1 70 0
 143 0068 CB01      		movw r24,r22
 144 006a 8827      		clr r24
 145 006c 9370      		andi r25,3
 146 006e 892F      		mov r24,r25
 147 0070 990F      		lsl r25
 148 0072 990B      		sbc r25,r25
 149               	.LBB104:
 150               	.LBB105:
   6:/Users/pthalamy/Studies/CMU/benchmark/build/src-bobby/hw-block/ext_memory.c **** 	SPIE.DATA = input;
 151               		.loc 1 6 0
 152 0074 8093 C30A 		sts 2755,r24
 153               	.L24:
   8:/Users/pthalamy/Studies/CMU/benchmark/build/src-bobby/hw-block/ext_memory.c **** 	while(!(SPIE.STATUS & SPI_IF_bm));
 154               		.loc 1 8 0
 155 0078 8091 C20A 		lds r24,2754
 156 007c 87FF      		sbrs r24,7
 157 007e 00C0      		rjmp .L24
  10:/Users/pthalamy/Studies/CMU/benchmark/build/src-bobby/hw-block/ext_memory.c **** 	return SPIE.DATA;
 158               		.loc 1 10 0
 159 0080 8091 C30A 		lds r24,2755
 160               	.LBE105:
 161               	.LBE104:
 162               	.LBB106:
 163               	.LBB107:
   6:/Users/pthalamy/Studies/CMU/benchmark/build/src-bobby/hw-block/ext_memory.c **** 	SPIE.DATA = input;
 164               		.loc 1 6 0
 165 0084 6093 C30A 		sts 2755,r22
 166               	.L25:
   8:/Users/pthalamy/Studies/CMU/benchmark/build/src-bobby/hw-block/ext_memory.c **** 	while(!(SPIE.STATUS & SPI_IF_bm));
 167               		.loc 1 8 0
 168 0088 8091 C20A 		lds r24,2754
 169 008c 87FF      		sbrs r24,7
 170 008e 00C0      		rjmp .L25
  10:/Users/pthalamy/Studies/CMU/benchmark/build/src-bobby/hw-block/ext_memory.c **** 	return SPIE.DATA;
 171               		.loc 1 10 0
 172 0090 8091 C30A 		lds r24,2755
 173               	.LVL11:
 174               	.LBE107:
 175               	.LBE106:
 176               	.LBB108:
 177               	.LBB109:
   6:/Users/pthalamy/Studies/CMU/benchmark/build/src-bobby/hw-block/ext_memory.c **** 	SPIE.DATA = input;
 178               		.loc 1 6 0
 179 0094 1092 C30A 		sts 2755,__zero_reg__
 180               	.L26:
   8:/Users/pthalamy/Studies/CMU/benchmark/build/src-bobby/hw-block/ext_memory.c **** 	while(!(SPIE.STATUS & SPI_IF_bm));
 181               		.loc 1 8 0
 182 0098 8091 C20A 		lds r24,2754
 183 009c 87FF      		sbrs r24,7
 184 009e 00C0      		rjmp .L26
  10:/Users/pthalamy/Studies/CMU/benchmark/build/src-bobby/hw-block/ext_memory.c **** 	return SPIE.DATA;
 185               		.loc 1 10 0
 186 00a0 8091 C30A 		lds r24,2755
 187               	.LVL12:
 188               	.LBE109:
 189               	.LBE108:
  71:/Users/pthalamy/Studies/CMU/benchmark/build/src-bobby/hw-block/ext_memory.c **** 		spiTxRx(start & 0x00FF);
  72:/Users/pthalamy/Studies/CMU/benchmark/build/src-bobby/hw-block/ext_memory.c **** 		spiTxRx(0x00);
  73:/Users/pthalamy/Studies/CMU/benchmark/build/src-bobby/hw-block/ext_memory.c **** 		
  74:/Users/pthalamy/Studies/CMU/benchmark/build/src-bobby/hw-block/ext_memory.c **** 		for(i = 0; i < length; ++i)
 190               		.loc 1 74 0
 191 00a4 1216      		cp __zero_reg__,r18
 192 00a6 1306      		cpc __zero_reg__,r19
 193 00a8 04F4      		brge .L30
 194 00aa FA01      		movw r30,r20
 195               	.LBB110:
 196               	.LBB111:
  41:/Users/pthalamy/Studies/CMU/benchmark/build/src-bobby/hw-block/ext_memory.c **** int readExtMem(int which, int start, char * buf, int length)
 197               		.loc 1 41 0
 198 00ac 240F      		add r18,r20
 199 00ae 351F      		adc r19,r21
 200               	.LVL13:
 201               	.L29:
 202               	.LBE111:
 203               	.LBE110:
 204               	.LBB113:
 205               	.LBB114:
   6:/Users/pthalamy/Studies/CMU/benchmark/build/src-bobby/hw-block/ext_memory.c **** 	SPIE.DATA = input;
 206               		.loc 1 6 0 discriminator 2
 207 00b0 1092 C30A 		sts 2755,__zero_reg__
 208               	.L28:
   8:/Users/pthalamy/Studies/CMU/benchmark/build/src-bobby/hw-block/ext_memory.c **** 	while(!(SPIE.STATUS & SPI_IF_bm));
 209               		.loc 1 8 0
 210 00b4 8091 C20A 		lds r24,2754
 211 00b8 87FF      		sbrs r24,7
 212 00ba 00C0      		rjmp .L28
  10:/Users/pthalamy/Studies/CMU/benchmark/build/src-bobby/hw-block/ext_memory.c **** 	return SPIE.DATA;
 213               		.loc 1 10 0
 214 00bc 8091 C30A 		lds r24,2755
 215               	.LBE114:
 216               	.LBE113:
  75:/Users/pthalamy/Studies/CMU/benchmark/build/src-bobby/hw-block/ext_memory.c **** 		{
  76:/Users/pthalamy/Studies/CMU/benchmark/build/src-bobby/hw-block/ext_memory.c **** 			buf[i] = spiTxRx(0);
 217               		.loc 1 76 0
 218 00c0 8193      		st Z+,r24
  74:/Users/pthalamy/Studies/CMU/benchmark/build/src-bobby/hw-block/ext_memory.c **** 		for(i = 0; i < length; ++i)
 219               		.loc 1 74 0
 220 00c2 E217      		cp r30,r18
 221 00c4 F307      		cpc r31,r19
 222 00c6 01F4      		brne .L29
 223               	.LVL14:
 224               	.L30:
 225               	.LBB115:
 226               	.LBB112:
  31:/Users/pthalamy/Studies/CMU/benchmark/build/src-bobby/hw-block/ext_memory.c **** 			PORTE.OUTSET = PIN4_bm;
 227               		.loc 1 31 0
 228 00c8 80E1      		ldi r24,lo8(16)
 229 00ca 8093 8506 		sts 1669,r24
 230               	.LBE112:
 231               	.LBE115:
 232               	.LBE97:
  77:/Users/pthalamy/Studies/CMU/benchmark/build/src-bobby/hw-block/ext_memory.c **** 		}
  78:/Users/pthalamy/Studies/CMU/benchmark/build/src-bobby/hw-block/ext_memory.c **** 		
  79:/Users/pthalamy/Studies/CMU/benchmark/build/src-bobby/hw-block/ext_memory.c **** 		setSS(FLASH, 1);	
  80:/Users/pthalamy/Studies/CMU/benchmark/build/src-bobby/hw-block/ext_memory.c **** 		
  81:/Users/pthalamy/Studies/CMU/benchmark/build/src-bobby/hw-block/ext_memory.c **** 		return 1;
  82:/Users/pthalamy/Studies/CMU/benchmark/build/src-bobby/hw-block/ext_memory.c **** 	}
  83:/Users/pthalamy/Studies/CMU/benchmark/build/src-bobby/hw-block/ext_memory.c **** }
 233               		.loc 1 83 0
 234 00ce 81E0      		ldi r24,lo8(1)
 235 00d0 90E0      		ldi r25,0
 236 00d2 0895      		ret
 237               	.LVL15:
 238               	.L43:
 239               	.LBB116:
 240               	.LBB117:
 241               	.LBB118:
 242               	.LBB119:
 243               	.LBB120:
  24:/Users/pthalamy/Studies/CMU/benchmark/build/src-bobby/hw-block/ext_memory.c **** 			PORTF.OUTCLR = PIN4_bm;	
 244               		.loc 1 24 0
 245 00d4 80E1      		ldi r24,lo8(16)
 246               	.LVL16:
 247 00d6 8093 A606 		sts 1702,r24
 248               	.LVL17:
 249               	.LBE120:
 250               	.LBE119:
 251               	.LBE118:
 252               	.LBE117:
 253               	.LBB121:
 254               	.LBB122:
   6:/Users/pthalamy/Studies/CMU/benchmark/build/src-bobby/hw-block/ext_memory.c **** 	SPIE.DATA = input;
 255               		.loc 1 6 0
 256 00da 83E0      		ldi r24,lo8(3)
 257 00dc 8093 C30A 		sts 2755,r24
 258               	.L14:
   8:/Users/pthalamy/Studies/CMU/benchmark/build/src-bobby/hw-block/ext_memory.c **** 	while(!(SPIE.STATUS & SPI_IF_bm));
 259               		.loc 1 8 0
 260 00e0 8091 C20A 		lds r24,2754
 261 00e4 87FF      		sbrs r24,7
 262 00e6 00C0      		rjmp .L14
  10:/Users/pthalamy/Studies/CMU/benchmark/build/src-bobby/hw-block/ext_memory.c **** 	return SPIE.DATA;
 263               		.loc 1 10 0
 264 00e8 8091 C30A 		lds r24,2755
 265               	.LBE122:
 266               	.LBE121:
 267               	.LBB123:
 268               	.LBB124:
   6:/Users/pthalamy/Studies/CMU/benchmark/build/src-bobby/hw-block/ext_memory.c **** 	SPIE.DATA = input;
 269               		.loc 1 6 0
 270 00ec 7093 C30A 		sts 2755,r23
 271               	.L15:
   8:/Users/pthalamy/Studies/CMU/benchmark/build/src-bobby/hw-block/ext_memory.c **** 	while(!(SPIE.STATUS & SPI_IF_bm));
 272               		.loc 1 8 0
 273 00f0 8091 C20A 		lds r24,2754
 274 00f4 87FF      		sbrs r24,7
 275 00f6 00C0      		rjmp .L15
  10:/Users/pthalamy/Studies/CMU/benchmark/build/src-bobby/hw-block/ext_memory.c **** 	return SPIE.DATA;
 276               		.loc 1 10 0
 277 00f8 8091 C30A 		lds r24,2755
 278               	.LBE124:
 279               	.LBE123:
 280               	.LBB125:
 281               	.LBB126:
   6:/Users/pthalamy/Studies/CMU/benchmark/build/src-bobby/hw-block/ext_memory.c **** 	SPIE.DATA = input;
 282               		.loc 1 6 0
 283 00fc 6093 C30A 		sts 2755,r22
 284               	.L16:
   8:/Users/pthalamy/Studies/CMU/benchmark/build/src-bobby/hw-block/ext_memory.c **** 	while(!(SPIE.STATUS & SPI_IF_bm));
 285               		.loc 1 8 0
 286 0100 8091 C20A 		lds r24,2754
 287 0104 87FF      		sbrs r24,7
 288 0106 00C0      		rjmp .L16
  10:/Users/pthalamy/Studies/CMU/benchmark/build/src-bobby/hw-block/ext_memory.c **** 	return SPIE.DATA;
 289               		.loc 1 10 0
 290 0108 8091 C30A 		lds r24,2755
 291               	.LVL18:
 292               	.LBE126:
 293               	.LBE125:
  53:/Users/pthalamy/Studies/CMU/benchmark/build/src-bobby/hw-block/ext_memory.c **** 		for(i = 0; i < length; ++i)
 294               		.loc 1 53 0
 295 010c 1216      		cp __zero_reg__,r18
 296 010e 1306      		cpc __zero_reg__,r19
 297 0110 04F4      		brge .L21
 298 0112 FA01      		movw r30,r20
 299               	.LBB127:
 300               	.LBB128:
 301               	.LBB129:
 302               	.LBB130:
  41:/Users/pthalamy/Studies/CMU/benchmark/build/src-bobby/hw-block/ext_memory.c **** int readExtMem(int which, int start, char * buf, int length)
 303               		.loc 1 41 0
 304 0114 240F      		add r18,r20
 305 0116 351F      		adc r19,r21
 306               	.LVL19:
 307               	.L20:
 308               	.LBE130:
 309               	.LBE129:
 310               	.LBE128:
 311               	.LBE127:
 312               	.LBB134:
 313               	.LBB135:
   6:/Users/pthalamy/Studies/CMU/benchmark/build/src-bobby/hw-block/ext_memory.c **** 	SPIE.DATA = input;
 314               		.loc 1 6 0 discriminator 2
 315 0118 1092 C30A 		sts 2755,__zero_reg__
 316               	.L19:
   8:/Users/pthalamy/Studies/CMU/benchmark/build/src-bobby/hw-block/ext_memory.c **** 	while(!(SPIE.STATUS & SPI_IF_bm));
 317               		.loc 1 8 0
 318 011c 8091 C20A 		lds r24,2754
 319 0120 87FF      		sbrs r24,7
 320 0122 00C0      		rjmp .L19
  10:/Users/pthalamy/Studies/CMU/benchmark/build/src-bobby/hw-block/ext_memory.c **** 	return SPIE.DATA;
 321               		.loc 1 10 0
 322 0124 8091 C30A 		lds r24,2755
 323               	.LBE135:
 324               	.LBE134:
  55:/Users/pthalamy/Studies/CMU/benchmark/build/src-bobby/hw-block/ext_memory.c **** 			buf[i] = spiTxRx(0);
 325               		.loc 1 55 0
 326 0128 8193      		st Z+,r24
  53:/Users/pthalamy/Studies/CMU/benchmark/build/src-bobby/hw-block/ext_memory.c **** 		for(i = 0; i < length; ++i)
 327               		.loc 1 53 0
 328 012a E217      		cp r30,r18
 329 012c F307      		cpc r31,r19
 330 012e 01F4      		brne .L20
 331               	.LVL20:
 332               	.L21:
 333               	.LBB136:
 334               	.LBB133:
 335               	.LBB132:
 336               	.LBB131:
  20:/Users/pthalamy/Studies/CMU/benchmark/build/src-bobby/hw-block/ext_memory.c **** 			PORTF.OUTSET = PIN4_bm;
 337               		.loc 1 20 0
 338 0130 80E1      		ldi r24,lo8(16)
 339 0132 8093 A506 		sts 1701,r24
 340               	.LBE131:
 341               	.LBE132:
 342               	.LBE133:
 343               	.LBE136:
 344               	.LBE116:
 345               		.loc 1 83 0
 346 0136 81E0      		ldi r24,lo8(1)
 347 0138 90E0      		ldi r25,0
 348 013a 0895      		ret
 349               		.cfi_endproc
 350               	.LFE3:
 352               	.global	writeExtMem
 354               	writeExtMem:
 355               	.LFB4:
  84:/Users/pthalamy/Studies/CMU/benchmark/build/src-bobby/hw-block/ext_memory.c **** 
  85:/Users/pthalamy/Studies/CMU/benchmark/build/src-bobby/hw-block/ext_memory.c **** int writeExtMem(int which, int start, char * buf, int length)
  86:/Users/pthalamy/Studies/CMU/benchmark/build/src-bobby/hw-block/ext_memory.c **** {
 356               		.loc 1 86 0
 357               		.cfi_startproc
 358               	.LVL21:
 359               	/* prologue: function */
 360               	/* frame size = 0 */
 361               	/* stack size = 0 */
 362               	.L__stack_usage = 0
  87:/Users/pthalamy/Studies/CMU/benchmark/build/src-bobby/hw-block/ext_memory.c **** 	if(which == SRAM)
 363               		.loc 1 87 0
 364 013c 0197      		sbiw r24,1
 365 013e 01F4      		brne .+2
 366 0140 00C0      		rjmp .L73
 367               	.LVL22:
 368               	.LBB173:
 369               	.LBB174:
 370               	.LBB175:
  35:/Users/pthalamy/Studies/CMU/benchmark/build/src-bobby/hw-block/ext_memory.c **** 			PORTE.OUTCLR = PIN4_bm;	
 371               		.loc 1 35 0
 372 0142 80E1      		ldi r24,lo8(16)
 373               	.LVL23:
 374 0144 8093 8606 		sts 1670,r24
 375               	.LVL24:
 376               	.LBE175:
 377               	.LBE174:
 378               	.LBB176:
 379               	.LBB177:
   6:/Users/pthalamy/Studies/CMU/benchmark/build/src-bobby/hw-block/ext_memory.c **** 	SPIE.DATA = input;
 380               		.loc 1 6 0
 381 0148 84E8      		ldi r24,lo8(-124)
 382 014a 8093 C30A 		sts 2755,r24
 383               	.L54:
   8:/Users/pthalamy/Studies/CMU/benchmark/build/src-bobby/hw-block/ext_memory.c **** 	while(!(SPIE.STATUS & SPI_IF_bm));
 384               		.loc 1 8 0
 385 014e 8091 C20A 		lds r24,2754
 386 0152 87FF      		sbrs r24,7
 387 0154 00C0      		rjmp .L54
  10:/Users/pthalamy/Studies/CMU/benchmark/build/src-bobby/hw-block/ext_memory.c **** 	return SPIE.DATA;
 388               		.loc 1 10 0
 389 0156 8091 C30A 		lds r24,2755
 390               	.LVL25:
 391               	.LBE177:
 392               	.LBE176:
 393               	.LBB178:
 394               	.LBB179:
   6:/Users/pthalamy/Studies/CMU/benchmark/build/src-bobby/hw-block/ext_memory.c **** 	SPIE.DATA = input;
 395               		.loc 1 6 0
 396 015a 1092 C30A 		sts 2755,__zero_reg__
 397               	.L55:
   8:/Users/pthalamy/Studies/CMU/benchmark/build/src-bobby/hw-block/ext_memory.c **** 	while(!(SPIE.STATUS & SPI_IF_bm));
 398               		.loc 1 8 0
 399 015e 8091 C20A 		lds r24,2754
 400 0162 87FF      		sbrs r24,7
 401 0164 00C0      		rjmp .L55
  10:/Users/pthalamy/Studies/CMU/benchmark/build/src-bobby/hw-block/ext_memory.c **** 	return SPIE.DATA;
 402               		.loc 1 10 0
 403 0166 8091 C30A 		lds r24,2755
 404               	.LBE179:
 405               	.LBE178:
  88:/Users/pthalamy/Studies/CMU/benchmark/build/src-bobby/hw-block/ext_memory.c **** 	{
  89:/Users/pthalamy/Studies/CMU/benchmark/build/src-bobby/hw-block/ext_memory.c **** 		int i;
  90:/Users/pthalamy/Studies/CMU/benchmark/build/src-bobby/hw-block/ext_memory.c **** 		
  91:/Users/pthalamy/Studies/CMU/benchmark/build/src-bobby/hw-block/ext_memory.c **** 		setSS(SRAM, 0);
  92:/Users/pthalamy/Studies/CMU/benchmark/build/src-bobby/hw-block/ext_memory.c **** 		
  93:/Users/pthalamy/Studies/CMU/benchmark/build/src-bobby/hw-block/ext_memory.c **** 		spiTxRx(SRAM_WRITE);
  94:/Users/pthalamy/Studies/CMU/benchmark/build/src-bobby/hw-block/ext_memory.c **** 		spiTxRx((start >> 8) & 0x00FF);
  95:/Users/pthalamy/Studies/CMU/benchmark/build/src-bobby/hw-block/ext_memory.c **** 		spiTxRx(start & 0x00FF);
  96:/Users/pthalamy/Studies/CMU/benchmark/build/src-bobby/hw-block/ext_memory.c **** 		
  97:/Users/pthalamy/Studies/CMU/benchmark/build/src-bobby/hw-block/ext_memory.c **** 		for(i = 0; i < length; ++i)
  98:/Users/pthalamy/Studies/CMU/benchmark/build/src-bobby/hw-block/ext_memory.c **** 		{
  99:/Users/pthalamy/Studies/CMU/benchmark/build/src-bobby/hw-block/ext_memory.c **** 			spiTxRx(buf[i]);
 100:/Users/pthalamy/Studies/CMU/benchmark/build/src-bobby/hw-block/ext_memory.c **** 		}
 101:/Users/pthalamy/Studies/CMU/benchmark/build/src-bobby/hw-block/ext_memory.c **** 		
 102:/Users/pthalamy/Studies/CMU/benchmark/build/src-bobby/hw-block/ext_memory.c **** 		setSS(SRAM, 1);	
 103:/Users/pthalamy/Studies/CMU/benchmark/build/src-bobby/hw-block/ext_memory.c **** 		
 104:/Users/pthalamy/Studies/CMU/benchmark/build/src-bobby/hw-block/ext_memory.c **** 		return 1;
 105:/Users/pthalamy/Studies/CMU/benchmark/build/src-bobby/hw-block/ext_memory.c **** 	}
 106:/Users/pthalamy/Studies/CMU/benchmark/build/src-bobby/hw-block/ext_memory.c **** 	else
 107:/Users/pthalamy/Studies/CMU/benchmark/build/src-bobby/hw-block/ext_memory.c **** 	{
 108:/Users/pthalamy/Studies/CMU/benchmark/build/src-bobby/hw-block/ext_memory.c **** 		int i;
 109:/Users/pthalamy/Studies/CMU/benchmark/build/src-bobby/hw-block/ext_memory.c **** 		
 110:/Users/pthalamy/Studies/CMU/benchmark/build/src-bobby/hw-block/ext_memory.c **** 		setSS(FLASH, 0);
 111:/Users/pthalamy/Studies/CMU/benchmark/build/src-bobby/hw-block/ext_memory.c **** 		
 112:/Users/pthalamy/Studies/CMU/benchmark/build/src-bobby/hw-block/ext_memory.c **** 		spiTxRx(FLASH_BF1WR);
 113:/Users/pthalamy/Studies/CMU/benchmark/build/src-bobby/hw-block/ext_memory.c **** 		spiTxRx(0x00);
 114:/Users/pthalamy/Studies/CMU/benchmark/build/src-bobby/hw-block/ext_memory.c **** 		spiTxRx((start & 0x0300) >> 8);
 406               		.loc 1 114 0
 407 016a CB01      		movw r24,r22
 408 016c 8827      		clr r24
 409 016e 9370      		andi r25,3
 410 0170 892F      		mov r24,r25
 411 0172 990F      		lsl r25
 412 0174 990B      		sbc r25,r25
 413               	.LBB180:
 414               	.LBB181:
   6:/Users/pthalamy/Studies/CMU/benchmark/build/src-bobby/hw-block/ext_memory.c **** 	SPIE.DATA = input;
 415               		.loc 1 6 0
 416 0176 8093 C30A 		sts 2755,r24
 417               	.L56:
   8:/Users/pthalamy/Studies/CMU/benchmark/build/src-bobby/hw-block/ext_memory.c **** 	while(!(SPIE.STATUS & SPI_IF_bm));
 418               		.loc 1 8 0
 419 017a 8091 C20A 		lds r24,2754
 420 017e 87FF      		sbrs r24,7
 421 0180 00C0      		rjmp .L56
  10:/Users/pthalamy/Studies/CMU/benchmark/build/src-bobby/hw-block/ext_memory.c **** 	return SPIE.DATA;
 422               		.loc 1 10 0
 423 0182 8091 C30A 		lds r24,2755
 424               	.LBE181:
 425               	.LBE180:
 426               	.LBB182:
 427               	.LBB183:
   6:/Users/pthalamy/Studies/CMU/benchmark/build/src-bobby/hw-block/ext_memory.c **** 	SPIE.DATA = input;
 428               		.loc 1 6 0
 429 0186 6093 C30A 		sts 2755,r22
 430               	.L57:
   8:/Users/pthalamy/Studies/CMU/benchmark/build/src-bobby/hw-block/ext_memory.c **** 	while(!(SPIE.STATUS & SPI_IF_bm));
 431               		.loc 1 8 0
 432 018a 8091 C20A 		lds r24,2754
 433 018e 87FF      		sbrs r24,7
 434 0190 00C0      		rjmp .L57
  10:/Users/pthalamy/Studies/CMU/benchmark/build/src-bobby/hw-block/ext_memory.c **** 	return SPIE.DATA;
 435               		.loc 1 10 0
 436 0192 8091 C30A 		lds r24,2755
 437               	.LVL26:
 438               	.LBE183:
 439               	.LBE182:
 115:/Users/pthalamy/Studies/CMU/benchmark/build/src-bobby/hw-block/ext_memory.c **** 		spiTxRx(start & 0x00FF);
 116:/Users/pthalamy/Studies/CMU/benchmark/build/src-bobby/hw-block/ext_memory.c **** 		
 117:/Users/pthalamy/Studies/CMU/benchmark/build/src-bobby/hw-block/ext_memory.c **** 		for(i = 0; i < length; ++i)
 440               		.loc 1 117 0
 441 0196 1216      		cp __zero_reg__,r18
 442 0198 1306      		cpc __zero_reg__,r19
 443 019a 04F4      		brge .L61
 444 019c FA01      		movw r30,r20
 445               	.LBB184:
 446               	.LBB185:
  85:/Users/pthalamy/Studies/CMU/benchmark/build/src-bobby/hw-block/ext_memory.c **** int writeExtMem(int which, int start, char * buf, int length)
 447               		.loc 1 85 0
 448 019e 240F      		add r18,r20
 449 01a0 351F      		adc r19,r21
 450               	.LVL27:
 451               	.L60:
 452               	.LBE185:
 453               	.LBE184:
 118:/Users/pthalamy/Studies/CMU/benchmark/build/src-bobby/hw-block/ext_memory.c **** 		{
 119:/Users/pthalamy/Studies/CMU/benchmark/build/src-bobby/hw-block/ext_memory.c **** 			spiTxRx(buf[i]);
 454               		.loc 1 119 0 discriminator 2
 455 01a2 8191      		ld r24,Z+
 456               	.LVL28:
 457               	.LBB187:
 458               	.LBB188:
   6:/Users/pthalamy/Studies/CMU/benchmark/build/src-bobby/hw-block/ext_memory.c **** 	SPIE.DATA = input;
 459               		.loc 1 6 0 discriminator 2
 460 01a4 8093 C30A 		sts 2755,r24
 461               	.LVL29:
 462               	.L59:
   8:/Users/pthalamy/Studies/CMU/benchmark/build/src-bobby/hw-block/ext_memory.c **** 	while(!(SPIE.STATUS & SPI_IF_bm));
 463               		.loc 1 8 0
 464 01a8 8091 C20A 		lds r24,2754
 465 01ac 87FF      		sbrs r24,7
 466 01ae 00C0      		rjmp .L59
  10:/Users/pthalamy/Studies/CMU/benchmark/build/src-bobby/hw-block/ext_memory.c **** 	return SPIE.DATA;
 467               		.loc 1 10 0
 468 01b0 8091 C30A 		lds r24,2755
 469               	.LBE188:
 470               	.LBE187:
 117:/Users/pthalamy/Studies/CMU/benchmark/build/src-bobby/hw-block/ext_memory.c **** 		for(i = 0; i < length; ++i)
 471               		.loc 1 117 0
 472 01b4 E217      		cp r30,r18
 473 01b6 F307      		cpc r31,r19
 474 01b8 01F4      		brne .L60
 475               	.LVL30:
 476               	.L61:
 477               	.LBB189:
 478               	.LBB186:
  31:/Users/pthalamy/Studies/CMU/benchmark/build/src-bobby/hw-block/ext_memory.c **** 			PORTE.OUTSET = PIN4_bm;
 479               		.loc 1 31 0
 480 01ba 80E1      		ldi r24,lo8(16)
 481 01bc 8093 8506 		sts 1669,r24
 482               	.LBE186:
 483               	.LBE189:
 484               	.LBE173:
 120:/Users/pthalamy/Studies/CMU/benchmark/build/src-bobby/hw-block/ext_memory.c **** 		}
 121:/Users/pthalamy/Studies/CMU/benchmark/build/src-bobby/hw-block/ext_memory.c **** 		
 122:/Users/pthalamy/Studies/CMU/benchmark/build/src-bobby/hw-block/ext_memory.c **** 		setSS(FLASH, 1);	
 123:/Users/pthalamy/Studies/CMU/benchmark/build/src-bobby/hw-block/ext_memory.c **** 		
 124:/Users/pthalamy/Studies/CMU/benchmark/build/src-bobby/hw-block/ext_memory.c **** 		return 1;
 125:/Users/pthalamy/Studies/CMU/benchmark/build/src-bobby/hw-block/ext_memory.c **** 	}
 126:/Users/pthalamy/Studies/CMU/benchmark/build/src-bobby/hw-block/ext_memory.c **** 
 127:/Users/pthalamy/Studies/CMU/benchmark/build/src-bobby/hw-block/ext_memory.c **** 
 128:/Users/pthalamy/Studies/CMU/benchmark/build/src-bobby/hw-block/ext_memory.c **** }
 485               		.loc 1 128 0
 486 01c0 81E0      		ldi r24,lo8(1)
 487 01c2 90E0      		ldi r25,0
 488 01c4 0895      		ret
 489               	.LVL31:
 490               	.L73:
 491               	.LBB190:
 492               	.LBB191:
 493               	.LBB192:
 494               	.LBB193:
 495               	.LBB194:
  24:/Users/pthalamy/Studies/CMU/benchmark/build/src-bobby/hw-block/ext_memory.c **** 			PORTF.OUTCLR = PIN4_bm;	
 496               		.loc 1 24 0
 497 01c6 80E1      		ldi r24,lo8(16)
 498               	.LVL32:
 499 01c8 8093 A606 		sts 1702,r24
 500               	.LVL33:
 501               	.LBE194:
 502               	.LBE193:
 503               	.LBE192:
 504               	.LBE191:
 505               	.LBB195:
 506               	.LBB196:
   6:/Users/pthalamy/Studies/CMU/benchmark/build/src-bobby/hw-block/ext_memory.c **** 	SPIE.DATA = input;
 507               		.loc 1 6 0
 508 01cc 82E0      		ldi r24,lo8(2)
 509 01ce 8093 C30A 		sts 2755,r24
 510               	.L46:
   8:/Users/pthalamy/Studies/CMU/benchmark/build/src-bobby/hw-block/ext_memory.c **** 	while(!(SPIE.STATUS & SPI_IF_bm));
 511               		.loc 1 8 0
 512 01d2 8091 C20A 		lds r24,2754
 513 01d6 87FF      		sbrs r24,7
 514 01d8 00C0      		rjmp .L46
  10:/Users/pthalamy/Studies/CMU/benchmark/build/src-bobby/hw-block/ext_memory.c **** 	return SPIE.DATA;
 515               		.loc 1 10 0
 516 01da 8091 C30A 		lds r24,2755
 517               	.LBE196:
 518               	.LBE195:
 519               	.LBB197:
 520               	.LBB198:
   6:/Users/pthalamy/Studies/CMU/benchmark/build/src-bobby/hw-block/ext_memory.c **** 	SPIE.DATA = input;
 521               		.loc 1 6 0
 522 01de 7093 C30A 		sts 2755,r23
 523               	.L47:
   8:/Users/pthalamy/Studies/CMU/benchmark/build/src-bobby/hw-block/ext_memory.c **** 	while(!(SPIE.STATUS & SPI_IF_bm));
 524               		.loc 1 8 0
 525 01e2 8091 C20A 		lds r24,2754
 526 01e6 87FF      		sbrs r24,7
 527 01e8 00C0      		rjmp .L47
  10:/Users/pthalamy/Studies/CMU/benchmark/build/src-bobby/hw-block/ext_memory.c **** 	return SPIE.DATA;
 528               		.loc 1 10 0
 529 01ea 8091 C30A 		lds r24,2755
 530               	.LBE198:
 531               	.LBE197:
 532               	.LBB199:
 533               	.LBB200:
   6:/Users/pthalamy/Studies/CMU/benchmark/build/src-bobby/hw-block/ext_memory.c **** 	SPIE.DATA = input;
 534               		.loc 1 6 0
 535 01ee 6093 C30A 		sts 2755,r22
 536               	.L48:
   8:/Users/pthalamy/Studies/CMU/benchmark/build/src-bobby/hw-block/ext_memory.c **** 	while(!(SPIE.STATUS & SPI_IF_bm));
 537               		.loc 1 8 0
 538 01f2 8091 C20A 		lds r24,2754
 539 01f6 87FF      		sbrs r24,7
 540 01f8 00C0      		rjmp .L48
  10:/Users/pthalamy/Studies/CMU/benchmark/build/src-bobby/hw-block/ext_memory.c **** 	return SPIE.DATA;
 541               		.loc 1 10 0
 542 01fa 8091 C30A 		lds r24,2755
 543               	.LVL34:
 544               	.LBE200:
 545               	.LBE199:
  97:/Users/pthalamy/Studies/CMU/benchmark/build/src-bobby/hw-block/ext_memory.c **** 		for(i = 0; i < length; ++i)
 546               		.loc 1 97 0
 547 01fe 1216      		cp __zero_reg__,r18
 548 0200 1306      		cpc __zero_reg__,r19
 549 0202 04F4      		brge .L53
 550 0204 FA01      		movw r30,r20
 551               	.LBB201:
 552               	.LBB202:
 553               	.LBB203:
 554               	.LBB204:
  85:/Users/pthalamy/Studies/CMU/benchmark/build/src-bobby/hw-block/ext_memory.c **** int writeExtMem(int which, int start, char * buf, int length)
 555               		.loc 1 85 0
 556 0206 240F      		add r18,r20
 557 0208 351F      		adc r19,r21
 558               	.LVL35:
 559               	.L52:
 560               	.LBE204:
 561               	.LBE203:
 562               	.LBE202:
 563               	.LBE201:
  99:/Users/pthalamy/Studies/CMU/benchmark/build/src-bobby/hw-block/ext_memory.c **** 			spiTxRx(buf[i]);
 564               		.loc 1 99 0 discriminator 2
 565 020a 8191      		ld r24,Z+
 566               	.LVL36:
 567               	.LBB208:
 568               	.LBB209:
   6:/Users/pthalamy/Studies/CMU/benchmark/build/src-bobby/hw-block/ext_memory.c **** 	SPIE.DATA = input;
 569               		.loc 1 6 0 discriminator 2
 570 020c 8093 C30A 		sts 2755,r24
 571               	.LVL37:
 572               	.L51:
   8:/Users/pthalamy/Studies/CMU/benchmark/build/src-bobby/hw-block/ext_memory.c **** 	while(!(SPIE.STATUS & SPI_IF_bm));
 573               		.loc 1 8 0
 574 0210 8091 C20A 		lds r24,2754
 575 0214 87FF      		sbrs r24,7
 576 0216 00C0      		rjmp .L51
  10:/Users/pthalamy/Studies/CMU/benchmark/build/src-bobby/hw-block/ext_memory.c **** 	return SPIE.DATA;
 577               		.loc 1 10 0
 578 0218 8091 C30A 		lds r24,2755
 579               	.LBE209:
 580               	.LBE208:
  97:/Users/pthalamy/Studies/CMU/benchmark/build/src-bobby/hw-block/ext_memory.c **** 		for(i = 0; i < length; ++i)
 581               		.loc 1 97 0
 582 021c E217      		cp r30,r18
 583 021e F307      		cpc r31,r19
 584 0220 01F4      		brne .L52
 585               	.LVL38:
 586               	.L53:
 587               	.LBB210:
 588               	.LBB207:
 589               	.LBB206:
 590               	.LBB205:
  20:/Users/pthalamy/Studies/CMU/benchmark/build/src-bobby/hw-block/ext_memory.c **** 			PORTF.OUTSET = PIN4_bm;
 591               		.loc 1 20 0
 592 0222 80E1      		ldi r24,lo8(16)
 593 0224 8093 A506 		sts 1701,r24
 594               	.LBE205:
 595               	.LBE206:
 596               	.LBE207:
 597               	.LBE210:
 598               	.LBE190:
 599               		.loc 1 128 0
 600 0228 81E0      		ldi r24,lo8(1)
 601 022a 90E0      		ldi r25,0
 602 022c 0895      		ret
 603               		.cfi_endproc
 604               	.LFE4:
 606               	.global	initFlash
 608               	initFlash:
 609               	.LFB5:
 129:/Users/pthalamy/Studies/CMU/benchmark/build/src-bobby/hw-block/ext_memory.c **** 
 130:/Users/pthalamy/Studies/CMU/benchmark/build/src-bobby/hw-block/ext_memory.c **** 
 131:/Users/pthalamy/Studies/CMU/benchmark/build/src-bobby/hw-block/ext_memory.c **** 
 132:/Users/pthalamy/Studies/CMU/benchmark/build/src-bobby/hw-block/ext_memory.c **** void initFlash()
 133:/Users/pthalamy/Studies/CMU/benchmark/build/src-bobby/hw-block/ext_memory.c **** {
 610               		.loc 1 133 0
 611               		.cfi_startproc
 612               	/* prologue: function */
 613               	/* frame size = 0 */
 614               	/* stack size = 0 */
 615               	.L__stack_usage = 0
 616 022e 0895      		ret
 617               		.cfi_endproc
 618               	.LFE5:
 620               		.section	.rodata.str1.1,"aMS",@progbits,1
 621               	.LC0:
 622 0000 5352 2069 		.string	"SR is: %x\r\n"
 622      733A 2025 
 622      780D 0A00 
 623               		.text
 624               	.global	initSRAM
 626               	initSRAM:
 627               	.LFB6:
 134:/Users/pthalamy/Studies/CMU/benchmark/build/src-bobby/hw-block/ext_memory.c **** 
 135:/Users/pthalamy/Studies/CMU/benchmark/build/src-bobby/hw-block/ext_memory.c **** }
 136:/Users/pthalamy/Studies/CMU/benchmark/build/src-bobby/hw-block/ext_memory.c **** 
 137:/Users/pthalamy/Studies/CMU/benchmark/build/src-bobby/hw-block/ext_memory.c **** void initSRAM()
 138:/Users/pthalamy/Studies/CMU/benchmark/build/src-bobby/hw-block/ext_memory.c **** {
 628               		.loc 1 138 0
 629               		.cfi_startproc
 630               	/* prologue: function */
 631               	/* frame size = 0 */
 632               	/* stack size = 0 */
 633               	.L__stack_usage = 0
 634               	.LVL39:
 635               	.LBB245:
 636               	.LBB246:
 637               	.LBB247:
 638               	.LBB248:
  24:/Users/pthalamy/Studies/CMU/benchmark/build/src-bobby/hw-block/ext_memory.c **** 			PORTF.OUTCLR = PIN4_bm;	
 639               		.loc 1 24 0
 640 0230 80E1      		ldi r24,lo8(16)
 641 0232 8093 A606 		sts 1702,r24
 642               	.LVL40:
 643               	.LBE248:
 644               	.LBE247:
 645               	.LBE246:
 646               	.LBE245:
 647               	.LBB249:
 648               	.LBB250:
   6:/Users/pthalamy/Studies/CMU/benchmark/build/src-bobby/hw-block/ext_memory.c **** 	SPIE.DATA = input;
 649               		.loc 1 6 0
 650 0236 81E0      		ldi r24,lo8(1)
 651 0238 8093 C30A 		sts 2755,r24
 652               	.L76:
   8:/Users/pthalamy/Studies/CMU/benchmark/build/src-bobby/hw-block/ext_memory.c **** 	while(!(SPIE.STATUS & SPI_IF_bm));
 653               		.loc 1 8 0
 654 023c 8091 C20A 		lds r24,2754
 655 0240 87FF      		sbrs r24,7
 656 0242 00C0      		rjmp .L76
  10:/Users/pthalamy/Studies/CMU/benchmark/build/src-bobby/hw-block/ext_memory.c **** 	return SPIE.DATA;
 657               		.loc 1 10 0
 658 0244 8091 C30A 		lds r24,2755
 659               	.LVL41:
 660               	.LBE250:
 661               	.LBE249:
 662               	.LBB251:
 663               	.LBB252:
   6:/Users/pthalamy/Studies/CMU/benchmark/build/src-bobby/hw-block/ext_memory.c **** 	SPIE.DATA = input;
 664               		.loc 1 6 0
 665 0248 81E4      		ldi r24,lo8(65)
 666 024a 8093 C30A 		sts 2755,r24
 667               	.L77:
   8:/Users/pthalamy/Studies/CMU/benchmark/build/src-bobby/hw-block/ext_memory.c **** 	while(!(SPIE.STATUS & SPI_IF_bm));
 668               		.loc 1 8 0
 669 024e 8091 C20A 		lds r24,2754
 670 0252 87FF      		sbrs r24,7
 671 0254 00C0      		rjmp .L77
  10:/Users/pthalamy/Studies/CMU/benchmark/build/src-bobby/hw-block/ext_memory.c **** 	return SPIE.DATA;
 672               		.loc 1 10 0
 673 0256 8091 C30A 		lds r24,2755
 674               	.LVL42:
 675               	.LBE252:
 676               	.LBE251:
 677               	.LBB253:
 678               	.LBB254:
 679               	.LBB255:
 680               	.LBB256:
  20:/Users/pthalamy/Studies/CMU/benchmark/build/src-bobby/hw-block/ext_memory.c **** 			PORTF.OUTSET = PIN4_bm;
 681               		.loc 1 20 0
 682 025a 80E1      		ldi r24,lo8(16)
 683 025c 8093 A506 		sts 1701,r24
 684               	.LVL43:
 685               	.LBE256:
 686               	.LBE255:
 687               	.LBE254:
 688               	.LBE253:
 689               	.LBB257:
 690               	.LBB258:
 691               	.LBB259:
 692               	.LBB260:
 693               	.LBB261:
  24:/Users/pthalamy/Studies/CMU/benchmark/build/src-bobby/hw-block/ext_memory.c **** 			PORTF.OUTCLR = PIN4_bm;	
 694               		.loc 1 24 0
 695 0260 8093 A606 		sts 1702,r24
 696               	.LVL44:
 697               	.LBE261:
 698               	.LBE260:
 699               	.LBE259:
 700               	.LBE258:
 701               	.LBB262:
 702               	.LBB263:
   6:/Users/pthalamy/Studies/CMU/benchmark/build/src-bobby/hw-block/ext_memory.c **** 	SPIE.DATA = input;
 703               		.loc 1 6 0
 704 0264 85E0      		ldi r24,lo8(5)
 705 0266 8093 C30A 		sts 2755,r24
 706               	.L78:
   8:/Users/pthalamy/Studies/CMU/benchmark/build/src-bobby/hw-block/ext_memory.c **** 	while(!(SPIE.STATUS & SPI_IF_bm));
 707               		.loc 1 8 0
 708 026a 8091 C20A 		lds r24,2754
 709 026e 87FF      		sbrs r24,7
 710 0270 00C0      		rjmp .L78
  10:/Users/pthalamy/Studies/CMU/benchmark/build/src-bobby/hw-block/ext_memory.c **** 	return SPIE.DATA;
 711               		.loc 1 10 0
 712 0272 8091 C30A 		lds r24,2755
 713               	.LVL45:
 714               	.LBE263:
 715               	.LBE262:
 716               	.LBB264:
 717               	.LBB265:
   6:/Users/pthalamy/Studies/CMU/benchmark/build/src-bobby/hw-block/ext_memory.c **** 	SPIE.DATA = input;
 718               		.loc 1 6 0
 719 0276 1092 C30A 		sts 2755,__zero_reg__
 720               	.L79:
   8:/Users/pthalamy/Studies/CMU/benchmark/build/src-bobby/hw-block/ext_memory.c **** 	while(!(SPIE.STATUS & SPI_IF_bm));
 721               		.loc 1 8 0
 722 027a 8091 C20A 		lds r24,2754
 723 027e 87FF      		sbrs r24,7
 724 0280 00C0      		rjmp .L79
  10:/Users/pthalamy/Studies/CMU/benchmark/build/src-bobby/hw-block/ext_memory.c **** 	return SPIE.DATA;
 725               		.loc 1 10 0
 726 0282 8091 C30A 		lds r24,2755
 727               	.LVL46:
 728               	.LBE265:
 729               	.LBE264:
 730               	.LBB266:
 731               	.LBB267:
 732               	.LBB268:
 733               	.LBB269:
  20:/Users/pthalamy/Studies/CMU/benchmark/build/src-bobby/hw-block/ext_memory.c **** 			PORTF.OUTSET = PIN4_bm;
 734               		.loc 1 20 0
 735 0286 90E1      		ldi r25,lo8(16)
 736 0288 9093 A506 		sts 1701,r25
 737               	.LBE269:
 738               	.LBE268:
 739               	.LBE267:
 740               	.LBE266:
 139:/Users/pthalamy/Studies/CMU/benchmark/build/src-bobby/hw-block/ext_memory.c **** 		setSS(SRAM, 0);
 140:/Users/pthalamy/Studies/CMU/benchmark/build/src-bobby/hw-block/ext_memory.c **** 		
 141:/Users/pthalamy/Studies/CMU/benchmark/build/src-bobby/hw-block/ext_memory.c **** 		spiTxRx(SRAM_WRSR);
 142:/Users/pthalamy/Studies/CMU/benchmark/build/src-bobby/hw-block/ext_memory.c **** 		spiTxRx(0x41);	// set mode to sequential, disable HOLD feature
 143:/Users/pthalamy/Studies/CMU/benchmark/build/src-bobby/hw-block/ext_memory.c **** 		
 144:/Users/pthalamy/Studies/CMU/benchmark/build/src-bobby/hw-block/ext_memory.c **** 		setSS(SRAM, 1);	
 145:/Users/pthalamy/Studies/CMU/benchmark/build/src-bobby/hw-block/ext_memory.c **** 	
 146:/Users/pthalamy/Studies/CMU/benchmark/build/src-bobby/hw-block/ext_memory.c **** 	{
 147:/Users/pthalamy/Studies/CMU/benchmark/build/src-bobby/hw-block/ext_memory.c **** 		uint8_t val;
 148:/Users/pthalamy/Studies/CMU/benchmark/build/src-bobby/hw-block/ext_memory.c **** 		setSS(SRAM, 0);
 149:/Users/pthalamy/Studies/CMU/benchmark/build/src-bobby/hw-block/ext_memory.c **** 		
 150:/Users/pthalamy/Studies/CMU/benchmark/build/src-bobby/hw-block/ext_memory.c **** 		spiTxRx(SRAM_RDSR);
 151:/Users/pthalamy/Studies/CMU/benchmark/build/src-bobby/hw-block/ext_memory.c **** 		val = spiTxRx(0x0);	// set mode to sequential, disable HOLD feature
 152:/Users/pthalamy/Studies/CMU/benchmark/build/src-bobby/hw-block/ext_memory.c **** 		
 153:/Users/pthalamy/Studies/CMU/benchmark/build/src-bobby/hw-block/ext_memory.c **** 		setSS(SRAM, 1);			
 154:/Users/pthalamy/Studies/CMU/benchmark/build/src-bobby/hw-block/ext_memory.c **** 		
 155:/Users/pthalamy/Studies/CMU/benchmark/build/src-bobby/hw-block/ext_memory.c **** 		printf("SR is: %x\r\n",val);
 741               		.loc 1 155 0
 742 028c 1F92      		push __zero_reg__
 743               	.LCFI0:
 744               		.cfi_def_cfa_offset 4
 745 028e 8F93      		push r24
 746               	.LCFI1:
 747               		.cfi_def_cfa_offset 5
 748 0290 80E0      		ldi r24,lo8(.LC0)
 749 0292 90E0      		ldi r25,hi8(.LC0)
 750 0294 9F93      		push r25
 751               	.LCFI2:
 752               		.cfi_def_cfa_offset 6
 753 0296 8F93      		push r24
 754               	.LCFI3:
 755               		.cfi_def_cfa_offset 7
 756 0298 0E94 0000 		call printf
 757               	.LVL47:
 758 029c 0F90      		pop __tmp_reg__
 759 029e 0F90      		pop __tmp_reg__
 760 02a0 0F90      		pop __tmp_reg__
 761 02a2 0F90      		pop __tmp_reg__
 762               	.LCFI4:
 763               		.cfi_def_cfa_offset 3
 764 02a4 0895      		ret
 765               	.LBE257:
 766               		.cfi_endproc
 767               	.LFE6:
 769               	.global	initExtMem
 771               	initExtMem:
 772               	.LFB7:
 156:/Users/pthalamy/Studies/CMU/benchmark/build/src-bobby/hw-block/ext_memory.c **** 	}
 157:/Users/pthalamy/Studies/CMU/benchmark/build/src-bobby/hw-block/ext_memory.c **** }
 158:/Users/pthalamy/Studies/CMU/benchmark/build/src-bobby/hw-block/ext_memory.c **** 
 159:/Users/pthalamy/Studies/CMU/benchmark/build/src-bobby/hw-block/ext_memory.c **** void initExtMem()
 160:/Users/pthalamy/Studies/CMU/benchmark/build/src-bobby/hw-block/ext_memory.c **** {
 773               		.loc 1 160 0
 774               		.cfi_startproc
 775               	/* prologue: function */
 776               	/* frame size = 0 */
 777               	/* stack size = 0 */
 778               	.L__stack_usage = 0
 161:/Users/pthalamy/Studies/CMU/benchmark/build/src-bobby/hw-block/ext_memory.c **** 	PORTE.OUTSET = PIN4_bm;
 779               		.loc 1 161 0
 780 02a6 80E1      		ldi r24,lo8(16)
 781 02a8 8093 8506 		sts 1669,r24
 162:/Users/pthalamy/Studies/CMU/benchmark/build/src-bobby/hw-block/ext_memory.c **** 	PORTE.DIRSET = PIN4_bm;
 782               		.loc 1 162 0
 783 02ac 8093 8106 		sts 1665,r24
 163:/Users/pthalamy/Studies/CMU/benchmark/build/src-bobby/hw-block/ext_memory.c **** 
 164:/Users/pthalamy/Studies/CMU/benchmark/build/src-bobby/hw-block/ext_memory.c **** 	// set !SS1 lhigh
 165:/Users/pthalamy/Studies/CMU/benchmark/build/src-bobby/hw-block/ext_memory.c **** 	PORTF.OUTSET = PIN4_bm;
 784               		.loc 1 165 0
 785 02b0 8093 A506 		sts 1701,r24
 166:/Users/pthalamy/Studies/CMU/benchmark/build/src-bobby/hw-block/ext_memory.c **** 	PORTF.DIRSET = PIN4_bm;
 786               		.loc 1 166 0
 787 02b4 8093 A106 		sts 1697,r24
 167:/Users/pthalamy/Studies/CMU/benchmark/build/src-bobby/hw-block/ext_memory.c **** 
 168:/Users/pthalamy/Studies/CMU/benchmark/build/src-bobby/hw-block/ext_memory.c **** 
 169:/Users/pthalamy/Studies/CMU/benchmark/build/src-bobby/hw-block/ext_memory.c **** 	PORTE.DIRSET = PIN5_bm | PIN7_bm;	// !ss/mosi/sck as output
 788               		.loc 1 169 0
 789 02b8 90EA      		ldi r25,lo8(-96)
 790 02ba 9093 8106 		sts 1665,r25
 170:/Users/pthalamy/Studies/CMU/benchmark/build/src-bobby/hw-block/ext_memory.c **** 	PORTE.DIRCLR = PIN6_bm;				// miso as input
 791               		.loc 1 170 0
 792 02be 90E4      		ldi r25,lo8(64)
 793 02c0 9093 8206 		sts 1666,r25
 171:/Users/pthalamy/Studies/CMU/benchmark/build/src-bobby/hw-block/ext_memory.c **** 
 172:/Users/pthalamy/Studies/CMU/benchmark/build/src-bobby/hw-block/ext_memory.c **** 	SPIE.CTRL = SPI_ENABLE_bm | SPI_MASTER_bm;	//mode 0, clock/4
 794               		.loc 1 172 0
 795 02c4 90E5      		ldi r25,lo8(80)
 796 02c6 9093 C00A 		sts 2752,r25
 797               	.LVL48:
 798               	.LBB297:
 799               	.LBB298:
 800               	.LBB299:
 801               	.LBB300:
 802               	.LBB301:
  24:/Users/pthalamy/Studies/CMU/benchmark/build/src-bobby/hw-block/ext_memory.c **** 			PORTF.OUTCLR = PIN4_bm;	
 803               		.loc 1 24 0
 804 02ca 8093 A606 		sts 1702,r24
 805               	.LVL49:
 806               	.LBE301:
 807               	.LBE300:
 808               	.LBE299:
 809               	.LBE298:
 810               	.LBB302:
 811               	.LBB303:
   6:/Users/pthalamy/Studies/CMU/benchmark/build/src-bobby/hw-block/ext_memory.c **** 	SPIE.DATA = input;
 812               		.loc 1 6 0
 813 02ce 81E0      		ldi r24,lo8(1)
 814 02d0 8093 C30A 		sts 2755,r24
 815               	.L85:
   8:/Users/pthalamy/Studies/CMU/benchmark/build/src-bobby/hw-block/ext_memory.c **** 	while(!(SPIE.STATUS & SPI_IF_bm));
 816               		.loc 1 8 0
 817 02d4 8091 C20A 		lds r24,2754
 818 02d8 87FF      		sbrs r24,7
 819 02da 00C0      		rjmp .L85
  10:/Users/pthalamy/Studies/CMU/benchmark/build/src-bobby/hw-block/ext_memory.c **** 	return SPIE.DATA;
 820               		.loc 1 10 0
 821 02dc 8091 C30A 		lds r24,2755
 822               	.LVL50:
 823               	.LBE303:
 824               	.LBE302:
 825               	.LBB304:
 826               	.LBB305:
   6:/Users/pthalamy/Studies/CMU/benchmark/build/src-bobby/hw-block/ext_memory.c **** 	SPIE.DATA = input;
 827               		.loc 1 6 0
 828 02e0 81E4      		ldi r24,lo8(65)
 829 02e2 8093 C30A 		sts 2755,r24
 830               	.L86:
   8:/Users/pthalamy/Studies/CMU/benchmark/build/src-bobby/hw-block/ext_memory.c **** 	while(!(SPIE.STATUS & SPI_IF_bm));
 831               		.loc 1 8 0
 832 02e6 8091 C20A 		lds r24,2754
 833 02ea 87FF      		sbrs r24,7
 834 02ec 00C0      		rjmp .L86
  10:/Users/pthalamy/Studies/CMU/benchmark/build/src-bobby/hw-block/ext_memory.c **** 	return SPIE.DATA;
 835               		.loc 1 10 0
 836 02ee 8091 C30A 		lds r24,2755
 837               	.LVL51:
 838               	.LBE305:
 839               	.LBE304:
 840               	.LBB306:
 841               	.LBB307:
 842               	.LBB308:
 843               	.LBB309:
  20:/Users/pthalamy/Studies/CMU/benchmark/build/src-bobby/hw-block/ext_memory.c **** 			PORTF.OUTSET = PIN4_bm;
 844               		.loc 1 20 0
 845 02f2 80E1      		ldi r24,lo8(16)
 846 02f4 8093 A506 		sts 1701,r24
 847               	.LVL52:
 848               	.LBE309:
 849               	.LBE308:
 850               	.LBE307:
 851               	.LBE306:
 852               	.LBB310:
 853               	.LBB311:
 854               	.LBB312:
 855               	.LBB313:
 856               	.LBB314:
  24:/Users/pthalamy/Studies/CMU/benchmark/build/src-bobby/hw-block/ext_memory.c **** 			PORTF.OUTCLR = PIN4_bm;	
 857               		.loc 1 24 0
 858 02f8 8093 A606 		sts 1702,r24
 859               	.LVL53:
 860               	.LBE314:
 861               	.LBE313:
 862               	.LBE312:
 863               	.LBE311:
 864               	.LBB315:
 865               	.LBB316:
   6:/Users/pthalamy/Studies/CMU/benchmark/build/src-bobby/hw-block/ext_memory.c **** 	SPIE.DATA = input;
 866               		.loc 1 6 0
 867 02fc 85E0      		ldi r24,lo8(5)
 868 02fe 8093 C30A 		sts 2755,r24
 869               	.L87:
   8:/Users/pthalamy/Studies/CMU/benchmark/build/src-bobby/hw-block/ext_memory.c **** 	while(!(SPIE.STATUS & SPI_IF_bm));
 870               		.loc 1 8 0
 871 0302 8091 C20A 		lds r24,2754
 872 0306 87FF      		sbrs r24,7
 873 0308 00C0      		rjmp .L87
  10:/Users/pthalamy/Studies/CMU/benchmark/build/src-bobby/hw-block/ext_memory.c **** 	return SPIE.DATA;
 874               		.loc 1 10 0
 875 030a 8091 C30A 		lds r24,2755
 876               	.LVL54:
 877               	.LBE316:
 878               	.LBE315:
 879               	.LBB317:
 880               	.LBB318:
   6:/Users/pthalamy/Studies/CMU/benchmark/build/src-bobby/hw-block/ext_memory.c **** 	SPIE.DATA = input;
 881               		.loc 1 6 0
 882 030e 1092 C30A 		sts 2755,__zero_reg__
 883               	.L88:
   8:/Users/pthalamy/Studies/CMU/benchmark/build/src-bobby/hw-block/ext_memory.c **** 	while(!(SPIE.STATUS & SPI_IF_bm));
 884               		.loc 1 8 0
 885 0312 8091 C20A 		lds r24,2754
 886 0316 87FF      		sbrs r24,7
 887 0318 00C0      		rjmp .L88
  10:/Users/pthalamy/Studies/CMU/benchmark/build/src-bobby/hw-block/ext_memory.c **** 	return SPIE.DATA;
 888               		.loc 1 10 0
 889 031a 8091 C30A 		lds r24,2755
 890               	.LVL55:
 891               	.LBE318:
 892               	.LBE317:
 893               	.LBB319:
 894               	.LBB320:
 895               	.LBB321:
 896               	.LBB322:
  20:/Users/pthalamy/Studies/CMU/benchmark/build/src-bobby/hw-block/ext_memory.c **** 			PORTF.OUTSET = PIN4_bm;
 897               		.loc 1 20 0
 898 031e 90E1      		ldi r25,lo8(16)
 899 0320 9093 A506 		sts 1701,r25
 900               	.LBE322:
 901               	.LBE321:
 902               	.LBE320:
 903               	.LBE319:
 155:/Users/pthalamy/Studies/CMU/benchmark/build/src-bobby/hw-block/ext_memory.c **** 		printf("SR is: %x\r\n",val);
 904               		.loc 1 155 0
 905 0324 1F92      		push __zero_reg__
 906               	.LCFI5:
 907               		.cfi_def_cfa_offset 4
 908 0326 8F93      		push r24
 909               	.LCFI6:
 910               		.cfi_def_cfa_offset 5
 911 0328 80E0      		ldi r24,lo8(.LC0)
 912 032a 90E0      		ldi r25,hi8(.LC0)
 913 032c 9F93      		push r25
 914               	.LCFI7:
 915               		.cfi_def_cfa_offset 6
 916 032e 8F93      		push r24
 917               	.LCFI8:
 918               		.cfi_def_cfa_offset 7
 919 0330 0E94 0000 		call printf
 920               	.LVL56:
 921 0334 0F90      		pop __tmp_reg__
 922 0336 0F90      		pop __tmp_reg__
 923 0338 0F90      		pop __tmp_reg__
 924 033a 0F90      		pop __tmp_reg__
 925               	.LCFI9:
 926               		.cfi_def_cfa_offset 3
 927 033c 0895      		ret
 928               	.LBE310:
 929               	.LBE297:
 930               		.cfi_endproc
 931               	.LFE7:
 933               	.Letext0:
 934               		.file 2 "/usr/local/Cellar/avr-gcc/4.7.2/lib/gcc/avr/4.7.2/../../../../avr/include/stdint.h"
 935               		.file 3 "/usr/local/Cellar/avr-gcc/4.7.2/lib/gcc/avr/4.7.2/../../../../avr/include/avr/iox256a3.h"
 936               		.file 4 "/usr/local/Cellar/avr-gcc/4.7.2/lib/gcc/avr/4.7.2/../../../../avr/include/stdio.h"
DEFINED SYMBOLS
                            *ABS*:0000000000000000 ext_memory.c
/var/folders/15/4vptxgpd5dld1xryx388y8700000gn/T//ccICGKgo.s:2      *ABS*:000000000000003e __SP_H__
/var/folders/15/4vptxgpd5dld1xryx388y8700000gn/T//ccICGKgo.s:3      *ABS*:000000000000003d __SP_L__
/var/folders/15/4vptxgpd5dld1xryx388y8700000gn/T//ccICGKgo.s:4      *ABS*:000000000000003f __SREG__
/var/folders/15/4vptxgpd5dld1xryx388y8700000gn/T//ccICGKgo.s:5      *ABS*:000000000000003b __RAMPZ__
/var/folders/15/4vptxgpd5dld1xryx388y8700000gn/T//ccICGKgo.s:6      *ABS*:0000000000000034 __CCP__
/var/folders/15/4vptxgpd5dld1xryx388y8700000gn/T//ccICGKgo.s:7      *ABS*:0000000000000000 __tmp_reg__
/var/folders/15/4vptxgpd5dld1xryx388y8700000gn/T//ccICGKgo.s:8      *ABS*:0000000000000001 __zero_reg__
/var/folders/15/4vptxgpd5dld1xryx388y8700000gn/T//ccICGKgo.s:14     .text:0000000000000000 spiTxRx
/var/folders/15/4vptxgpd5dld1xryx388y8700000gn/T//ccICGKgo.s:41     .text:0000000000000012 setSS
/var/folders/15/4vptxgpd5dld1xryx388y8700000gn/T//ccICGKgo.s:90     .text:000000000000003a readExtMem
/var/folders/15/4vptxgpd5dld1xryx388y8700000gn/T//ccICGKgo.s:354    .text:000000000000013c writeExtMem
/var/folders/15/4vptxgpd5dld1xryx388y8700000gn/T//ccICGKgo.s:608    .text:000000000000022e initFlash
/var/folders/15/4vptxgpd5dld1xryx388y8700000gn/T//ccICGKgo.s:626    .text:0000000000000230 initSRAM
/var/folders/15/4vptxgpd5dld1xryx388y8700000gn/T//ccICGKgo.s:771    .text:00000000000002a6 initExtMem

UNDEFINED SYMBOLS
printf
__do_copy_data
