   1               		.file	"hwDataLink.c"
   2               	__SP_H__ = 0x3e
   3               	__SP_L__ = 0x3d
   4               	__SREG__ = 0x3f
   5               	__RAMPZ__ = 0x3b
   6               	__CCP__ = 0x34
   7               	__tmp_reg__ = 0
   8               	__zero_reg__ = 1
   9               		.text
  10               	.Ltext0:
  11               		.cfi_sections	.debug_frame
  12               	.global	crcCalc
  14               	crcCalc:
  15               	.LFB6:
  16               		.file 1 "/home/pthalamy/CMU/bench/benchmark/build/src-bobby/hw-block/hwDataLink.c"
   1:/home/pthalamy/CMU/bench/benchmark/build/src-bobby/hw-block/hwDataLink.c **** #ifndef _HW_DATALINK_C_
   2:/home/pthalamy/CMU/bench/benchmark/build/src-bobby/hw-block/hwDataLink.c **** #define _HW_DATALINK_C_
   3:/home/pthalamy/CMU/bench/benchmark/build/src-bobby/hw-block/hwDataLink.c **** 
   4:/home/pthalamy/CMU/bench/benchmark/build/src-bobby/hw-block/hwDataLink.c **** #include "../hw-api/hwDataLink.h"
   5:/home/pthalamy/CMU/bench/benchmark/build/src-bobby/hw-block/hwDataLink.c **** #include "../hw-api/hwSerial.h"
   6:/home/pthalamy/CMU/bench/benchmark/build/src-bobby/hw-block/hwDataLink.c **** #include "../system/ensemble.h"
   7:/home/pthalamy/CMU/bench/benchmark/build/src-bobby/hw-block/hwDataLink.c **** #include "../system/serial.h"
   8:/home/pthalamy/CMU/bench/benchmark/build/src-bobby/hw-block/hwDataLink.c **** 
   9:/home/pthalamy/CMU/bench/benchmark/build/src-bobby/hw-block/hwDataLink.c **** #define CRC_POLY        0xA6
  10:/home/pthalamy/CMU/bench/benchmark/build/src-bobby/hw-block/hwDataLink.c **** 
  11:/home/pthalamy/CMU/bench/benchmark/build/src-bobby/hw-block/hwDataLink.c **** // store if received an escape char
  12:/home/pthalamy/CMU/bench/benchmark/build/src-bobby/hw-block/hwDataLink.c **** byte   wasEscapeStore[NUM_PORTS];
  13:/home/pthalamy/CMU/bench/benchmark/build/src-bobby/hw-block/hwDataLink.c **** 
  14:/home/pthalamy/CMU/bench/benchmark/build/src-bobby/hw-block/hwDataLink.c **** extern ReceivePacketQueue globalRq;
  15:/home/pthalamy/CMU/bench/benchmark/build/src-bobby/hw-block/hwDataLink.c **** extern Port port[NUM_PORTS];
  16:/home/pthalamy/CMU/bench/benchmark/build/src-bobby/hw-block/hwDataLink.c **** 
  17:/home/pthalamy/CMU/bench/benchmark/build/src-bobby/hw-block/hwDataLink.c **** // calculates part of crc
  18:/home/pthalamy/CMU/bench/benchmark/build/src-bobby/hw-block/hwDataLink.c **** byte crcCalc(byte currCrc, byte newVal)
  19:/home/pthalamy/CMU/bench/benchmark/build/src-bobby/hw-block/hwDataLink.c **** {
  17               		.loc 1 19 0
  18               		.cfi_startproc
  19               	.LVL0:
  20               	/* prologue: function */
  21               	/* frame size = 0 */
  22               	/* stack size = 0 */
  23               	.L__stack_usage = 0
  20:/home/pthalamy/CMU/bench/benchmark/build/src-bobby/hw-block/hwDataLink.c ****     byte crc = currCrc;
  21:/home/pthalamy/CMU/bench/benchmark/build/src-bobby/hw-block/hwDataLink.c **** 	int i;
  22:/home/pthalamy/CMU/bench/benchmark/build/src-bobby/hw-block/hwDataLink.c **** 	
  23:/home/pthalamy/CMU/bench/benchmark/build/src-bobby/hw-block/hwDataLink.c **** 	crc ^= newVal;
  24               		.loc 1 23 0
  25 0000 6827      		eor r22,r24
  26               	.LVL1:
  24:/home/pthalamy/CMU/bench/benchmark/build/src-bobby/hw-block/hwDataLink.c ****     for (i=0; i<8; i++)
  25:/home/pthalamy/CMU/bench/benchmark/build/src-bobby/hw-block/hwDataLink.c **** 	{
  26:/home/pthalamy/CMU/bench/benchmark/build/src-bobby/hw-block/hwDataLink.c ****         if (0x80 & crc) {
  27:/home/pthalamy/CMU/bench/benchmark/build/src-bobby/hw-block/hwDataLink.c ****             crc = (crc << 1) ^ CRC_POLY;
  27               		.loc 1 27 0
  28 0002 862F      		mov r24,r22
  29               	.LVL2:
  30 0004 880F      		lsl r24
  31 0006 96EA      		ldi r25,lo8(-90)
  32 0008 8927      		eor r24,r25
  28:/home/pthalamy/CMU/bench/benchmark/build/src-bobby/hw-block/hwDataLink.c ****         }
  29:/home/pthalamy/CMU/bench/benchmark/build/src-bobby/hw-block/hwDataLink.c **** 		else {
  30:/home/pthalamy/CMU/bench/benchmark/build/src-bobby/hw-block/hwDataLink.c ****             crc = crc << 1;
  33               		.loc 1 30 0
  34 000a 962F      		mov r25,r22
  35 000c 990F      		lsl r25
  36 000e 67FD      		sbrc r22,7
  37 0010 00C0      		rjmp .L19
  38               	.L3:
  27:/home/pthalamy/CMU/bench/benchmark/build/src-bobby/hw-block/hwDataLink.c ****             crc = (crc << 1) ^ CRC_POLY;
  39               		.loc 1 27 0
  40 0012 292F      		mov r18,r25
  41 0014 220F      		lsl r18
  42 0016 86EA      		ldi r24,lo8(-90)
  43 0018 2827      		eor r18,r24
  44               		.loc 1 30 0
  45 001a 892F      		mov r24,r25
  46 001c 880F      		lsl r24
  47 001e 97FD      		sbrc r25,7
  48 0020 00C0      		rjmp .L20
  49               	.L5:
  27:/home/pthalamy/CMU/bench/benchmark/build/src-bobby/hw-block/hwDataLink.c ****             crc = (crc << 1) ^ CRC_POLY;
  50               		.loc 1 27 0
  51 0022 282F      		mov r18,r24
  52 0024 220F      		lsl r18
  53 0026 96EA      		ldi r25,lo8(-90)
  54 0028 2927      		eor r18,r25
  55               		.loc 1 30 0
  56 002a 982F      		mov r25,r24
  57 002c 990F      		lsl r25
  58 002e 87FD      		sbrc r24,7
  59 0030 00C0      		rjmp .L21
  60               	.L7:
  27:/home/pthalamy/CMU/bench/benchmark/build/src-bobby/hw-block/hwDataLink.c ****             crc = (crc << 1) ^ CRC_POLY;
  61               		.loc 1 27 0
  62 0032 292F      		mov r18,r25
  63 0034 220F      		lsl r18
  64 0036 86EA      		ldi r24,lo8(-90)
  65 0038 2827      		eor r18,r24
  66               		.loc 1 30 0
  67 003a 892F      		mov r24,r25
  68 003c 880F      		lsl r24
  69 003e 97FD      		sbrc r25,7
  70 0040 00C0      		rjmp .L22
  71               	.L9:
  27:/home/pthalamy/CMU/bench/benchmark/build/src-bobby/hw-block/hwDataLink.c ****             crc = (crc << 1) ^ CRC_POLY;
  72               		.loc 1 27 0
  73 0042 282F      		mov r18,r24
  74 0044 220F      		lsl r18
  75 0046 96EA      		ldi r25,lo8(-90)
  76 0048 2927      		eor r18,r25
  77               		.loc 1 30 0
  78 004a 982F      		mov r25,r24
  79 004c 990F      		lsl r25
  80 004e 87FD      		sbrc r24,7
  81 0050 00C0      		rjmp .L23
  82               	.L11:
  27:/home/pthalamy/CMU/bench/benchmark/build/src-bobby/hw-block/hwDataLink.c ****             crc = (crc << 1) ^ CRC_POLY;
  83               		.loc 1 27 0
  84 0052 292F      		mov r18,r25
  85 0054 220F      		lsl r18
  86 0056 86EA      		ldi r24,lo8(-90)
  87 0058 2827      		eor r18,r24
  88               		.loc 1 30 0
  89 005a 892F      		mov r24,r25
  90 005c 880F      		lsl r24
  91 005e 97FD      		sbrc r25,7
  92 0060 00C0      		rjmp .L24
  93               	.L13:
  27:/home/pthalamy/CMU/bench/benchmark/build/src-bobby/hw-block/hwDataLink.c ****             crc = (crc << 1) ^ CRC_POLY;
  94               		.loc 1 27 0
  95 0062 282F      		mov r18,r24
  96 0064 220F      		lsl r18
  97 0066 96EA      		ldi r25,lo8(-90)
  98 0068 2927      		eor r18,r25
  99               		.loc 1 30 0
 100 006a 982F      		mov r25,r24
 101 006c 990F      		lsl r25
 102 006e 87FD      		sbrc r24,7
 103 0070 00C0      		rjmp .L25
 104               	.L15:
  27:/home/pthalamy/CMU/bench/benchmark/build/src-bobby/hw-block/hwDataLink.c ****             crc = (crc << 1) ^ CRC_POLY;
 105               		.loc 1 27 0
 106 0072 292F      		mov r18,r25
 107 0074 220F      		lsl r18
 108 0076 86EA      		ldi r24,lo8(-90)
 109 0078 2827      		eor r18,r24
 110               		.loc 1 30 0
 111 007a 892F      		mov r24,r25
 112 007c 880F      		lsl r24
 113               	.LVL3:
 114 007e 97FF      		sbrs r25,7
  31:/home/pthalamy/CMU/bench/benchmark/build/src-bobby/hw-block/hwDataLink.c ****         }
  32:/home/pthalamy/CMU/bench/benchmark/build/src-bobby/hw-block/hwDataLink.c ****     }
  33:/home/pthalamy/CMU/bench/benchmark/build/src-bobby/hw-block/hwDataLink.c **** 	return crc;
  34:/home/pthalamy/CMU/bench/benchmark/build/src-bobby/hw-block/hwDataLink.c **** } 
 115               		.loc 1 34 0
 116 0080 0895      		ret
 117               	.L26:
 118 0082 822F      		mov r24,r18
 119               	.LVL4:
 120 0084 0895      		ret
 121               	.LVL5:
 122               	.L25:
 123 0086 922F      		mov r25,r18
 124 0088 00C0      		rjmp .L15
 125               	.L24:
 126 008a 822F      		mov r24,r18
 127 008c 00C0      		rjmp .L13
 128               	.L23:
 129 008e 922F      		mov r25,r18
 130 0090 00C0      		rjmp .L11
 131               	.L22:
 132 0092 822F      		mov r24,r18
 133 0094 00C0      		rjmp .L9
 134               	.L21:
 135 0096 922F      		mov r25,r18
 136 0098 00C0      		rjmp .L7
 137               	.L20:
 138 009a 822F      		mov r24,r18
 139 009c 00C0      		rjmp .L5
 140               	.L19:
 141 009e 982F      		mov r25,r24
 142 00a0 00C0      		rjmp .L3
 143               		.cfi_endproc
 144               	.LFE6:
 146               	.global	ackHandler
 148               	ackHandler:
 149               	.LFB7:
  35:/home/pthalamy/CMU/bench/benchmark/build/src-bobby/hw-block/hwDataLink.c **** 
  36:/home/pthalamy/CMU/bench/benchmark/build/src-bobby/hw-block/hwDataLink.c **** // handles the ack byte and updates the packet queue
  37:/home/pthalamy/CMU/bench/benchmark/build/src-bobby/hw-block/hwDataLink.c **** //    (parity, timer, CTS)
  38:/home/pthalamy/CMU/bench/benchmark/build/src-bobby/hw-block/hwDataLink.c **** // inputs:  port received on
  39:/home/pthalamy/CMU/bench/benchmark/build/src-bobby/hw-block/hwDataLink.c **** // returns: nothing
  40:/home/pthalamy/CMU/bench/benchmark/build/src-bobby/hw-block/hwDataLink.c **** void ackHandler(PRef p)
  41:/home/pthalamy/CMU/bench/benchmark/build/src-bobby/hw-block/hwDataLink.c **** {
 150               		.loc 1 41 0
 151               		.cfi_startproc
 152               	.LVL6:
 153 00a2 0F93      		push r16
 154               	.LCFI0:
 155               		.cfi_def_cfa_offset 4
 156               		.cfi_offset 16, -3
 157 00a4 1F93      		push r17
 158               	.LCFI1:
 159               		.cfi_def_cfa_offset 5
 160               		.cfi_offset 17, -4
 161 00a6 CF93      		push r28
 162               	.LCFI2:
 163               		.cfi_def_cfa_offset 6
 164               		.cfi_offset 28, -5
 165 00a8 DF93      		push r29
 166               	.LCFI3:
 167               		.cfi_def_cfa_offset 7
 168               		.cfi_offset 29, -6
 169               	/* prologue: function */
 170               	/* frame size = 0 */
 171               	/* stack size = 4 */
 172               	.L__stack_usage = 4
  42:/home/pthalamy/CMU/bench/benchmark/build/src-bobby/hw-block/hwDataLink.c ****     byte currParity = sendParity(port[p].sq);
 173               		.loc 1 42 0
 174 00aa 98E5      		ldi r25,lo8(88)
 175 00ac 899F      		mul r24,r25
 176 00ae 8001      		movw r16,r0
 177 00b0 1124      		clr __zero_reg__
 178 00b2 E801      		movw r28,r16
 179 00b4 C050      		subi r28,lo8(-(port))
 180 00b6 D040      		sbci r29,hi8(-(port))
 181 00b8 4E85      		ldd r20,Y+14
 182               	.LVL7:
  43:/home/pthalamy/CMU/bench/benchmark/build/src-bobby/hw-block/hwDataLink.c ****     
  44:/home/pthalamy/CMU/bench/benchmark/build/src-bobby/hw-block/hwDataLink.c ****     // check for double acks (shouldn't ever happen)
  45:/home/pthalamy/CMU/bench/benchmark/build/src-bobby/hw-block/hwDataLink.c ****     if( !(gotOddAck(port[p].rq) ^ gotEvenAck(port[p].rq)) ) 
 183               		.loc 1 45 0
 184 00ba 9D89      		ldd r25,Y+21
 185 00bc 292F      		mov r18,r25
 186 00be 2695      		lsr r18
 187 00c0 322F      		mov r19,r18
 188 00c2 3927      		eor r19,r25
  46:/home/pthalamy/CMU/bench/benchmark/build/src-bobby/hw-block/hwDataLink.c ****     {
  47:/home/pthalamy/CMU/bench/benchmark/build/src-bobby/hw-block/hwDataLink.c ****         clearReceivedAcks( port[p].rq );
 189               		.loc 1 47 0
 190 00c4 9C7F      		andi r25,lo8(-4)
 191 00c6 9D8B      		std Y+21,r25
  45:/home/pthalamy/CMU/bench/benchmark/build/src-bobby/hw-block/hwDataLink.c ****     if( !(gotOddAck(port[p].rq) ^ gotEvenAck(port[p].rq)) ) 
 192               		.loc 1 45 0
 193 00c8 30FF      		sbrs r19,0
 194 00ca 00C0      		rjmp .L27
 195               	.LVL8:
  42:/home/pthalamy/CMU/bench/benchmark/build/src-bobby/hw-block/hwDataLink.c ****     byte currParity = sendParity(port[p].sq);
 196               		.loc 1 42 0
 197 00cc 42FB      		bst r20,2
 198 00ce 4427      		clr r20
 199 00d0 40F9      		bld r20,0
 200               	.LVL9:
  48:/home/pthalamy/CMU/bench/benchmark/build/src-bobby/hw-block/hwDataLink.c ****         return;
  49:/home/pthalamy/CMU/bench/benchmark/build/src-bobby/hw-block/hwDataLink.c ****     }
  50:/home/pthalamy/CMU/bench/benchmark/build/src-bobby/hw-block/hwDataLink.c ****     byte recdParity = gotOddAck(port[p].rq);
 201               		.loc 1 50 0
 202 00d2 2170      		andi r18,lo8(1)
 203               	.LVL10:
  51:/home/pthalamy/CMU/bench/benchmark/build/src-bobby/hw-block/hwDataLink.c ****     clearReceivedAcks( port[p].rq );
  52:/home/pthalamy/CMU/bench/benchmark/build/src-bobby/hw-block/hwDataLink.c ****     
  53:/home/pthalamy/CMU/bench/benchmark/build/src-bobby/hw-block/hwDataLink.c ****     // parity matches
  54:/home/pthalamy/CMU/bench/benchmark/build/src-bobby/hw-block/hwDataLink.c ****     if(currParity == recdParity)
 204               		.loc 1 54 0
 205 00d4 4217      		cp r20,r18
 206 00d6 01F0      		breq .L30
 207               	.LVL11:
 208               	.L27:
 209               	/* epilogue start */
  55:/home/pthalamy/CMU/bench/benchmark/build/src-bobby/hw-block/hwDataLink.c ****     {
  56:/home/pthalamy/CMU/bench/benchmark/build/src-bobby/hw-block/hwDataLink.c ****         // remove the Chunk, call callback with successfull response
  57:/home/pthalamy/CMU/bench/benchmark/build/src-bobby/hw-block/hwDataLink.c ****         removeFromSq(p, MSG_RESP_ACK);
  58:/home/pthalamy/CMU/bench/benchmark/build/src-bobby/hw-block/hwDataLink.c ****         
  59:/home/pthalamy/CMU/bench/benchmark/build/src-bobby/hw-block/hwDataLink.c ****         // reset the flags
  60:/home/pthalamy/CMU/bench/benchmark/build/src-bobby/hw-block/hwDataLink.c ****         port[p].sq.retry    = NUM_RETRIES;
  61:/home/pthalamy/CMU/bench/benchmark/build/src-bobby/hw-block/hwDataLink.c ****         flipParity(port[p].sq);
  62:/home/pthalamy/CMU/bench/benchmark/build/src-bobby/hw-block/hwDataLink.c ****         port[p].sq.flags   |= CLEAR_TO_SEND;
  63:/home/pthalamy/CMU/bench/benchmark/build/src-bobby/hw-block/hwDataLink.c ****         
  64:/home/pthalamy/CMU/bench/benchmark/build/src-bobby/hw-block/hwDataLink.c ****         // reset the timer
  65:/home/pthalamy/CMU/bench/benchmark/build/src-bobby/hw-block/hwDataLink.c ****         deregisterTimeout(&(port[p].sq.qtout.tout));
  66:/home/pthalamy/CMU/bench/benchmark/build/src-bobby/hw-block/hwDataLink.c ****     }
  67:/home/pthalamy/CMU/bench/benchmark/build/src-bobby/hw-block/hwDataLink.c ****     // else, parity error - don't do anything
  68:/home/pthalamy/CMU/bench/benchmark/build/src-bobby/hw-block/hwDataLink.c **** }
 210               		.loc 1 68 0
 211 00d8 DF91      		pop r29
 212 00da CF91      		pop r28
 213               	.LVL12:
 214 00dc 1F91      		pop r17
 215 00de 0F91      		pop r16
 216               	.LVL13:
 217 00e0 0895      		ret
 218               	.LVL14:
 219               	.L30:
  57:/home/pthalamy/CMU/bench/benchmark/build/src-bobby/hw-block/hwDataLink.c ****         removeFromSq(p, MSG_RESP_ACK);
 220               		.loc 1 57 0
 221 00e2 68E0      		ldi r22,lo8(8)
 222 00e4 0E94 0000 		call removeFromSq
 223               	.LVL15:
  60:/home/pthalamy/CMU/bench/benchmark/build/src-bobby/hw-block/hwDataLink.c ****         port[p].sq.retry    = NUM_RETRIES;
 224               		.loc 1 60 0
 225 00e8 94E0      		ldi r25,lo8(4)
 226 00ea 9D87      		std Y+13,r25
  61:/home/pthalamy/CMU/bench/benchmark/build/src-bobby/hw-block/hwDataLink.c ****         flipParity(port[p].sq);
 227               		.loc 1 61 0
 228 00ec 8E85      		ldd r24,Y+14
 229 00ee 8927      		eor r24,r25
  62:/home/pthalamy/CMU/bench/benchmark/build/src-bobby/hw-block/hwDataLink.c ****         port[p].sq.flags   |= CLEAR_TO_SEND;
 230               		.loc 1 62 0
 231 00f0 8064      		ori r24,lo8(64)
 232 00f2 8E87      		std Y+14,r24
  65:/home/pthalamy/CMU/bench/benchmark/build/src-bobby/hw-block/hwDataLink.c ****         deregisterTimeout(&(port[p].sq.qtout.tout));
 233               		.loc 1 65 0
 234 00f4 C801      		movw r24,r16
 235 00f6 8050      		subi r24,lo8(-(port+1))
 236 00f8 9040      		sbci r25,hi8(-(port+1))
 237               	/* epilogue start */
 238               		.loc 1 68 0
 239 00fa DF91      		pop r29
 240 00fc CF91      		pop r28
 241 00fe 1F91      		pop r17
 242 0100 0F91      		pop r16
  65:/home/pthalamy/CMU/bench/benchmark/build/src-bobby/hw-block/hwDataLink.c ****         deregisterTimeout(&(port[p].sq.qtout.tout));
 243               		.loc 1 65 0
 244 0102 0C94 0000 		jmp deregisterTimeout
 245               	.LVL16:
 246               		.cfi_endproc
 247               	.LFE7:
 249               	.global	addToGlobalRq
 251               	addToGlobalRq:
 252               	.LFB8:
  69:/home/pthalamy/CMU/bench/benchmark/build/src-bobby/hw-block/hwDataLink.c **** 
  70:/home/pthalamy/CMU/bench/benchmark/build/src-bobby/hw-block/hwDataLink.c **** // adds a Chunk to the global receive queue
  71:/home/pthalamy/CMU/bench/benchmark/build/src-bobby/hw-block/hwDataLink.c **** void addToGlobalRq(Chunk* c)
  72:/home/pthalamy/CMU/bench/benchmark/build/src-bobby/hw-block/hwDataLink.c **** {
 253               		.loc 1 72 0
 254               		.cfi_startproc
 255               	.LVL17:
 256               	/* prologue: function */
 257               	/* frame size = 0 */
 258               	/* stack size = 0 */
 259               	.L__stack_usage = 0
  73:/home/pthalamy/CMU/bench/benchmark/build/src-bobby/hw-block/hwDataLink.c ****     // nothing to add
  74:/home/pthalamy/CMU/bench/benchmark/build/src-bobby/hw-block/hwDataLink.c ****     if( c == NULL ) 
 260               		.loc 1 74 0
 261 0106 0097      		sbiw r24,0
 262 0108 01F0      		breq .L31
  75:/home/pthalamy/CMU/bench/benchmark/build/src-bobby/hw-block/hwDataLink.c ****     {
  76:/home/pthalamy/CMU/bench/benchmark/build/src-bobby/hw-block/hwDataLink.c ****         return;
  77:/home/pthalamy/CMU/bench/benchmark/build/src-bobby/hw-block/hwDataLink.c ****     }
  78:/home/pthalamy/CMU/bench/benchmark/build/src-bobby/hw-block/hwDataLink.c ****         
  79:/home/pthalamy/CMU/bench/benchmark/build/src-bobby/hw-block/hwDataLink.c ****     // isolate Chunk
  80:/home/pthalamy/CMU/bench/benchmark/build/src-bobby/hw-block/hwDataLink.c ****     c->next = NULL;
 263               		.loc 1 80 0
 264 010a FC01      		movw r30,r24
 265 010c 128A      		std Z+18,__zero_reg__
 266 010e 138A      		std Z+19,__zero_reg__
  81:/home/pthalamy/CMU/bench/benchmark/build/src-bobby/hw-block/hwDataLink.c ****     
  82:/home/pthalamy/CMU/bench/benchmark/build/src-bobby/hw-block/hwDataLink.c ****     // update pointers
  83:/home/pthalamy/CMU/bench/benchmark/build/src-bobby/hw-block/hwDataLink.c ****     if( globalRq.head == NULL ) 
 267               		.loc 1 83 0
 268 0110 2091 0000 		lds r18,globalRq
 269 0114 3091 0000 		lds r19,globalRq+1
 270 0118 232B      		or r18,r19
 271 011a 01F0      		breq .L38
  84:/home/pthalamy/CMU/bench/benchmark/build/src-bobby/hw-block/hwDataLink.c ****     {
  85:/home/pthalamy/CMU/bench/benchmark/build/src-bobby/hw-block/hwDataLink.c ****         globalRq.head = c;
  86:/home/pthalamy/CMU/bench/benchmark/build/src-bobby/hw-block/hwDataLink.c ****     }
  87:/home/pthalamy/CMU/bench/benchmark/build/src-bobby/hw-block/hwDataLink.c ****     else 
  88:/home/pthalamy/CMU/bench/benchmark/build/src-bobby/hw-block/hwDataLink.c ****     {
  89:/home/pthalamy/CMU/bench/benchmark/build/src-bobby/hw-block/hwDataLink.c ****         globalRq.tail->next = c;
 272               		.loc 1 89 0
 273 011c E091 0000 		lds r30,globalRq+2
 274 0120 F091 0000 		lds r31,globalRq+2+1
 275 0124 828B      		std Z+18,r24
 276 0126 938B      		std Z+19,r25
 277               	.L34:
  90:/home/pthalamy/CMU/bench/benchmark/build/src-bobby/hw-block/hwDataLink.c ****     }
  91:/home/pthalamy/CMU/bench/benchmark/build/src-bobby/hw-block/hwDataLink.c ****     
  92:/home/pthalamy/CMU/bench/benchmark/build/src-bobby/hw-block/hwDataLink.c ****     // add/flag it
  93:/home/pthalamy/CMU/bench/benchmark/build/src-bobby/hw-block/hwDataLink.c ****     globalRq.tail  = c;
 278               		.loc 1 93 0
 279 0128 8093 0000 		sts globalRq+2,r24
 280 012c 9093 0000 		sts globalRq+2+1,r25
  94:/home/pthalamy/CMU/bench/benchmark/build/src-bobby/hw-block/hwDataLink.c ****     globalRq.flags = PACKET_READY;
 281               		.loc 1 94 0
 282 0130 80E8      		ldi r24,lo8(-128)
 283               	.LVL18:
 284 0132 8093 0000 		sts globalRq+4,r24
 285               	.LVL19:
 286               	.L31:
 287 0136 0895      		ret
 288               	.LVL20:
 289               	.L38:
  85:/home/pthalamy/CMU/bench/benchmark/build/src-bobby/hw-block/hwDataLink.c ****         globalRq.head = c;
 290               		.loc 1 85 0
 291 0138 8093 0000 		sts globalRq,r24
 292 013c 9093 0000 		sts globalRq+1,r25
 293 0140 00C0      		rjmp .L34
 294               		.cfi_endproc
 295               	.LFE8:
 297               	.global	isSpecial
 299               	isSpecial:
 300               	.LFB9:
  95:/home/pthalamy/CMU/bench/benchmark/build/src-bobby/hw-block/hwDataLink.c **** }
  96:/home/pthalamy/CMU/bench/benchmark/build/src-bobby/hw-block/hwDataLink.c **** 
  97:/home/pthalamy/CMU/bench/benchmark/build/src-bobby/hw-block/hwDataLink.c **** // check to see if character is special
  98:/home/pthalamy/CMU/bench/benchmark/build/src-bobby/hw-block/hwDataLink.c **** byte isSpecial(byte val)
  99:/home/pthalamy/CMU/bench/benchmark/build/src-bobby/hw-block/hwDataLink.c **** {
 301               		.loc 1 99 0
 302               		.cfi_startproc
 303               	.LVL21:
 304               	/* prologue: function */
 305               	/* frame size = 0 */
 306               	/* stack size = 0 */
 307               	.L__stack_usage = 0
 100:/home/pthalamy/CMU/bench/benchmark/build/src-bobby/hw-block/hwDataLink.c ****     if( ((val & ACK_MASK) == ACK   ) || ((val & ACK_MASK) == NACK  ) ||
 308               		.loc 1 100 0
 309 0142 982F      		mov r25,r24
 310 0144 9C7F      		andi r25,lo8(-4)
 311 0146 9830      		cpi r25,lo8(8)
 312 0148 01F0      		breq .L43
 313               		.loc 1 100 0 is_stmt 0 discriminator 1
 314 014a 982F      		mov r25,r24
 315 014c 9E7F      		andi r25,lo8(-2)
 316 014e 9231      		cpi r25,lo8(18)
 317 0150 01F0      		breq .L43
 101:/home/pthalamy/CMU/bench/benchmark/build/src-bobby/hw-block/hwDataLink.c ****         ((val & FD_MASK)  == FD    ) || (val              == ESCAPE )   )
 318               		.loc 1 101 0 is_stmt 1
 319 0152 91E0      		ldi r25,lo8(1)
 320 0154 8D37      		cpi r24,lo8(125)
 321 0156 01F0      		breq .L40
 322 0158 90E0      		ldi r25,0
 323               	.L40:
 102:/home/pthalamy/CMU/bench/benchmark/build/src-bobby/hw-block/hwDataLink.c ****     {
 103:/home/pthalamy/CMU/bench/benchmark/build/src-bobby/hw-block/hwDataLink.c ****         return 1;
 104:/home/pthalamy/CMU/bench/benchmark/build/src-bobby/hw-block/hwDataLink.c ****     }
 105:/home/pthalamy/CMU/bench/benchmark/build/src-bobby/hw-block/hwDataLink.c ****         
 106:/home/pthalamy/CMU/bench/benchmark/build/src-bobby/hw-block/hwDataLink.c ****     return 0;
 107:/home/pthalamy/CMU/bench/benchmark/build/src-bobby/hw-block/hwDataLink.c **** }
 324               		.loc 1 107 0
 325 015a 892F      		mov r24,r25
 326               	.LVL22:
 327 015c 0895      		ret
 328               	.LVL23:
 329               	.L43:
 103:/home/pthalamy/CMU/bench/benchmark/build/src-bobby/hw-block/hwDataLink.c ****         return 1;
 330               		.loc 1 103 0
 331 015e 91E0      		ldi r25,lo8(1)
 332               		.loc 1 107 0
 333 0160 892F      		mov r24,r25
 334               	.LVL24:
 335 0162 0895      		ret
 336               		.cfi_endproc
 337               	.LFE9:
 339               	.global	sendToBuffer
 341               	sendToBuffer:
 342               	.LFB10:
 108:/home/pthalamy/CMU/bench/benchmark/build/src-bobby/hw-block/hwDataLink.c **** 
 109:/home/pthalamy/CMU/bench/benchmark/build/src-bobby/hw-block/hwDataLink.c **** // makes the Chunk into the correct send string
 110:/home/pthalamy/CMU/bench/benchmark/build/src-bobby/hw-block/hwDataLink.c **** void sendToBuffer(PRef p, Chunk* c, byte parity)
 111:/home/pthalamy/CMU/bench/benchmark/build/src-bobby/hw-block/hwDataLink.c **** {
 343               		.loc 1 111 0
 344               		.cfi_startproc
 345               	.LVL25:
 346 0164 4F92      		push r4
 347               	.LCFI4:
 348               		.cfi_def_cfa_offset 4
 349               		.cfi_offset 4, -3
 350 0166 5F92      		push r5
 351               	.LCFI5:
 352               		.cfi_def_cfa_offset 5
 353               		.cfi_offset 5, -4
 354 0168 6F92      		push r6
 355               	.LCFI6:
 356               		.cfi_def_cfa_offset 6
 357               		.cfi_offset 6, -5
 358 016a 7F92      		push r7
 359               	.LCFI7:
 360               		.cfi_def_cfa_offset 7
 361               		.cfi_offset 7, -6
 362 016c 8F92      		push r8
 363               	.LCFI8:
 364               		.cfi_def_cfa_offset 8
 365               		.cfi_offset 8, -7
 366 016e 9F92      		push r9
 367               	.LCFI9:
 368               		.cfi_def_cfa_offset 9
 369               		.cfi_offset 9, -8
 370 0170 AF92      		push r10
 371               	.LCFI10:
 372               		.cfi_def_cfa_offset 10
 373               		.cfi_offset 10, -9
 374 0172 BF92      		push r11
 375               	.LCFI11:
 376               		.cfi_def_cfa_offset 11
 377               		.cfi_offset 11, -10
 378 0174 CF92      		push r12
 379               	.LCFI12:
 380               		.cfi_def_cfa_offset 12
 381               		.cfi_offset 12, -11
 382 0176 DF92      		push r13
 383               	.LCFI13:
 384               		.cfi_def_cfa_offset 13
 385               		.cfi_offset 13, -12
 386 0178 EF92      		push r14
 387               	.LCFI14:
 388               		.cfi_def_cfa_offset 14
 389               		.cfi_offset 14, -13
 390 017a FF92      		push r15
 391               	.LCFI15:
 392               		.cfi_def_cfa_offset 15
 393               		.cfi_offset 15, -14
 394 017c 0F93      		push r16
 395               	.LCFI16:
 396               		.cfi_def_cfa_offset 16
 397               		.cfi_offset 16, -15
 398 017e 1F93      		push r17
 399               	.LCFI17:
 400               		.cfi_def_cfa_offset 17
 401               		.cfi_offset 17, -16
 402 0180 CF93      		push r28
 403               	.LCFI18:
 404               		.cfi_def_cfa_offset 18
 405               		.cfi_offset 28, -17
 406 0182 DF93      		push r29
 407               	.LCFI19:
 408               		.cfi_def_cfa_offset 19
 409               		.cfi_offset 29, -18
 410 0184 1F92      		push __zero_reg__
 411               	.LCFI20:
 412               		.cfi_def_cfa_offset 20
 413 0186 CDB7      		in r28,__SP_L__
 414 0188 DEB7      		in r29,__SP_H__
 415               	.LCFI21:
 416               		.cfi_def_cfa_register 28
 417               	/* prologue: function */
 418               	/* frame size = 1 */
 419               	/* stack size = 17 */
 420               	.L__stack_usage = 17
 421 018a 8B01      		movw r16,r22
 422               	.LVL26:
 112:/home/pthalamy/CMU/bench/benchmark/build/src-bobby/hw-block/hwDataLink.c ****     byte checksum = 0;
 113:/home/pthalamy/CMU/bench/benchmark/build/src-bobby/hw-block/hwDataLink.c ****     byte val;
 114:/home/pthalamy/CMU/bench/benchmark/build/src-bobby/hw-block/hwDataLink.c ****     byte i;
 115:/home/pthalamy/CMU/bench/benchmark/build/src-bobby/hw-block/hwDataLink.c ****     byte delim;
 116:/home/pthalamy/CMU/bench/benchmark/build/src-bobby/hw-block/hwDataLink.c ****     
 117:/home/pthalamy/CMU/bench/benchmark/build/src-bobby/hw-block/hwDataLink.c ****     if(c == NULL)
 423               		.loc 1 117 0
 424 018c 6115      		cp r22,__zero_reg__
 425 018e 7105      		cpc r23,__zero_reg__
 426 0190 01F4      		brne .+2
 427 0192 00C0      		rjmp .L47
 118:/home/pthalamy/CMU/bench/benchmark/build/src-bobby/hw-block/hwDataLink.c ****     {
 119:/home/pthalamy/CMU/bench/benchmark/build/src-bobby/hw-block/hwDataLink.c ****         return;
 120:/home/pthalamy/CMU/bench/benchmark/build/src-bobby/hw-block/hwDataLink.c ****     }
 121:/home/pthalamy/CMU/bench/benchmark/build/src-bobby/hw-block/hwDataLink.c **** 	
 122:/home/pthalamy/CMU/bench/benchmark/build/src-bobby/hw-block/hwDataLink.c ****     // send FD
 123:/home/pthalamy/CMU/bench/benchmark/build/src-bobby/hw-block/hwDataLink.c ****     delim = (FD | parity);
 428               		.loc 1 123 0
 429 0194 4261      		ori r20,lo8(18)
 430               	.LVL27:
 431 0196 B42E      		mov r11,r20
 432               	.LVL28:
 433 0198 C82E      		mov r12,r24
 434 019a D12C      		mov r13,__zero_reg__
 435 019c 98E5      		ldi r25,lo8(88)
 436 019e 899F      		mul r24,r25
 437 01a0 2001      		movw r4,r0
 438 01a2 1124      		clr __zero_reg__
 439 01a4 F201      		movw r30,r4
 440 01a6 E050      		subi r30,lo8(-(port+56))
 441 01a8 F040      		sbci r31,hi8(-(port+56))
 442 01aa 2F01      		movw r4,r30
 443 01ac E12C      		mov r14,__zero_reg__
 444 01ae F12C      		mov r15,__zero_reg__
 112:/home/pthalamy/CMU/bench/benchmark/build/src-bobby/hw-block/hwDataLink.c ****     byte checksum = 0;
 445               		.loc 1 112 0
 446 01b0 812C      		mov r8,__zero_reg__
 447               	.LBB18:
 448               	.LBB19:
  27:/home/pthalamy/CMU/bench/benchmark/build/src-bobby/hw-block/hwDataLink.c ****             crc = (crc << 1) ^ CRC_POLY;
 449               		.loc 1 27 0
 450 01b2 36EA      		ldi r19,lo8(-90)
 451 01b4 932E      		mov r9,r19
 452               	.LBE19:
 453               	.LBE18:
 124:/home/pthalamy/CMU/bench/benchmark/build/src-bobby/hw-block/hwDataLink.c **** 
 125:/home/pthalamy/CMU/bench/benchmark/build/src-bobby/hw-block/hwDataLink.c ****     // send messageHandler
 126:/home/pthalamy/CMU/bench/benchmark/build/src-bobby/hw-block/hwDataLink.c ****     for(i=0; i<POINTER_SIZE; i++)
 127:/home/pthalamy/CMU/bench/benchmark/build/src-bobby/hw-block/hwDataLink.c ****     {
 128:/home/pthalamy/CMU/bench/benchmark/build/src-bobby/hw-block/hwDataLink.c ****         val = c->handler[i];
 129:/home/pthalamy/CMU/bench/benchmark/build/src-bobby/hw-block/hwDataLink.c ****         checksum = crcCalc(checksum, val);
 130:/home/pthalamy/CMU/bench/benchmark/build/src-bobby/hw-block/hwDataLink.c ****         
 131:/home/pthalamy/CMU/bench/benchmark/build/src-bobby/hw-block/hwDataLink.c ****         // escape it
 132:/home/pthalamy/CMU/bench/benchmark/build/src-bobby/hw-block/hwDataLink.c ****         if( isSpecial(val) ) 
 133:/home/pthalamy/CMU/bench/benchmark/build/src-bobby/hw-block/hwDataLink.c ****         {
 134:/home/pthalamy/CMU/bench/benchmark/build/src-bobby/hw-block/hwDataLink.c ****             push(ESCAPE, &(port[p].tx));
 135:/home/pthalamy/CMU/bench/benchmark/build/src-bobby/hw-block/hwDataLink.c ****             push(val^ESCAPE_CHAR, &(port[p].tx));
 454               		.loc 1 135 0
 455 01b6 40E2      		ldi r20,lo8(32)
 456 01b8 A42E      		mov r10,r20
 457               	.LVL29:
 458               	.L68:
 459 01ba F801      		movw r30,r16
 460 01bc EE0D      		add r30,r14
 461 01be FF1D      		adc r31,r15
 128:/home/pthalamy/CMU/bench/benchmark/build/src-bobby/hw-block/hwDataLink.c ****         val = c->handler[i];
 462               		.loc 1 128 0
 463 01c0 2489      		ldd r18,Z+20
 464               	.LVL30:
 465               	.LBB22:
 466               	.LBB20:
  23:/home/pthalamy/CMU/bench/benchmark/build/src-bobby/hw-block/hwDataLink.c **** 	crc ^= newVal;
 467               		.loc 1 23 0
 468 01c2 982D      		mov r25,r8
 469 01c4 9227      		eor r25,r18
 470               	.LVL31:
  26:/home/pthalamy/CMU/bench/benchmark/build/src-bobby/hw-block/hwDataLink.c ****         if (0x80 & crc) {
 471               		.loc 1 26 0
 472 01c6 97FD      		sbrc r25,7
 473 01c8 00C0      		rjmp .L49
  30:/home/pthalamy/CMU/bench/benchmark/build/src-bobby/hw-block/hwDataLink.c ****             crc = crc << 1;
 474               		.loc 1 30 0
 475 01ca 990F      		lsl r25
 476               	.LVL32:
 477               	.L50:
  26:/home/pthalamy/CMU/bench/benchmark/build/src-bobby/hw-block/hwDataLink.c ****         if (0x80 & crc) {
 478               		.loc 1 26 0
 479 01cc 97FD      		sbrc r25,7
 480 01ce 00C0      		rjmp .L51
  30:/home/pthalamy/CMU/bench/benchmark/build/src-bobby/hw-block/hwDataLink.c ****             crc = crc << 1;
 481               		.loc 1 30 0
 482 01d0 990F      		lsl r25
 483               	.LVL33:
  26:/home/pthalamy/CMU/bench/benchmark/build/src-bobby/hw-block/hwDataLink.c ****         if (0x80 & crc) {
 484               		.loc 1 26 0
 485 01d2 97FD      		sbrc r25,7
 486 01d4 00C0      		rjmp .L53
 487               	.L126:
  30:/home/pthalamy/CMU/bench/benchmark/build/src-bobby/hw-block/hwDataLink.c ****             crc = crc << 1;
 488               		.loc 1 30 0
 489 01d6 990F      		lsl r25
 490               	.LVL34:
  26:/home/pthalamy/CMU/bench/benchmark/build/src-bobby/hw-block/hwDataLink.c ****         if (0x80 & crc) {
 491               		.loc 1 26 0
 492 01d8 97FD      		sbrc r25,7
 493 01da 00C0      		rjmp .L55
 494               	.L127:
  30:/home/pthalamy/CMU/bench/benchmark/build/src-bobby/hw-block/hwDataLink.c ****             crc = crc << 1;
 495               		.loc 1 30 0
 496 01dc 990F      		lsl r25
 497               	.LVL35:
  26:/home/pthalamy/CMU/bench/benchmark/build/src-bobby/hw-block/hwDataLink.c ****         if (0x80 & crc) {
 498               		.loc 1 26 0
 499 01de 97FD      		sbrc r25,7
 500 01e0 00C0      		rjmp .L57
 501               	.L128:
  30:/home/pthalamy/CMU/bench/benchmark/build/src-bobby/hw-block/hwDataLink.c ****             crc = crc << 1;
 502               		.loc 1 30 0
 503 01e2 990F      		lsl r25
 504               	.LVL36:
  26:/home/pthalamy/CMU/bench/benchmark/build/src-bobby/hw-block/hwDataLink.c ****         if (0x80 & crc) {
 505               		.loc 1 26 0
 506 01e4 97FD      		sbrc r25,7
 507 01e6 00C0      		rjmp .L59
 508               	.L129:
  30:/home/pthalamy/CMU/bench/benchmark/build/src-bobby/hw-block/hwDataLink.c ****             crc = crc << 1;
 509               		.loc 1 30 0
 510 01e8 990F      		lsl r25
 511               	.LVL37:
 512               	.L60:
  26:/home/pthalamy/CMU/bench/benchmark/build/src-bobby/hw-block/hwDataLink.c ****         if (0x80 & crc) {
 513               		.loc 1 26 0
 514 01ea 97FD      		sbrc r25,7
 515 01ec 00C0      		rjmp .L61
  30:/home/pthalamy/CMU/bench/benchmark/build/src-bobby/hw-block/hwDataLink.c ****             crc = crc << 1;
 516               		.loc 1 30 0
 517 01ee 990F      		lsl r25
 518               	.LVL38:
 519               	.L62:
  27:/home/pthalamy/CMU/bench/benchmark/build/src-bobby/hw-block/hwDataLink.c ****             crc = (crc << 1) ^ CRC_POLY;
 520               		.loc 1 27 0
 521 01f0 892E      		mov r8,r25
 522               	.LVL39:
 523 01f2 880C      		lsl r8
  26:/home/pthalamy/CMU/bench/benchmark/build/src-bobby/hw-block/hwDataLink.c ****         if (0x80 & crc) {
 524               		.loc 1 26 0
 525 01f4 97FD      		sbrc r25,7
 526 01f6 00C0      		rjmp .L63
 527               	.LVL40:
 528               	.L64:
 529               	.LBE20:
 530               	.LBE22:
 531               	.LBB23:
 532               	.LBB24:
 100:/home/pthalamy/CMU/bench/benchmark/build/src-bobby/hw-block/hwDataLink.c ****     if( ((val & ACK_MASK) == ACK   ) || ((val & ACK_MASK) == NACK  ) ||
 533               		.loc 1 100 0
 534 01f8 822F      		mov r24,r18
 535 01fa 8C7F      		andi r24,lo8(-4)
 536 01fc 8830      		cpi r24,lo8(8)
 537 01fe 01F0      		breq .L65
 538 0200 822F      		mov r24,r18
 539 0202 8E7F      		andi r24,lo8(-2)
 540 0204 8231      		cpi r24,lo8(18)
 541 0206 01F0      		breq .L65
 101:/home/pthalamy/CMU/bench/benchmark/build/src-bobby/hw-block/hwDataLink.c ****         ((val & FD_MASK)  == FD    ) || (val              == ESCAPE )   )
 542               		.loc 1 101 0
 543 0208 2D37      		cpi r18,lo8(125)
 544 020a 01F0      		breq .L65
 545               	.LBE24:
 546               	.LBE23:
 136:/home/pthalamy/CMU/bench/benchmark/build/src-bobby/hw-block/hwDataLink.c ****         }
 137:/home/pthalamy/CMU/bench/benchmark/build/src-bobby/hw-block/hwDataLink.c ****         // send regular
 138:/home/pthalamy/CMU/bench/benchmark/build/src-bobby/hw-block/hwDataLink.c ****         else 
 139:/home/pthalamy/CMU/bench/benchmark/build/src-bobby/hw-block/hwDataLink.c ****         {
 140:/home/pthalamy/CMU/bench/benchmark/build/src-bobby/hw-block/hwDataLink.c ****             push(val, &(port[p].tx));
 547               		.loc 1 140 0
 548 020c B201      		movw r22,r4
 549 020e 822F      		mov r24,r18
 550 0210 0E94 0000 		call push
 551               	.LVL41:
 552 0214 00C0      		rjmp .L91
 553               	.LVL42:
 554               	.L65:
 134:/home/pthalamy/CMU/bench/benchmark/build/src-bobby/hw-block/hwDataLink.c ****             push(ESCAPE, &(port[p].tx));
 555               		.loc 1 134 0
 556 0216 B201      		movw r22,r4
 557 0218 8DE7      		ldi r24,lo8(125)
 558 021a 2983      		std Y+1,r18
 559 021c 0E94 0000 		call push
 560               	.LVL43:
 135:/home/pthalamy/CMU/bench/benchmark/build/src-bobby/hw-block/hwDataLink.c ****             push(val^ESCAPE_CHAR, &(port[p].tx));
 561               		.loc 1 135 0
 562 0220 B201      		movw r22,r4
 563 0222 2981      		ldd r18,Y+1
 564 0224 822F      		mov r24,r18
 565 0226 8A25      		eor r24,r10
 566 0228 0E94 0000 		call push
 567               	.LVL44:
 568               	.L91:
 569 022c FFEF      		ldi r31,-1
 570 022e EF1A      		sub r14,r31
 571 0230 FF0A      		sbc r15,r31
 572               	.LVL45:
 126:/home/pthalamy/CMU/bench/benchmark/build/src-bobby/hw-block/hwDataLink.c ****     for(i=0; i<POINTER_SIZE; i++)
 573               		.loc 1 126 0
 574 0232 82E0      		ldi r24,2
 575 0234 E816      		cp r14,r24
 576 0236 F104      		cpc r15,__zero_reg__
 577 0238 01F0      		breq .+2
 578 023a 00C0      		rjmp .L68
 579 023c 3801      		movw r6,r16
 580 023e 81E1      		ldi r24,lo8(17)
 581 0240 E82E      		mov r14,r24
 582               	.LVL46:
 583               	.LBB25:
 584               	.LBB26:
  27:/home/pthalamy/CMU/bench/benchmark/build/src-bobby/hw-block/hwDataLink.c ****             crc = (crc << 1) ^ CRC_POLY;
 585               		.loc 1 27 0
 586 0242 96EA      		ldi r25,lo8(-90)
 587 0244 992E      		mov r9,r25
 588               	.LBE26:
 589               	.LBE25:
 141:/home/pthalamy/CMU/bench/benchmark/build/src-bobby/hw-block/hwDataLink.c ****         }
 142:/home/pthalamy/CMU/bench/benchmark/build/src-bobby/hw-block/hwDataLink.c ****     }
 143:/home/pthalamy/CMU/bench/benchmark/build/src-bobby/hw-block/hwDataLink.c ****     
 144:/home/pthalamy/CMU/bench/benchmark/build/src-bobby/hw-block/hwDataLink.c ****     // send data
 145:/home/pthalamy/CMU/bench/benchmark/build/src-bobby/hw-block/hwDataLink.c ****     for(i=0; i<DATA_SIZE; i++)
 146:/home/pthalamy/CMU/bench/benchmark/build/src-bobby/hw-block/hwDataLink.c ****     {
 147:/home/pthalamy/CMU/bench/benchmark/build/src-bobby/hw-block/hwDataLink.c ****         val = c->data[i];
 148:/home/pthalamy/CMU/bench/benchmark/build/src-bobby/hw-block/hwDataLink.c ****         checksum = crcCalc(checksum, val);
 149:/home/pthalamy/CMU/bench/benchmark/build/src-bobby/hw-block/hwDataLink.c ****         
 150:/home/pthalamy/CMU/bench/benchmark/build/src-bobby/hw-block/hwDataLink.c ****         // escape it
 151:/home/pthalamy/CMU/bench/benchmark/build/src-bobby/hw-block/hwDataLink.c ****         if( isSpecial(val) ) 
 152:/home/pthalamy/CMU/bench/benchmark/build/src-bobby/hw-block/hwDataLink.c ****         {
 153:/home/pthalamy/CMU/bench/benchmark/build/src-bobby/hw-block/hwDataLink.c ****             push(ESCAPE, &(port[p].tx));
 154:/home/pthalamy/CMU/bench/benchmark/build/src-bobby/hw-block/hwDataLink.c **** 
 155:/home/pthalamy/CMU/bench/benchmark/build/src-bobby/hw-block/hwDataLink.c ****             push(val^ESCAPE_CHAR, &(port[p].tx));
 590               		.loc 1 155 0
 591 0246 20E2      		ldi r18,lo8(32)
 592 0248 A22E      		mov r10,r18
 593 024a 00C0      		rjmp .L88
 594               	.LVL47:
 595               	.L125:
 596               	.LBB29:
 597               	.LBB30:
 100:/home/pthalamy/CMU/bench/benchmark/build/src-bobby/hw-block/hwDataLink.c ****     if( ((val & ACK_MASK) == ACK   ) || ((val & ACK_MASK) == NACK  ) ||
 598               		.loc 1 100 0
 599 024c 82E1      		ldi r24,lo8(18)
 600 024e F817      		cp r31,r24
 601 0250 01F0      		breq .L85
 101:/home/pthalamy/CMU/bench/benchmark/build/src-bobby/hw-block/hwDataLink.c ****         ((val & FD_MASK)  == FD    ) || (val              == ESCAPE )   )
 602               		.loc 1 101 0
 603 0252 1D37      		cpi r17,lo8(125)
 604 0254 01F0      		breq .L85
 605               	.LBE30:
 606               	.LBE29:
 156:/home/pthalamy/CMU/bench/benchmark/build/src-bobby/hw-block/hwDataLink.c ****         }
 157:/home/pthalamy/CMU/bench/benchmark/build/src-bobby/hw-block/hwDataLink.c ****         // send regular
 158:/home/pthalamy/CMU/bench/benchmark/build/src-bobby/hw-block/hwDataLink.c ****         else 
 159:/home/pthalamy/CMU/bench/benchmark/build/src-bobby/hw-block/hwDataLink.c ****         {
 160:/home/pthalamy/CMU/bench/benchmark/build/src-bobby/hw-block/hwDataLink.c ****             push(val, &(port[p].tx));
 607               		.loc 1 160 0
 608 0256 B201      		movw r22,r4
 609 0258 812F      		mov r24,r17
 610 025a 0E94 0000 		call push
 611               	.LVL48:
 612 025e EA94      		dec r14
 145:/home/pthalamy/CMU/bench/benchmark/build/src-bobby/hw-block/hwDataLink.c ****     for(i=0; i<DATA_SIZE; i++)
 613               		.loc 1 145 0
 614 0260 01F0      		breq .L124
 615               	.LVL49:
 616               	.L88:
 147:/home/pthalamy/CMU/bench/benchmark/build/src-bobby/hw-block/hwDataLink.c ****         val = c->data[i];
 617               		.loc 1 147 0
 618 0262 F301      		movw r30,r6
 619 0264 1191      		ld r17,Z+
 620 0266 3F01      		movw r6,r30
 621               	.LVL50:
 622               	.LBB32:
 623               	.LBB27:
  23:/home/pthalamy/CMU/bench/benchmark/build/src-bobby/hw-block/hwDataLink.c **** 	crc ^= newVal;
 624               		.loc 1 23 0
 625 0268 982D      		mov r25,r8
 626 026a 9127      		eor r25,r17
 627               	.LVL51:
  26:/home/pthalamy/CMU/bench/benchmark/build/src-bobby/hw-block/hwDataLink.c ****         if (0x80 & crc) {
 628               		.loc 1 26 0
 629 026c 97FD      		sbrc r25,7
 630 026e 00C0      		rjmp .L69
  30:/home/pthalamy/CMU/bench/benchmark/build/src-bobby/hw-block/hwDataLink.c ****             crc = crc << 1;
 631               		.loc 1 30 0
 632 0270 990F      		lsl r25
 633               	.LVL52:
 634               	.L70:
  26:/home/pthalamy/CMU/bench/benchmark/build/src-bobby/hw-block/hwDataLink.c ****         if (0x80 & crc) {
 635               		.loc 1 26 0
 636 0272 97FD      		sbrc r25,7
 637 0274 00C0      		rjmp .L71
  30:/home/pthalamy/CMU/bench/benchmark/build/src-bobby/hw-block/hwDataLink.c ****             crc = crc << 1;
 638               		.loc 1 30 0
 639 0276 990F      		lsl r25
 640               	.LVL53:
 641               	.L72:
  26:/home/pthalamy/CMU/bench/benchmark/build/src-bobby/hw-block/hwDataLink.c ****         if (0x80 & crc) {
 642               		.loc 1 26 0
 643 0278 97FD      		sbrc r25,7
 644 027a 00C0      		rjmp .L73
  30:/home/pthalamy/CMU/bench/benchmark/build/src-bobby/hw-block/hwDataLink.c ****             crc = crc << 1;
 645               		.loc 1 30 0
 646 027c 990F      		lsl r25
 647               	.LVL54:
 648               	.L74:
  26:/home/pthalamy/CMU/bench/benchmark/build/src-bobby/hw-block/hwDataLink.c ****         if (0x80 & crc) {
 649               		.loc 1 26 0
 650 027e 97FD      		sbrc r25,7
 651 0280 00C0      		rjmp .L75
  30:/home/pthalamy/CMU/bench/benchmark/build/src-bobby/hw-block/hwDataLink.c ****             crc = crc << 1;
 652               		.loc 1 30 0
 653 0282 990F      		lsl r25
 654               	.LVL55:
 655               	.L76:
  26:/home/pthalamy/CMU/bench/benchmark/build/src-bobby/hw-block/hwDataLink.c ****         if (0x80 & crc) {
 656               		.loc 1 26 0
 657 0284 97FD      		sbrc r25,7
 658 0286 00C0      		rjmp .L77
  30:/home/pthalamy/CMU/bench/benchmark/build/src-bobby/hw-block/hwDataLink.c ****             crc = crc << 1;
 659               		.loc 1 30 0
 660 0288 990F      		lsl r25
 661               	.LVL56:
 662               	.L78:
  26:/home/pthalamy/CMU/bench/benchmark/build/src-bobby/hw-block/hwDataLink.c ****         if (0x80 & crc) {
 663               		.loc 1 26 0
 664 028a 97FD      		sbrc r25,7
 665 028c 00C0      		rjmp .L79
  30:/home/pthalamy/CMU/bench/benchmark/build/src-bobby/hw-block/hwDataLink.c ****             crc = crc << 1;
 666               		.loc 1 30 0
 667 028e 990F      		lsl r25
 668               	.LVL57:
 669               	.L80:
  26:/home/pthalamy/CMU/bench/benchmark/build/src-bobby/hw-block/hwDataLink.c ****         if (0x80 & crc) {
 670               		.loc 1 26 0
 671 0290 97FD      		sbrc r25,7
 672 0292 00C0      		rjmp .L81
  30:/home/pthalamy/CMU/bench/benchmark/build/src-bobby/hw-block/hwDataLink.c ****             crc = crc << 1;
 673               		.loc 1 30 0
 674 0294 990F      		lsl r25
 675               	.LVL58:
 676               	.L82:
  27:/home/pthalamy/CMU/bench/benchmark/build/src-bobby/hw-block/hwDataLink.c ****             crc = (crc << 1) ^ CRC_POLY;
 677               		.loc 1 27 0
 678 0296 892E      		mov r8,r25
 679               	.LVL59:
 680 0298 880C      		lsl r8
  26:/home/pthalamy/CMU/bench/benchmark/build/src-bobby/hw-block/hwDataLink.c ****         if (0x80 & crc) {
 681               		.loc 1 26 0
 682 029a 97FD      		sbrc r25,7
 683 029c 00C0      		rjmp .L83
 684               	.LVL60:
 685               	.L84:
 686               	.LBE27:
 687               	.LBE32:
 688               	.LBB33:
 689               	.LBB31:
 100:/home/pthalamy/CMU/bench/benchmark/build/src-bobby/hw-block/hwDataLink.c ****     if( ((val & ACK_MASK) == ACK   ) || ((val & ACK_MASK) == NACK  ) ||
 690               		.loc 1 100 0
 691 029e F12F      		mov r31,r17
 692 02a0 FE7F      		andi r31,lo8(-2)
 693 02a2 FF2E      		mov r15,r31
 694 02a4 012F      		mov r16,r17
 695 02a6 0C7F      		andi r16,lo8(-4)
 696 02a8 0830      		cpi r16,lo8(8)
 697 02aa 01F4      		brne .L125
 698               	.L85:
 699               	.LBE31:
 700               	.LBE33:
 153:/home/pthalamy/CMU/bench/benchmark/build/src-bobby/hw-block/hwDataLink.c ****             push(ESCAPE, &(port[p].tx));
 701               		.loc 1 153 0
 702 02ac B201      		movw r22,r4
 703 02ae 8DE7      		ldi r24,lo8(125)
 704 02b0 0E94 0000 		call push
 705               	.LVL61:
 155:/home/pthalamy/CMU/bench/benchmark/build/src-bobby/hw-block/hwDataLink.c ****             push(val^ESCAPE_CHAR, &(port[p].tx));
 706               		.loc 1 155 0
 707 02b4 B201      		movw r22,r4
 708 02b6 812F      		mov r24,r17
 709 02b8 8A25      		eor r24,r10
 710 02ba 0E94 0000 		call push
 711               	.LVL62:
 712 02be EA94      		dec r14
 145:/home/pthalamy/CMU/bench/benchmark/build/src-bobby/hw-block/hwDataLink.c ****     for(i=0; i<DATA_SIZE; i++)
 713               		.loc 1 145 0
 714 02c0 01F4      		brne .L88
 715               	.LVL63:
 716               	.L124:
 717               	.LBB34:
 718               	.LBB35:
 100:/home/pthalamy/CMU/bench/benchmark/build/src-bobby/hw-block/hwDataLink.c ****     if( ((val & ACK_MASK) == ACK   ) || ((val & ACK_MASK) == NACK  ) ||
 719               		.loc 1 100 0
 720 02c2 0830      		cpi r16,lo8(8)
 721 02c4 01F0      		breq .L89
 722 02c6 92E1      		ldi r25,lo8(18)
 723 02c8 F916      		cp r15,r25
 724 02ca 01F0      		breq .L89
 101:/home/pthalamy/CMU/bench/benchmark/build/src-bobby/hw-block/hwDataLink.c ****         ((val & FD_MASK)  == FD    ) || (val              == ESCAPE )   )
 725               		.loc 1 101 0
 726 02cc 1D37      		cpi r17,lo8(125)
 727 02ce 01F0      		breq .L89
 728               	.LBE35:
 729               	.LBE34:
 161:/home/pthalamy/CMU/bench/benchmark/build/src-bobby/hw-block/hwDataLink.c ****         }
 162:/home/pthalamy/CMU/bench/benchmark/build/src-bobby/hw-block/hwDataLink.c ****     }
 163:/home/pthalamy/CMU/bench/benchmark/build/src-bobby/hw-block/hwDataLink.c **** 
 164:/home/pthalamy/CMU/bench/benchmark/build/src-bobby/hw-block/hwDataLink.c ****     // send checksum
 165:/home/pthalamy/CMU/bench/benchmark/build/src-bobby/hw-block/hwDataLink.c **** 	// escape it
 166:/home/pthalamy/CMU/bench/benchmark/build/src-bobby/hw-block/hwDataLink.c ****     if( isSpecial(val) ) 
 167:/home/pthalamy/CMU/bench/benchmark/build/src-bobby/hw-block/hwDataLink.c ****     {
 168:/home/pthalamy/CMU/bench/benchmark/build/src-bobby/hw-block/hwDataLink.c ****         push(ESCAPE, &(port[p].tx));
 169:/home/pthalamy/CMU/bench/benchmark/build/src-bobby/hw-block/hwDataLink.c ****         push(checksum^ESCAPE_CHAR, &(port[p].tx));
 170:/home/pthalamy/CMU/bench/benchmark/build/src-bobby/hw-block/hwDataLink.c ****     }
 171:/home/pthalamy/CMU/bench/benchmark/build/src-bobby/hw-block/hwDataLink.c ****     // send regular
 172:/home/pthalamy/CMU/bench/benchmark/build/src-bobby/hw-block/hwDataLink.c ****     else 
 173:/home/pthalamy/CMU/bench/benchmark/build/src-bobby/hw-block/hwDataLink.c ****     {
 174:/home/pthalamy/CMU/bench/benchmark/build/src-bobby/hw-block/hwDataLink.c ****         push(checksum, &(port[p].tx));
 730               		.loc 1 174 0
 731 02d0 B201      		movw r22,r4
 732 02d2 882D      		mov r24,r8
 733 02d4 0E94 0000 		call push
 734               	.LVL64:
 735 02d8 00C0      		rjmp .L93
 736               	.LVL65:
 737               	.L83:
 738               	.LBB36:
 739               	.LBB28:
  27:/home/pthalamy/CMU/bench/benchmark/build/src-bobby/hw-block/hwDataLink.c ****             crc = (crc << 1) ^ CRC_POLY;
 740               		.loc 1 27 0
 741 02da 8924      		eor r8,r9
 742               	.LVL66:
 743 02dc 00C0      		rjmp .L84
 744               	.LVL67:
 745               	.L81:
 746 02de 990F      		lsl r25
 747               	.LVL68:
 748 02e0 9925      		eor r25,r9
 749               	.LVL69:
 750 02e2 00C0      		rjmp .L82
 751               	.LVL70:
 752               	.L79:
 753 02e4 990F      		lsl r25
 754               	.LVL71:
 755 02e6 9925      		eor r25,r9
 756               	.LVL72:
 757 02e8 00C0      		rjmp .L80
 758               	.LVL73:
 759               	.L77:
 760 02ea 990F      		lsl r25
 761               	.LVL74:
 762 02ec 9925      		eor r25,r9
 763               	.LVL75:
 764 02ee 00C0      		rjmp .L78
 765               	.LVL76:
 766               	.L75:
 767 02f0 990F      		lsl r25
 768               	.LVL77:
 769 02f2 9925      		eor r25,r9
 770               	.LVL78:
 771 02f4 00C0      		rjmp .L76
 772               	.LVL79:
 773               	.L73:
 774 02f6 990F      		lsl r25
 775               	.LVL80:
 776 02f8 9925      		eor r25,r9
 777               	.LVL81:
 778 02fa 00C0      		rjmp .L74
 779               	.LVL82:
 780               	.L71:
 781 02fc 990F      		lsl r25
 782               	.LVL83:
 783 02fe 9925      		eor r25,r9
 784               	.LVL84:
 785 0300 00C0      		rjmp .L72
 786               	.LVL85:
 787               	.L69:
 788 0302 990F      		lsl r25
 789               	.LVL86:
 790 0304 9925      		eor r25,r9
 791               	.LVL87:
 792 0306 00C0      		rjmp .L70
 793               	.LVL88:
 794               	.L89:
 795               	.LBE28:
 796               	.LBE36:
 168:/home/pthalamy/CMU/bench/benchmark/build/src-bobby/hw-block/hwDataLink.c ****         push(ESCAPE, &(port[p].tx));
 797               		.loc 1 168 0
 798 0308 B201      		movw r22,r4
 799 030a 8DE7      		ldi r24,lo8(125)
 800 030c 0E94 0000 		call push
 801               	.LVL89:
 169:/home/pthalamy/CMU/bench/benchmark/build/src-bobby/hw-block/hwDataLink.c ****         push(checksum^ESCAPE_CHAR, &(port[p].tx));
 802               		.loc 1 169 0
 803 0310 B201      		movw r22,r4
 804 0312 80E2      		ldi r24,lo8(32)
 805 0314 8825      		eor r24,r8
 806 0316 0E94 0000 		call push
 807               	.LVL90:
 808               	.L93:
 175:/home/pthalamy/CMU/bench/benchmark/build/src-bobby/hw-block/hwDataLink.c ****     }
 176:/home/pthalamy/CMU/bench/benchmark/build/src-bobby/hw-block/hwDataLink.c ****     
 177:/home/pthalamy/CMU/bench/benchmark/build/src-bobby/hw-block/hwDataLink.c ****     // start the interrupt by sending a byte (FD)
 178:/home/pthalamy/CMU/bench/benchmark/build/src-bobby/hw-block/hwDataLink.c ****     pPutChar(delim, port[p].pnum);
 809               		.loc 1 178 0
 810 031a 88E5      		ldi r24,lo8(88)
 811 031c 8C9D      		mul r24,r12
 812 031e F001      		movw r30,r0
 813 0320 8D9D      		mul r24,r13
 814 0322 F00D      		add r31,r0
 815 0324 1124      		clr __zero_reg__
 816 0326 E050      		subi r30,lo8(-(port))
 817 0328 F040      		sbci r31,hi8(-(port))
 818 032a 6081      		ld r22,Z
 819 032c 8B2D      		mov r24,r11
 820               	/* epilogue start */
 179:/home/pthalamy/CMU/bench/benchmark/build/src-bobby/hw-block/hwDataLink.c **** }
 821               		.loc 1 179 0
 822 032e 0F90      		pop __tmp_reg__
 823 0330 DF91      		pop r29
 824 0332 CF91      		pop r28
 825 0334 1F91      		pop r17
 826               	.LVL91:
 827 0336 0F91      		pop r16
 828 0338 FF90      		pop r15
 829 033a EF90      		pop r14
 830 033c DF90      		pop r13
 831 033e CF90      		pop r12
 832               	.LVL92:
 833 0340 BF90      		pop r11
 834               	.LVL93:
 835 0342 AF90      		pop r10
 836 0344 9F90      		pop r9
 837 0346 8F90      		pop r8
 838               	.LVL94:
 839 0348 7F90      		pop r7
 840 034a 6F90      		pop r6
 841 034c 5F90      		pop r5
 842 034e 4F90      		pop r4
 178:/home/pthalamy/CMU/bench/benchmark/build/src-bobby/hw-block/hwDataLink.c ****     pPutChar(delim, port[p].pnum);
 843               		.loc 1 178 0
 844 0350 0C94 0000 		jmp pPutChar
 845               	.LVL95:
 846               	.L63:
 847               	.LBB37:
 848               	.LBB21:
  27:/home/pthalamy/CMU/bench/benchmark/build/src-bobby/hw-block/hwDataLink.c ****             crc = (crc << 1) ^ CRC_POLY;
 849               		.loc 1 27 0
 850 0354 8924      		eor r8,r9
 851               	.LVL96:
 852 0356 00C0      		rjmp .L64
 853               	.LVL97:
 854               	.L61:
 855 0358 990F      		lsl r25
 856               	.LVL98:
 857 035a 9925      		eor r25,r9
 858               	.LVL99:
 859 035c 00C0      		rjmp .L62
 860               	.LVL100:
 861               	.L51:
 862 035e 990F      		lsl r25
 863               	.LVL101:
 864 0360 9925      		eor r25,r9
 865               	.LVL102:
  26:/home/pthalamy/CMU/bench/benchmark/build/src-bobby/hw-block/hwDataLink.c ****         if (0x80 & crc) {
 866               		.loc 1 26 0
 867 0362 97FF      		sbrs r25,7
 868 0364 00C0      		rjmp .L126
 869               	.L53:
  27:/home/pthalamy/CMU/bench/benchmark/build/src-bobby/hw-block/hwDataLink.c ****             crc = (crc << 1) ^ CRC_POLY;
 870               		.loc 1 27 0
 871 0366 990F      		lsl r25
 872               	.LVL103:
 873 0368 9925      		eor r25,r9
 874               	.LVL104:
  26:/home/pthalamy/CMU/bench/benchmark/build/src-bobby/hw-block/hwDataLink.c ****         if (0x80 & crc) {
 875               		.loc 1 26 0
 876 036a 97FF      		sbrs r25,7
 877 036c 00C0      		rjmp .L127
 878               	.L55:
  27:/home/pthalamy/CMU/bench/benchmark/build/src-bobby/hw-block/hwDataLink.c ****             crc = (crc << 1) ^ CRC_POLY;
 879               		.loc 1 27 0
 880 036e 990F      		lsl r25
 881               	.LVL105:
 882 0370 9925      		eor r25,r9
 883               	.LVL106:
  26:/home/pthalamy/CMU/bench/benchmark/build/src-bobby/hw-block/hwDataLink.c ****         if (0x80 & crc) {
 884               		.loc 1 26 0
 885 0372 97FF      		sbrs r25,7
 886 0374 00C0      		rjmp .L128
 887               	.L57:
  27:/home/pthalamy/CMU/bench/benchmark/build/src-bobby/hw-block/hwDataLink.c ****             crc = (crc << 1) ^ CRC_POLY;
 888               		.loc 1 27 0
 889 0376 990F      		lsl r25
 890               	.LVL107:
 891 0378 9925      		eor r25,r9
 892               	.LVL108:
  26:/home/pthalamy/CMU/bench/benchmark/build/src-bobby/hw-block/hwDataLink.c ****         if (0x80 & crc) {
 893               		.loc 1 26 0
 894 037a 97FF      		sbrs r25,7
 895 037c 00C0      		rjmp .L129
 896               	.L59:
  27:/home/pthalamy/CMU/bench/benchmark/build/src-bobby/hw-block/hwDataLink.c ****             crc = (crc << 1) ^ CRC_POLY;
 897               		.loc 1 27 0
 898 037e 990F      		lsl r25
 899               	.LVL109:
 900 0380 9925      		eor r25,r9
 901               	.LVL110:
 902 0382 00C0      		rjmp .L60
 903               	.LVL111:
 904               	.L49:
 905 0384 990F      		lsl r25
 906               	.LVL112:
 907 0386 9925      		eor r25,r9
 908               	.LVL113:
 909 0388 00C0      		rjmp .L50
 910               	.LVL114:
 911               	.L47:
 912               	/* epilogue start */
 913               	.LBE21:
 914               	.LBE37:
 915               		.loc 1 179 0
 916 038a 0F90      		pop __tmp_reg__
 917 038c DF91      		pop r29
 918 038e CF91      		pop r28
 919 0390 1F91      		pop r17
 920 0392 0F91      		pop r16
 921               	.LVL115:
 922 0394 FF90      		pop r15
 923 0396 EF90      		pop r14
 924 0398 DF90      		pop r13
 925 039a CF90      		pop r12
 926 039c BF90      		pop r11
 927 039e AF90      		pop r10
 928 03a0 9F90      		pop r9
 929 03a2 8F90      		pop r8
 930 03a4 7F90      		pop r7
 931 03a6 6F90      		pop r6
 932 03a8 5F90      		pop r5
 933 03aa 4F90      		pop r4
 934 03ac 0895      		ret
 935               		.cfi_endproc
 936               	.LFE10:
 938               	.global	processBuffer
 940               	processBuffer:
 941               	.LFB11:
 180:/home/pthalamy/CMU/bench/benchmark/build/src-bobby/hw-block/hwDataLink.c **** 
 181:/home/pthalamy/CMU/bench/benchmark/build/src-bobby/hw-block/hwDataLink.c **** 
 182:/home/pthalamy/CMU/bench/benchmark/build/src-bobby/hw-block/hwDataLink.c **** // pulls bytes from the buffer and puts them into Chunks
 183:/home/pthalamy/CMU/bench/benchmark/build/src-bobby/hw-block/hwDataLink.c **** // also handles ACKs appropriately
 184:/home/pthalamy/CMU/bench/benchmark/build/src-bobby/hw-block/hwDataLink.c **** void processBuffer(PRef p)
 185:/home/pthalamy/CMU/bench/benchmark/build/src-bobby/hw-block/hwDataLink.c **** {
 942               		.loc 1 185 0
 943               		.cfi_startproc
 944               	.LVL116:
 945 03ae 2F92      		push r2
 946               	.LCFI22:
 947               		.cfi_def_cfa_offset 4
 948               		.cfi_offset 2, -3
 949 03b0 3F92      		push r3
 950               	.LCFI23:
 951               		.cfi_def_cfa_offset 5
 952               		.cfi_offset 3, -4
 953 03b2 4F92      		push r4
 954               	.LCFI24:
 955               		.cfi_def_cfa_offset 6
 956               		.cfi_offset 4, -5
 957 03b4 5F92      		push r5
 958               	.LCFI25:
 959               		.cfi_def_cfa_offset 7
 960               		.cfi_offset 5, -6
 961 03b6 6F92      		push r6
 962               	.LCFI26:
 963               		.cfi_def_cfa_offset 8
 964               		.cfi_offset 6, -7
 965 03b8 7F92      		push r7
 966               	.LCFI27:
 967               		.cfi_def_cfa_offset 9
 968               		.cfi_offset 7, -8
 969 03ba 8F92      		push r8
 970               	.LCFI28:
 971               		.cfi_def_cfa_offset 10
 972               		.cfi_offset 8, -9
 973 03bc 9F92      		push r9
 974               	.LCFI29:
 975               		.cfi_def_cfa_offset 11
 976               		.cfi_offset 9, -10
 977 03be AF92      		push r10
 978               	.LCFI30:
 979               		.cfi_def_cfa_offset 12
 980               		.cfi_offset 10, -11
 981 03c0 BF92      		push r11
 982               	.LCFI31:
 983               		.cfi_def_cfa_offset 13
 984               		.cfi_offset 11, -12
 985 03c2 CF92      		push r12
 986               	.LCFI32:
 987               		.cfi_def_cfa_offset 14
 988               		.cfi_offset 12, -13
 989 03c4 DF92      		push r13
 990               	.LCFI33:
 991               		.cfi_def_cfa_offset 15
 992               		.cfi_offset 13, -14
 993 03c6 EF92      		push r14
 994               	.LCFI34:
 995               		.cfi_def_cfa_offset 16
 996               		.cfi_offset 14, -15
 997 03c8 FF92      		push r15
 998               	.LCFI35:
 999               		.cfi_def_cfa_offset 17
 1000               		.cfi_offset 15, -16
 1001 03ca 0F93      		push r16
 1002               	.LCFI36:
 1003               		.cfi_def_cfa_offset 18
 1004               		.cfi_offset 16, -17
 1005 03cc 1F93      		push r17
 1006               	.LCFI37:
 1007               		.cfi_def_cfa_offset 19
 1008               		.cfi_offset 17, -18
 1009 03ce CF93      		push r28
 1010               	.LCFI38:
 1011               		.cfi_def_cfa_offset 20
 1012               		.cfi_offset 28, -19
 1013 03d0 DF93      		push r29
 1014               	.LCFI39:
 1015               		.cfi_def_cfa_offset 21
 1016               		.cfi_offset 29, -20
 1017 03d2 CDB7      		in r28,__SP_L__
 1018 03d4 DEB7      		in r29,__SP_H__
 1019               	.LCFI40:
 1020               		.cfi_def_cfa_register 28
 1021 03d6 2C97      		sbiw r28,12
 1022               	.LCFI41:
 1023               		.cfi_def_cfa_offset 33
 1024 03d8 CDBF      		out __SP_L__,r28
 1025 03da DEBF      		out __SP_H__,r29
 1026               	/* prologue: function */
 1027               	/* frame size = 12 */
 1028               	/* stack size = 30 */
 1029               	.L__stack_usage = 30
 1030 03dc 8B83      		std Y+3,r24
 1031               	.LVL117:
 186:/home/pthalamy/CMU/bench/benchmark/build/src-bobby/hw-block/hwDataLink.c ****     byte   currByte;
 187:/home/pthalamy/CMU/bench/benchmark/build/src-bobby/hw-block/hwDataLink.c ****     Chunk* currChunk = NULL;
 188:/home/pthalamy/CMU/bench/benchmark/build/src-bobby/hw-block/hwDataLink.c ****     byte   wasEscape = wasEscapeStore[p];
 1032               		.loc 1 188 0
 1033 03de 082F      		mov r16,r24
 1034 03e0 10E0      		ldi r17,0
 1035 03e2 9801      		movw r18,r16
 1036 03e4 2050      		subi r18,lo8(-(wasEscapeStore))
 1037 03e6 3040      		sbci r19,hi8(-(wasEscapeStore))
 1038 03e8 2983      		std Y+1,r18
 1039 03ea 3A83      		std Y+2,r19
 1040 03ec F901      		movw r30,r18
 1041 03ee 5080      		ld r5,Z
 1042               	.LVL118:
 189:/home/pthalamy/CMU/bench/benchmark/build/src-bobby/hw-block/hwDataLink.c **** 
 190:/home/pthalamy/CMU/bench/benchmark/build/src-bobby/hw-block/hwDataLink.c **** 
 191:/home/pthalamy/CMU/bench/benchmark/build/src-bobby/hw-block/hwDataLink.c ****     // nothing to process
 192:/home/pthalamy/CMU/bench/benchmark/build/src-bobby/hw-block/hwDataLink.c ****     if( isEmpty(&(port[p].rx)) )
 1043               		.loc 1 192 0
 1044 03f0 88E5      		ldi r24,lo8(88)
 1045               	.LVL119:
 1046 03f2 809F      		mul r24,r16
 1047 03f4 7001      		movw r14,r0
 1048 03f6 819F      		mul r24,r17
 1049 03f8 F00C      		add r15,r0
 1050 03fa 1124      		clr __zero_reg__
 1051 03fc 9701      		movw r18,r14
 1052 03fe 2050      		subi r18,lo8(-(port+24))
 1053 0400 3040      		sbci r19,hi8(-(port+24))
 1054 0402 4901      		movw r8,r18
 1055 0404 C901      		movw r24,r18
 1056 0406 0E94 0000 		call isEmpty
 1057               	.LVL120:
 1058 040a 8111      		cpse r24,__zero_reg__
 1059 040c 00C0      		rjmp .L130
 193:/home/pthalamy/CMU/bench/benchmark/build/src-bobby/hw-block/hwDataLink.c ****     {
 194:/home/pthalamy/CMU/bench/benchmark/build/src-bobby/hw-block/hwDataLink.c ****         return;
 195:/home/pthalamy/CMU/bench/benchmark/build/src-bobby/hw-block/hwDataLink.c ****     }
 196:/home/pthalamy/CMU/bench/benchmark/build/src-bobby/hw-block/hwDataLink.c **** 
 197:/home/pthalamy/CMU/bench/benchmark/build/src-bobby/hw-block/hwDataLink.c ****     // continue filling unfinished Chunk
 198:/home/pthalamy/CMU/bench/benchmark/build/src-bobby/hw-block/hwDataLink.c ****     if( (port[p].rq.curr != NULL) && chunkFilling(port[p].rq.curr) ) 
 1060               		.loc 1 198 0
 1061 040e F701      		movw r30,r14
 1062 0410 E050      		subi r30,lo8(-(port))
 1063 0412 F040      		sbci r31,hi8(-(port))
 1064 0414 4689      		ldd r20,Z+22
 1065 0416 5789      		ldd r21,Z+23
 1066 0418 4115      		cp r20,__zero_reg__
 1067 041a 5105      		cpc r21,__zero_reg__
 1068 041c 01F4      		brne .+2
 1069 041e 00C0      		rjmp .L132
 1070               		.loc 1 198 0 is_stmt 0 discriminator 1
 1071 0420 FA01      		movw r30,r20
 1072 0422 8189      		ldd r24,Z+17
 1073 0424 86FF      		sbrs r24,6
 1074 0426 00C0      		rjmp .L132
 1075               	.LVL121:
 1076               	.L133:
 199:/home/pthalamy/CMU/bench/benchmark/build/src-bobby/hw-block/hwDataLink.c ****     {
 200:/home/pthalamy/CMU/bench/benchmark/build/src-bobby/hw-block/hwDataLink.c ****         currChunk = port[p].rq.curr;
 201:/home/pthalamy/CMU/bench/benchmark/build/src-bobby/hw-block/hwDataLink.c ****     }
 202:/home/pthalamy/CMU/bench/benchmark/build/src-bobby/hw-block/hwDataLink.c ****     else
 203:/home/pthalamy/CMU/bench/benchmark/build/src-bobby/hw-block/hwDataLink.c ****     {
 204:/home/pthalamy/CMU/bench/benchmark/build/src-bobby/hw-block/hwDataLink.c ****         port[p].rq.index    = 0;
 205:/home/pthalamy/CMU/bench/benchmark/build/src-bobby/hw-block/hwDataLink.c ****         port[p].rq.checksum = 0;
 206:/home/pthalamy/CMU/bench/benchmark/build/src-bobby/hw-block/hwDataLink.c ****         wasEscape           = 0;
 207:/home/pthalamy/CMU/bench/benchmark/build/src-bobby/hw-block/hwDataLink.c ****     }
 208:/home/pthalamy/CMU/bench/benchmark/build/src-bobby/hw-block/hwDataLink.c ****                 
 209:/home/pthalamy/CMU/bench/benchmark/build/src-bobby/hw-block/hwDataLink.c ****     while( !isEmpty(&(port[p].rx)) )
 210:/home/pthalamy/CMU/bench/benchmark/build/src-bobby/hw-block/hwDataLink.c ****     {
 211:/home/pthalamy/CMU/bench/benchmark/build/src-bobby/hw-block/hwDataLink.c ****         currByte = (byte)pop(&(port[p].rx));
 212:/home/pthalamy/CMU/bench/benchmark/build/src-bobby/hw-block/hwDataLink.c ****         
 213:/home/pthalamy/CMU/bench/benchmark/build/src-bobby/hw-block/hwDataLink.c ****         // is ACK
 214:/home/pthalamy/CMU/bench/benchmark/build/src-bobby/hw-block/hwDataLink.c ****         if( (currByte & ACK_MASK) == ACK )
 215:/home/pthalamy/CMU/bench/benchmark/build/src-bobby/hw-block/hwDataLink.c ****         {
 216:/home/pthalamy/CMU/bench/benchmark/build/src-bobby/hw-block/hwDataLink.c ****             // set ack parity
 217:/home/pthalamy/CMU/bench/benchmark/build/src-bobby/hw-block/hwDataLink.c ****             port[p].rq.flags |= (1 << (currByte & 0x01));
 218:/home/pthalamy/CMU/bench/benchmark/build/src-bobby/hw-block/hwDataLink.c ****         
 219:/home/pthalamy/CMU/bench/benchmark/build/src-bobby/hw-block/hwDataLink.c ****             ackHandler(p);
 220:/home/pthalamy/CMU/bench/benchmark/build/src-bobby/hw-block/hwDataLink.c ****             continue;
 221:/home/pthalamy/CMU/bench/benchmark/build/src-bobby/hw-block/hwDataLink.c ****         }
 222:/home/pthalamy/CMU/bench/benchmark/build/src-bobby/hw-block/hwDataLink.c ****         
 223:/home/pthalamy/CMU/bench/benchmark/build/src-bobby/hw-block/hwDataLink.c ****         /// TODO: HANDLE NACKS
 224:/home/pthalamy/CMU/bench/benchmark/build/src-bobby/hw-block/hwDataLink.c ****         /*if( (currByte & ACK_MASK) == NACK ){
 225:/home/pthalamy/CMU/bench/benchmark/build/src-bobby/hw-block/hwDataLink.c **** 	        //set ack parity
 226:/home/pthalamy/CMU/bench/benchmark/build/src-bobby/hw-block/hwDataLink.c **** 	        //port[p].rq.flags |= (1<<(currByte & 0x01));
 227:/home/pthalamy/CMU/bench/benchmark/build/src-bobby/hw-block/hwDataLink.c **** 	        
 228:/home/pthalamy/CMU/bench/benchmark/build/src-bobby/hw-block/hwDataLink.c **** 	        nackHandler(p);
 229:/home/pthalamy/CMU/bench/benchmark/build/src-bobby/hw-block/hwDataLink.c **** 	        continue;
 230:/home/pthalamy/CMU/bench/benchmark/build/src-bobby/hw-block/hwDataLink.c **** 	        }*/
 231:/home/pthalamy/CMU/bench/benchmark/build/src-bobby/hw-block/hwDataLink.c ****         
 232:/home/pthalamy/CMU/bench/benchmark/build/src-bobby/hw-block/hwDataLink.c ****         // is FRAME_DELIMETER
 233:/home/pthalamy/CMU/bench/benchmark/build/src-bobby/hw-block/hwDataLink.c ****         if( (currByte & FD_MASK) == FD )
 234:/home/pthalamy/CMU/bench/benchmark/build/src-bobby/hw-block/hwDataLink.c ****         {
 235:/home/pthalamy/CMU/bench/benchmark/build/src-bobby/hw-block/hwDataLink.c ****             // determine parity
 236:/home/pthalamy/CMU/bench/benchmark/build/src-bobby/hw-block/hwDataLink.c ****             byte parity = setParityFromByte(currByte);
 237:/home/pthalamy/CMU/bench/benchmark/build/src-bobby/hw-block/hwDataLink.c ****         
 238:/home/pthalamy/CMU/bench/benchmark/build/src-bobby/hw-block/hwDataLink.c ****             // restart the fill
 239:/home/pthalamy/CMU/bench/benchmark/build/src-bobby/hw-block/hwDataLink.c ****             port[p].rq.index    = 0;
 240:/home/pthalamy/CMU/bench/benchmark/build/src-bobby/hw-block/hwDataLink.c ****             port[p].rq.checksum = 0;
 241:/home/pthalamy/CMU/bench/benchmark/build/src-bobby/hw-block/hwDataLink.c ****             wasEscape           = 0;
 242:/home/pthalamy/CMU/bench/benchmark/build/src-bobby/hw-block/hwDataLink.c ****                 
 243:/home/pthalamy/CMU/bench/benchmark/build/src-bobby/hw-block/hwDataLink.c ****             // unfinished Chunk
 244:/home/pthalamy/CMU/bench/benchmark/build/src-bobby/hw-block/hwDataLink.c ****             if(port[p].rq.curr != NULL)
 245:/home/pthalamy/CMU/bench/benchmark/build/src-bobby/hw-block/hwDataLink.c ****             {
 246:/home/pthalamy/CMU/bench/benchmark/build/src-bobby/hw-block/hwDataLink.c ****                 currChunk = port[p].rq.curr;
 247:/home/pthalamy/CMU/bench/benchmark/build/src-bobby/hw-block/hwDataLink.c ****             }
 248:/home/pthalamy/CMU/bench/benchmark/build/src-bobby/hw-block/hwDataLink.c ****             // need new Chunk
 249:/home/pthalamy/CMU/bench/benchmark/build/src-bobby/hw-block/hwDataLink.c ****             else
 250:/home/pthalamy/CMU/bench/benchmark/build/src-bobby/hw-block/hwDataLink.c ****             {
 251:/home/pthalamy/CMU/bench/benchmark/build/src-bobby/hw-block/hwDataLink.c ****                 currChunk = getSystemRXChunk();
 252:/home/pthalamy/CMU/bench/benchmark/build/src-bobby/hw-block/hwDataLink.c ****                 
 253:/home/pthalamy/CMU/bench/benchmark/build/src-bobby/hw-block/hwDataLink.c ****                 // out of memory, can't fill
 254:/home/pthalamy/CMU/bench/benchmark/build/src-bobby/hw-block/hwDataLink.c ****                 if( currChunk == NULL )
 255:/home/pthalamy/CMU/bench/benchmark/build/src-bobby/hw-block/hwDataLink.c ****                 {
 256:/home/pthalamy/CMU/bench/benchmark/build/src-bobby/hw-block/hwDataLink.c ****                     // discard bytes, hopefully will get resent
 257:/home/pthalamy/CMU/bench/benchmark/build/src-bobby/hw-block/hwDataLink.c ****                     continue;
 258:/home/pthalamy/CMU/bench/benchmark/build/src-bobby/hw-block/hwDataLink.c ****                 }
 259:/home/pthalamy/CMU/bench/benchmark/build/src-bobby/hw-block/hwDataLink.c ****                 
 260:/home/pthalamy/CMU/bench/benchmark/build/src-bobby/hw-block/hwDataLink.c ****                 // add to the queue
 261:/home/pthalamy/CMU/bench/benchmark/build/src-bobby/hw-block/hwDataLink.c ****                 port[p].rq.curr = currChunk;
 262:/home/pthalamy/CMU/bench/benchmark/build/src-bobby/hw-block/hwDataLink.c ****             }
 263:/home/pthalamy/CMU/bench/benchmark/build/src-bobby/hw-block/hwDataLink.c ****             
 264:/home/pthalamy/CMU/bench/benchmark/build/src-bobby/hw-block/hwDataLink.c ****             // reset the status of the Chunk, just in case
 265:/home/pthalamy/CMU/bench/benchmark/build/src-bobby/hw-block/hwDataLink.c ****             currChunk->status = CHUNK_USED | CHUNK_FILLING | parity | port[p].pnum;
 266:/home/pthalamy/CMU/bench/benchmark/build/src-bobby/hw-block/hwDataLink.c ****             
 267:/home/pthalamy/CMU/bench/benchmark/build/src-bobby/hw-block/hwDataLink.c ****             continue;
 268:/home/pthalamy/CMU/bench/benchmark/build/src-bobby/hw-block/hwDataLink.c ****         }
 269:/home/pthalamy/CMU/bench/benchmark/build/src-bobby/hw-block/hwDataLink.c ****         
 270:/home/pthalamy/CMU/bench/benchmark/build/src-bobby/hw-block/hwDataLink.c ****         // no use processing if can't put anywhere
 271:/home/pthalamy/CMU/bench/benchmark/build/src-bobby/hw-block/hwDataLink.c ****         if(currChunk == NULL)
 272:/home/pthalamy/CMU/bench/benchmark/build/src-bobby/hw-block/hwDataLink.c ****         {
 273:/home/pthalamy/CMU/bench/benchmark/build/src-bobby/hw-block/hwDataLink.c ****             continue;
 274:/home/pthalamy/CMU/bench/benchmark/build/src-bobby/hw-block/hwDataLink.c ****         }
 275:/home/pthalamy/CMU/bench/benchmark/build/src-bobby/hw-block/hwDataLink.c ****         
 276:/home/pthalamy/CMU/bench/benchmark/build/src-bobby/hw-block/hwDataLink.c ****         // is an escape char        
 277:/home/pthalamy/CMU/bench/benchmark/build/src-bobby/hw-block/hwDataLink.c ****         if( currByte == ESCAPE )
 278:/home/pthalamy/CMU/bench/benchmark/build/src-bobby/hw-block/hwDataLink.c ****         {
 279:/home/pthalamy/CMU/bench/benchmark/build/src-bobby/hw-block/hwDataLink.c ****             wasEscape = 1;   
 280:/home/pthalamy/CMU/bench/benchmark/build/src-bobby/hw-block/hwDataLink.c ****             continue;
 281:/home/pthalamy/CMU/bench/benchmark/build/src-bobby/hw-block/hwDataLink.c ****         }
 282:/home/pthalamy/CMU/bench/benchmark/build/src-bobby/hw-block/hwDataLink.c **** 
 283:/home/pthalamy/CMU/bench/benchmark/build/src-bobby/hw-block/hwDataLink.c ****         // is a regular character
 284:/home/pthalamy/CMU/bench/benchmark/build/src-bobby/hw-block/hwDataLink.c ****         // was escaped
 285:/home/pthalamy/CMU/bench/benchmark/build/src-bobby/hw-block/hwDataLink.c ****         if( wasEscape )
 286:/home/pthalamy/CMU/bench/benchmark/build/src-bobby/hw-block/hwDataLink.c ****         {
 287:/home/pthalamy/CMU/bench/benchmark/build/src-bobby/hw-block/hwDataLink.c ****             currByte ^= ESCAPE_CHAR;
 288:/home/pthalamy/CMU/bench/benchmark/build/src-bobby/hw-block/hwDataLink.c ****             wasEscape = 0;
 289:/home/pthalamy/CMU/bench/benchmark/build/src-bobby/hw-block/hwDataLink.c ****         }
 290:/home/pthalamy/CMU/bench/benchmark/build/src-bobby/hw-block/hwDataLink.c **** 
 291:/home/pthalamy/CMU/bench/benchmark/build/src-bobby/hw-block/hwDataLink.c ****         // is transmitted checksum
 292:/home/pthalamy/CMU/bench/benchmark/build/src-bobby/hw-block/hwDataLink.c ****         if( port[p].rq.index >= (DATA_SIZE + POINTER_SIZE) )
 1077               		.loc 1 292 0 is_stmt 1 discriminator 1
 1078 0428 28E5      		ldi r18,lo8(88)
 1079 042a 209F      		mul r18,r16
 1080 042c C001      		movw r24,r0
 1081 042e 219F      		mul r18,r17
 1082 0430 900D      		add r25,r0
 1083 0432 1124      		clr __zero_reg__
 1084 0434 9C01      		movw r18,r24
 1085 0436 2050      		subi r18,lo8(-(port))
 1086 0438 3040      		sbci r19,hi8(-(port))
 1087 043a 6901      		movw r12,r18
 1088 043c 8901      		movw r16,r18
 1089               	.LVL122:
 1090 043e 0D5E      		subi r16,-19
 1091 0440 1F4F      		sbci r17,-1
 293:/home/pthalamy/CMU/bench/benchmark/build/src-bobby/hw-block/hwDataLink.c ****         {
 294:/home/pthalamy/CMU/bench/benchmark/build/src-bobby/hw-block/hwDataLink.c ****             // checksum matches!
 295:/home/pthalamy/CMU/bench/benchmark/build/src-bobby/hw-block/hwDataLink.c ****             if( currByte == port[p].rq.checksum )
 296:/home/pthalamy/CMU/bench/benchmark/build/src-bobby/hw-block/hwDataLink.c ****             {
 297:/home/pthalamy/CMU/bench/benchmark/build/src-bobby/hw-block/hwDataLink.c ****                 currChunk->status &= ~CHUNK_FILLING;
 298:/home/pthalamy/CMU/bench/benchmark/build/src-bobby/hw-block/hwDataLink.c ****                 port[p].rq.flags  |=  CHUNK_READY;
 299:/home/pthalamy/CMU/bench/benchmark/build/src-bobby/hw-block/hwDataLink.c **** 				
 300:/home/pthalamy/CMU/bench/benchmark/build/src-bobby/hw-block/hwDataLink.c ****                 // check for parity error
 301:/home/pthalamy/CMU/bench/benchmark/build/src-bobby/hw-block/hwDataLink.c ****                 byte parity = chunkParity(currChunk);
 302:/home/pthalamy/CMU/bench/benchmark/build/src-bobby/hw-block/hwDataLink.c ****                 byte last   = parityLastChunk(port[p].rq);
 303:/home/pthalamy/CMU/bench/benchmark/build/src-bobby/hw-block/hwDataLink.c **** 	      
 304:/home/pthalamy/CMU/bench/benchmark/build/src-bobby/hw-block/hwDataLink.c ****                 // not a duplicate packet		
 305:/home/pthalamy/CMU/bench/benchmark/build/src-bobby/hw-block/hwDataLink.c ****                 if(parity != last) {
 306:/home/pthalamy/CMU/bench/benchmark/build/src-bobby/hw-block/hwDataLink.c ****                     // update neighborhood (fix for race condition)
 307:/home/pthalamy/CMU/bench/benchmark/build/src-bobby/hw-block/hwDataLink.c ****                     //updateNeighbor(p, PRESENT);
 308:/home/pthalamy/CMU/bench/benchmark/build/src-bobby/hw-block/hwDataLink.c **** 		
 309:/home/pthalamy/CMU/bench/benchmark/build/src-bobby/hw-block/hwDataLink.c ****                     // add to global receive queue
 310:/home/pthalamy/CMU/bench/benchmark/build/src-bobby/hw-block/hwDataLink.c ****                     addToGlobalRq(currChunk);
 311:/home/pthalamy/CMU/bench/benchmark/build/src-bobby/hw-block/hwDataLink.c **** 		
 312:/home/pthalamy/CMU/bench/benchmark/build/src-bobby/hw-block/hwDataLink.c ****                     // flip the parity
 313:/home/pthalamy/CMU/bench/benchmark/build/src-bobby/hw-block/hwDataLink.c ****                     flipParityLast(port[p].rq);
 314:/home/pthalamy/CMU/bench/benchmark/build/src-bobby/hw-block/hwDataLink.c ****                 }
 315:/home/pthalamy/CMU/bench/benchmark/build/src-bobby/hw-block/hwDataLink.c ****                 // free the chunk
 316:/home/pthalamy/CMU/bench/benchmark/build/src-bobby/hw-block/hwDataLink.c ****                 else 
 317:/home/pthalamy/CMU/bench/benchmark/build/src-bobby/hw-block/hwDataLink.c ****                 {
 318:/home/pthalamy/CMU/bench/benchmark/build/src-bobby/hw-block/hwDataLink.c ****                     freeChunk(currChunk);
 319:/home/pthalamy/CMU/bench/benchmark/build/src-bobby/hw-block/hwDataLink.c ****                 }
 320:/home/pthalamy/CMU/bench/benchmark/build/src-bobby/hw-block/hwDataLink.c ****               
 321:/home/pthalamy/CMU/bench/benchmark/build/src-bobby/hw-block/hwDataLink.c ****                 // remove from the port rq
 322:/home/pthalamy/CMU/bench/benchmark/build/src-bobby/hw-block/hwDataLink.c ****                 port[p].rq.curr = NULL;
 323:/home/pthalamy/CMU/bench/benchmark/build/src-bobby/hw-block/hwDataLink.c ****             }
 324:/home/pthalamy/CMU/bench/benchmark/build/src-bobby/hw-block/hwDataLink.c ****             
 325:/home/pthalamy/CMU/bench/benchmark/build/src-bobby/hw-block/hwDataLink.c ****             // reset the data
 326:/home/pthalamy/CMU/bench/benchmark/build/src-bobby/hw-block/hwDataLink.c ****             port[p].rq.index    = 0;
 327:/home/pthalamy/CMU/bench/benchmark/build/src-bobby/hw-block/hwDataLink.c ****             port[p].rq.checksum = 0;
 328:/home/pthalamy/CMU/bench/benchmark/build/src-bobby/hw-block/hwDataLink.c ****             wasEscape           = 0;
 329:/home/pthalamy/CMU/bench/benchmark/build/src-bobby/hw-block/hwDataLink.c ****             currChunk           = NULL;
 330:/home/pthalamy/CMU/bench/benchmark/build/src-bobby/hw-block/hwDataLink.c **** 	    
 331:/home/pthalamy/CMU/bench/benchmark/build/src-bobby/hw-block/hwDataLink.c ****             /// TODO: send NACK
 332:/home/pthalamy/CMU/bench/benchmark/build/src-bobby/hw-block/hwDataLink.c ****             continue;
 333:/home/pthalamy/CMU/bench/benchmark/build/src-bobby/hw-block/hwDataLink.c ****         }
 334:/home/pthalamy/CMU/bench/benchmark/build/src-bobby/hw-block/hwDataLink.c **** 		
 335:/home/pthalamy/CMU/bench/benchmark/build/src-bobby/hw-block/hwDataLink.c ****         // message handler
 336:/home/pthalamy/CMU/bench/benchmark/build/src-bobby/hw-block/hwDataLink.c ****         if( port[p].rq.index < POINTER_SIZE )
 337:/home/pthalamy/CMU/bench/benchmark/build/src-bobby/hw-block/hwDataLink.c ****         {
 338:/home/pthalamy/CMU/bench/benchmark/build/src-bobby/hw-block/hwDataLink.c ****             currChunk->handler[port[p].rq.index] = currByte;
 339:/home/pthalamy/CMU/bench/benchmark/build/src-bobby/hw-block/hwDataLink.c ****         }
 340:/home/pthalamy/CMU/bench/benchmark/build/src-bobby/hw-block/hwDataLink.c ****         // regular byte
 341:/home/pthalamy/CMU/bench/benchmark/build/src-bobby/hw-block/hwDataLink.c ****         else
 342:/home/pthalamy/CMU/bench/benchmark/build/src-bobby/hw-block/hwDataLink.c ****         {
 343:/home/pthalamy/CMU/bench/benchmark/build/src-bobby/hw-block/hwDataLink.c ****             currChunk->data[port[p].rq.index-POINTER_SIZE] = currByte;
 344:/home/pthalamy/CMU/bench/benchmark/build/src-bobby/hw-block/hwDataLink.c ****         }
 345:/home/pthalamy/CMU/bench/benchmark/build/src-bobby/hw-block/hwDataLink.c **** 
 346:/home/pthalamy/CMU/bench/benchmark/build/src-bobby/hw-block/hwDataLink.c ****         port[p].rq.checksum = crcCalc(port[p].rq.checksum, currByte);
 1092               		.loc 1 346 0 discriminator 1
 1093 0442 7901      		movw r14,r18
 1094 0444 34E1      		ldi r19,20
 1095 0446 E30E      		add r14,r19
 1096 0448 F11C      		adc r15,__zero_reg__
 1097               	.LBB46:
 1098               	.LBB47:
  27:/home/pthalamy/CMU/bench/benchmark/build/src-bobby/hw-block/hwDataLink.c ****             crc = (crc << 1) ^ CRC_POLY;
 1099               		.loc 1 27 0 discriminator 1
 1100 044a 66EA      		ldi r22,lo8(-90)
 1101 044c 462E      		mov r4,r22
 1102               	.LBE47:
 1103               	.LBE46:
 1104               	.LBB50:
 298:/home/pthalamy/CMU/bench/benchmark/build/src-bobby/hw-block/hwDataLink.c ****                 port[p].rq.flags  |=  CHUNK_READY;
 1105               		.loc 1 298 0 discriminator 1
 1106 044e 5601      		movw r10,r12
 1107 0450 E5E1      		ldi r30,21
 1108 0452 AE0E      		add r10,r30
 1109 0454 B11C      		adc r11,__zero_reg__
 322:/home/pthalamy/CMU/bench/benchmark/build/src-bobby/hw-block/hwDataLink.c ****                 port[p].rq.curr = NULL;
 1110               		.loc 1 322 0 discriminator 1
 1111 0456 3601      		movw r6,r12
 1112 0458 F6E1      		ldi r31,22
 1113 045a 6F0E      		add r6,r31
 1114 045c 711C      		adc r7,__zero_reg__
 1115               	.LBE50:
 217:/home/pthalamy/CMU/bench/benchmark/build/src-bobby/hw-block/hwDataLink.c ****             port[p].rq.flags |= (1 << (currByte & 0x01));
 1116               		.loc 1 217 0 discriminator 1
 1117 045e 2224      		clr r2
 1118 0460 2394      		inc r2
 1119 0462 312C      		mov r3,__zero_reg__
 1120               	.LBB55:
 1121               	.LBB56:
  42:/home/pthalamy/CMU/bench/benchmark/build/src-bobby/hw-block/hwDataLink.c ****     byte currParity = sendParity(port[p].sq);
 1122               		.loc 1 42 0 discriminator 1
 1123 0464 9601      		movw r18,r12
 1124 0466 225F      		subi r18,-14
 1125 0468 3F4F      		sbci r19,-1
 1126 046a 2C83      		std Y+4,r18
 1127 046c 3D83      		std Y+5,r19
  60:/home/pthalamy/CMU/bench/benchmark/build/src-bobby/hw-block/hwDataLink.c ****         port[p].sq.retry    = NUM_RETRIES;
 1128               		.loc 1 60 0 discriminator 1
 1129 046e 9601      		movw r18,r12
 1130 0470 235F      		subi r18,-13
 1131 0472 3F4F      		sbci r19,-1
 1132 0474 2E83      		std Y+6,r18
 1133 0476 3F83      		std Y+7,r19
  65:/home/pthalamy/CMU/bench/benchmark/build/src-bobby/hw-block/hwDataLink.c ****         deregisterTimeout(&(port[p].sq.qtout.tout));
 1134               		.loc 1 65 0 discriminator 1
 1135 0478 9C01      		movw r18,r24
 1136 047a 2050      		subi r18,lo8(-(port+1))
 1137 047c 3040      		sbci r19,hi8(-(port+1))
 1138 047e 2887      		std Y+8,r18
 1139 0480 3987      		std Y+9,r19
 1140 0482 4B87      		std Y+11,r20
 1141 0484 5C87      		std Y+12,r21
 1142               	.LVL123:
 1143               	.L134:
 1144               	.LBE56:
 1145               	.LBE55:
 209:/home/pthalamy/CMU/bench/benchmark/build/src-bobby/hw-block/hwDataLink.c ****     while( !isEmpty(&(port[p].rx)) )
 1146               		.loc 1 209 0 discriminator 1
 1147 0486 C401      		movw r24,r8
 1148 0488 0E94 0000 		call isEmpty
 1149               	.LVL124:
 1150 048c 8111      		cpse r24,__zero_reg__
 1151 048e 00C0      		rjmp .L177
 1152               	.L165:
 211:/home/pthalamy/CMU/bench/benchmark/build/src-bobby/hw-block/hwDataLink.c ****         currByte = (byte)pop(&(port[p].rx));
 1153               		.loc 1 211 0
 1154 0490 C401      		movw r24,r8
 1155 0492 0E94 0000 		call pop
 1156               	.LVL125:
 1157 0496 482F      		mov r20,r24
 1158               	.LVL126:
 214:/home/pthalamy/CMU/bench/benchmark/build/src-bobby/hw-block/hwDataLink.c ****         if( (currByte & ACK_MASK) == ACK )
 1159               		.loc 1 214 0
 1160 0498 9C01      		movw r18,r24
 1161 049a 2E7F      		andi r18,254
 1162 049c 3327      		clr r19
 1163 049e 2830      		cpi r18,8
 1164 04a0 3105      		cpc r19,__zero_reg__
 1165 04a2 01F4      		brne .+2
 1166 04a4 00C0      		rjmp .L178
 233:/home/pthalamy/CMU/bench/benchmark/build/src-bobby/hw-block/hwDataLink.c ****         if( (currByte & FD_MASK) == FD )
 1167               		.loc 1 233 0
 1168 04a6 2231      		cpi r18,18
 1169 04a8 3105      		cpc r19,__zero_reg__
 1170 04aa 01F0      		breq .L179
 271:/home/pthalamy/CMU/bench/benchmark/build/src-bobby/hw-block/hwDataLink.c ****         if(currChunk == NULL)
 1171               		.loc 1 271 0
 1172 04ac 2B85      		ldd r18,Y+11
 1173 04ae 3C85      		ldd r19,Y+12
 1174 04b0 232B      		or r18,r19
 1175 04b2 01F0      		breq .L134
 277:/home/pthalamy/CMU/bench/benchmark/build/src-bobby/hw-block/hwDataLink.c ****         if( currByte == ESCAPE )
 1176               		.loc 1 277 0
 1177 04b4 8D37      		cpi r24,lo8(125)
 1178 04b6 01F4      		brne .+2
 1179 04b8 00C0      		rjmp .L167
 285:/home/pthalamy/CMU/bench/benchmark/build/src-bobby/hw-block/hwDataLink.c ****         if( wasEscape )
 1180               		.loc 1 285 0
 1181 04ba 5520      		tst r5
 1182 04bc 01F0      		breq .L140
 287:/home/pthalamy/CMU/bench/benchmark/build/src-bobby/hw-block/hwDataLink.c ****             currByte ^= ESCAPE_CHAR;
 1183               		.loc 1 287 0
 1184 04be 40E2      		ldi r20,lo8(32)
 1185 04c0 4827      		eor r20,r24
 1186               	.LVL127:
 1187               	.L140:
 292:/home/pthalamy/CMU/bench/benchmark/build/src-bobby/hw-block/hwDataLink.c ****         if( port[p].rq.index >= (DATA_SIZE + POINTER_SIZE) )
 1188               		.loc 1 292 0
 1189 04c2 F801      		movw r30,r16
 1190 04c4 8081      		ld r24,Z
 1191 04c6 8331      		cpi r24,lo8(19)
 1192 04c8 00F4      		brsh .+2
 1193 04ca 00C0      		rjmp .L141
 295:/home/pthalamy/CMU/bench/benchmark/build/src-bobby/hw-block/hwDataLink.c ****             if( currByte == port[p].rq.checksum )
 1194               		.loc 1 295 0
 1195 04cc F701      		movw r30,r14
 1196 04ce 8081      		ld r24,Z
 1197 04d0 8417      		cp r24,r20
 1198 04d2 01F4      		brne .+2
 1199 04d4 00C0      		rjmp .L180
 1200               	.LVL128:
 1201               	.L142:
 326:/home/pthalamy/CMU/bench/benchmark/build/src-bobby/hw-block/hwDataLink.c ****             port[p].rq.index    = 0;
 1202               		.loc 1 326 0
 1203 04d6 F801      		movw r30,r16
 1204 04d8 1082      		st Z,__zero_reg__
 327:/home/pthalamy/CMU/bench/benchmark/build/src-bobby/hw-block/hwDataLink.c ****             port[p].rq.checksum = 0;
 1205               		.loc 1 327 0
 1206 04da F701      		movw r30,r14
 1207 04dc 1082      		st Z,__zero_reg__
 1208               	.LVL129:
 328:/home/pthalamy/CMU/bench/benchmark/build/src-bobby/hw-block/hwDataLink.c ****             wasEscape           = 0;
 1209               		.loc 1 328 0
 1210 04de 512C      		mov r5,__zero_reg__
 329:/home/pthalamy/CMU/bench/benchmark/build/src-bobby/hw-block/hwDataLink.c ****             currChunk           = NULL;
 1211               		.loc 1 329 0
 1212 04e0 1B86      		std Y+11,__zero_reg__
 1213 04e2 1C86      		std Y+12,__zero_reg__
 1214               	.LVL130:
 209:/home/pthalamy/CMU/bench/benchmark/build/src-bobby/hw-block/hwDataLink.c ****     while( !isEmpty(&(port[p].rx)) )
 1215               		.loc 1 209 0
 1216 04e4 C401      		movw r24,r8
 1217 04e6 0E94 0000 		call isEmpty
 1218               	.LVL131:
 1219 04ea 8823      		tst r24
 1220 04ec 01F0      		breq .L165
 1221               	.L177:
 347:/home/pthalamy/CMU/bench/benchmark/build/src-bobby/hw-block/hwDataLink.c ****         port[p].rq.index++;
 348:/home/pthalamy/CMU/bench/benchmark/build/src-bobby/hw-block/hwDataLink.c ****     }
 349:/home/pthalamy/CMU/bench/benchmark/build/src-bobby/hw-block/hwDataLink.c ****     
 350:/home/pthalamy/CMU/bench/benchmark/build/src-bobby/hw-block/hwDataLink.c ****     // store wasEscape
 351:/home/pthalamy/CMU/bench/benchmark/build/src-bobby/hw-block/hwDataLink.c ****     wasEscapeStore[p] = wasEscape;
 1222               		.loc 1 351 0
 1223 04ee E981      		ldd r30,Y+1
 1224 04f0 FA81      		ldd r31,Y+2
 1225 04f2 5082      		st Z,r5
 1226               	.LVL132:
 1227               	.L130:
 1228               	/* epilogue start */
 352:/home/pthalamy/CMU/bench/benchmark/build/src-bobby/hw-block/hwDataLink.c **** }
 1229               		.loc 1 352 0
 1230 04f4 2C96      		adiw r28,12
 1231 04f6 CDBF      		out __SP_L__,r28
 1232 04f8 DEBF      		out __SP_H__,r29
 1233 04fa DF91      		pop r29
 1234 04fc CF91      		pop r28
 1235 04fe 1F91      		pop r17
 1236 0500 0F91      		pop r16
 1237 0502 FF90      		pop r15
 1238 0504 EF90      		pop r14
 1239 0506 DF90      		pop r13
 1240 0508 CF90      		pop r12
 1241 050a BF90      		pop r11
 1242 050c AF90      		pop r10
 1243 050e 9F90      		pop r9
 1244 0510 8F90      		pop r8
 1245 0512 7F90      		pop r7
 1246 0514 6F90      		pop r6
 1247 0516 5F90      		pop r5
 1248               	.LVL133:
 1249 0518 4F90      		pop r4
 1250 051a 3F90      		pop r3
 1251 051c 2F90      		pop r2
 1252 051e 0895      		ret
 1253               	.LVL134:
 1254               	.L179:
 1255               	.LBB58:
 236:/home/pthalamy/CMU/bench/benchmark/build/src-bobby/hw-block/hwDataLink.c ****             byte parity = setParityFromByte(currByte);
 1256               		.loc 1 236 0
 1257 0520 282F      		mov r18,r24
 1258 0522 2170      		andi r18,lo8(1)
 1259 0524 2295      		swap r18
 1260 0526 220F      		lsl r18
 1261 0528 207E      		andi r18,lo8(-32)
 1262               	.LVL135:
 239:/home/pthalamy/CMU/bench/benchmark/build/src-bobby/hw-block/hwDataLink.c ****             port[p].rq.index    = 0;
 1263               		.loc 1 239 0
 1264 052a F801      		movw r30,r16
 1265 052c 1082      		st Z,__zero_reg__
 240:/home/pthalamy/CMU/bench/benchmark/build/src-bobby/hw-block/hwDataLink.c ****             port[p].rq.checksum = 0;
 1266               		.loc 1 240 0
 1267 052e F701      		movw r30,r14
 1268 0530 1082      		st Z,__zero_reg__
 1269               	.LVL136:
 244:/home/pthalamy/CMU/bench/benchmark/build/src-bobby/hw-block/hwDataLink.c ****             if(port[p].rq.curr != NULL)
 1270               		.loc 1 244 0
 1271 0532 F301      		movw r30,r6
 1272 0534 0190      		ld __tmp_reg__,Z+
 1273 0536 F081      		ld r31,Z
 1274 0538 E02D      		mov r30,__tmp_reg__
 1275 053a EB87      		std Y+11,r30
 1276 053c FC87      		std Y+12,r31
 1277 053e EF2B      		or r30,r31
 1278 0540 01F4      		brne .+2
 1279 0542 00C0      		rjmp .L181
 1280               	.LVL137:
 1281               	.L139:
 265:/home/pthalamy/CMU/bench/benchmark/build/src-bobby/hw-block/hwDataLink.c ****             currChunk->status = CHUNK_USED | CHUNK_FILLING | parity | port[p].pnum;
 1282               		.loc 1 265 0
 1283 0544 F601      		movw r30,r12
 1284 0546 9081      		ld r25,Z
 1285 0548 906C      		ori r25,lo8(-64)
 1286 054a 922B      		or r25,r18
 1287 054c EB85      		ldd r30,Y+11
 1288 054e FC85      		ldd r31,Y+12
 1289 0550 918B      		std Z+17,r25
 241:/home/pthalamy/CMU/bench/benchmark/build/src-bobby/hw-block/hwDataLink.c ****             wasEscape           = 0;
 1290               		.loc 1 241 0
 1291 0552 512C      		mov r5,__zero_reg__
 267:/home/pthalamy/CMU/bench/benchmark/build/src-bobby/hw-block/hwDataLink.c ****             continue;
 1292               		.loc 1 267 0
 1293 0554 00C0      		rjmp .L134
 1294               	.LVL138:
 1295               	.L141:
 1296               	.LBE58:
 338:/home/pthalamy/CMU/bench/benchmark/build/src-bobby/hw-block/hwDataLink.c ****             currChunk->handler[port[p].rq.index] = currByte;
 1297               		.loc 1 338 0
 1298 0556 EB85      		ldd r30,Y+11
 1299 0558 FC85      		ldd r31,Y+12
 1300 055a E80F      		add r30,r24
 1301 055c F11D      		adc r31,__zero_reg__
 336:/home/pthalamy/CMU/bench/benchmark/build/src-bobby/hw-block/hwDataLink.c ****         if( port[p].rq.index < POINTER_SIZE )
 1302               		.loc 1 336 0
 1303 055e 8230      		cpi r24,lo8(2)
 1304 0560 00F4      		brsh .+2
 1305 0562 00C0      		rjmp .L182
 343:/home/pthalamy/CMU/bench/benchmark/build/src-bobby/hw-block/hwDataLink.c ****             currChunk->data[port[p].rq.index-POINTER_SIZE] = currByte;
 1306               		.loc 1 343 0
 1307 0564 3297      		sbiw r30,2
 1308 0566 4083      		st Z,r20
 1309               	.L148:
 1310               	.LVL139:
 1311               	.LBB59:
 1312               	.LBB48:
  23:/home/pthalamy/CMU/bench/benchmark/build/src-bobby/hw-block/hwDataLink.c **** 	crc ^= newVal;
 1313               		.loc 1 23 0
 1314 0568 F701      		movw r30,r14
 1315 056a 8081      		ld r24,Z
 1316 056c 8427      		eor r24,r20
 1317               	.LVL140:
  26:/home/pthalamy/CMU/bench/benchmark/build/src-bobby/hw-block/hwDataLink.c ****         if (0x80 & crc) {
 1318               		.loc 1 26 0
 1319 056e 87FD      		sbrc r24,7
 1320 0570 00C0      		rjmp .L149
  30:/home/pthalamy/CMU/bench/benchmark/build/src-bobby/hw-block/hwDataLink.c ****             crc = crc << 1;
 1321               		.loc 1 30 0
 1322 0572 880F      		lsl r24
 1323               	.LVL141:
  26:/home/pthalamy/CMU/bench/benchmark/build/src-bobby/hw-block/hwDataLink.c ****         if (0x80 & crc) {
 1324               		.loc 1 26 0
 1325 0574 87FD      		sbrc r24,7
 1326 0576 00C0      		rjmp .L151
 1327               	.L185:
  30:/home/pthalamy/CMU/bench/benchmark/build/src-bobby/hw-block/hwDataLink.c ****             crc = crc << 1;
 1328               		.loc 1 30 0
 1329 0578 880F      		lsl r24
 1330               	.LVL142:
  26:/home/pthalamy/CMU/bench/benchmark/build/src-bobby/hw-block/hwDataLink.c ****         if (0x80 & crc) {
 1331               		.loc 1 26 0
 1332 057a 87FD      		sbrc r24,7
 1333 057c 00C0      		rjmp .L153
 1334               	.L186:
  30:/home/pthalamy/CMU/bench/benchmark/build/src-bobby/hw-block/hwDataLink.c ****             crc = crc << 1;
 1335               		.loc 1 30 0
 1336 057e 880F      		lsl r24
 1337               	.LVL143:
  26:/home/pthalamy/CMU/bench/benchmark/build/src-bobby/hw-block/hwDataLink.c ****         if (0x80 & crc) {
 1338               		.loc 1 26 0
 1339 0580 87FD      		sbrc r24,7
 1340 0582 00C0      		rjmp .L155
 1341               	.L187:
  30:/home/pthalamy/CMU/bench/benchmark/build/src-bobby/hw-block/hwDataLink.c ****             crc = crc << 1;
 1342               		.loc 1 30 0
 1343 0584 880F      		lsl r24
 1344               	.LVL144:
  26:/home/pthalamy/CMU/bench/benchmark/build/src-bobby/hw-block/hwDataLink.c ****         if (0x80 & crc) {
 1345               		.loc 1 26 0
 1346 0586 87FD      		sbrc r24,7
 1347 0588 00C0      		rjmp .L157
 1348               	.L188:
  30:/home/pthalamy/CMU/bench/benchmark/build/src-bobby/hw-block/hwDataLink.c ****             crc = crc << 1;
 1349               		.loc 1 30 0
 1350 058a 880F      		lsl r24
 1351               	.LVL145:
 1352               	.L158:
  26:/home/pthalamy/CMU/bench/benchmark/build/src-bobby/hw-block/hwDataLink.c ****         if (0x80 & crc) {
 1353               		.loc 1 26 0
 1354 058c 87FD      		sbrc r24,7
 1355 058e 00C0      		rjmp .L159
  30:/home/pthalamy/CMU/bench/benchmark/build/src-bobby/hw-block/hwDataLink.c ****             crc = crc << 1;
 1356               		.loc 1 30 0
 1357 0590 880F      		lsl r24
 1358               	.LVL146:
 1359               	.L160:
  26:/home/pthalamy/CMU/bench/benchmark/build/src-bobby/hw-block/hwDataLink.c ****         if (0x80 & crc) {
 1360               		.loc 1 26 0
 1361 0592 87FD      		sbrc r24,7
 1362 0594 00C0      		rjmp .L161
  30:/home/pthalamy/CMU/bench/benchmark/build/src-bobby/hw-block/hwDataLink.c ****             crc = crc << 1;
 1363               		.loc 1 30 0
 1364 0596 880F      		lsl r24
 1365               	.LVL147:
  26:/home/pthalamy/CMU/bench/benchmark/build/src-bobby/hw-block/hwDataLink.c ****         if (0x80 & crc) {
 1366               		.loc 1 26 0
 1367 0598 87FD      		sbrc r24,7
 1368 059a 00C0      		rjmp .L163
 1369               	.L184:
  30:/home/pthalamy/CMU/bench/benchmark/build/src-bobby/hw-block/hwDataLink.c ****             crc = crc << 1;
 1370               		.loc 1 30 0
 1371 059c 880F      		lsl r24
 1372               	.LVL148:
 1373               	.L164:
 1374               	.LBE48:
 1375               	.LBE59:
 346:/home/pthalamy/CMU/bench/benchmark/build/src-bobby/hw-block/hwDataLink.c ****         port[p].rq.checksum = crcCalc(port[p].rq.checksum, currByte);
 1376               		.loc 1 346 0
 1377 059e F701      		movw r30,r14
 1378 05a0 8083      		st Z,r24
 1379               	.LVL149:
 347:/home/pthalamy/CMU/bench/benchmark/build/src-bobby/hw-block/hwDataLink.c ****         port[p].rq.index++;
 1380               		.loc 1 347 0
 1381 05a2 F801      		movw r30,r16
 1382 05a4 8081      		ld r24,Z
 1383               	.LVL150:
 1384 05a6 8F5F      		subi r24,lo8(-(1))
 1385 05a8 8083      		st Z,r24
 1386 05aa 512C      		mov r5,__zero_reg__
 1387 05ac 00C0      		rjmp .L134
 1388               	.LVL151:
 1389               	.L167:
 279:/home/pthalamy/CMU/bench/benchmark/build/src-bobby/hw-block/hwDataLink.c ****             wasEscape = 1;   
 1390               		.loc 1 279 0
 1391 05ae 5524      		clr r5
 1392 05b0 5394      		inc r5
 1393               	.LVL152:
 1394 05b2 00C0      		rjmp .L134
 1395               	.LVL153:
 1396               	.L178:
 217:/home/pthalamy/CMU/bench/benchmark/build/src-bobby/hw-block/hwDataLink.c ****             port[p].rq.flags |= (1 << (currByte & 0x01));
 1397               		.loc 1 217 0
 1398 05b4 8170      		andi r24,1
 1399 05b6 9927      		clr r25
 1400               	.LVL154:
 1401 05b8 F101      		movw r30,r2
 1402 05ba 00C0      		rjmp 2f
 1403               		1:
 1404 05bc EE0F      		lsl r30
 1405 05be FF1F      		rol r31
 1406               		2:
 1407 05c0 8A95      		dec r24
 1408 05c2 02F4      		brpl 1b
 1409 05c4 CF01      		movw r24,r30
 1410 05c6 F501      		movw r30,r10
 1411 05c8 9081      		ld r25,Z
 1412 05ca 982B      		or r25,r24
 1413 05cc 9083      		st Z,r25
 1414               	.LVL155:
 1415               	.LBB60:
 1416               	.LBB57:
  42:/home/pthalamy/CMU/bench/benchmark/build/src-bobby/hw-block/hwDataLink.c ****     byte currParity = sendParity(port[p].sq);
 1417               		.loc 1 42 0
 1418 05ce EC81      		ldd r30,Y+4
 1419 05d0 FD81      		ldd r31,Y+5
 1420 05d2 3081      		ld r19,Z
 1421               	.LVL156:
  45:/home/pthalamy/CMU/bench/benchmark/build/src-bobby/hw-block/hwDataLink.c ****     if( !(gotOddAck(port[p].rq) ^ gotEvenAck(port[p].rq)) ) 
 1422               		.loc 1 45 0
 1423 05d4 892F      		mov r24,r25
 1424 05d6 8695      		lsr r24
 1425 05d8 282F      		mov r18,r24
 1426 05da 2927      		eor r18,r25
  47:/home/pthalamy/CMU/bench/benchmark/build/src-bobby/hw-block/hwDataLink.c ****         clearReceivedAcks( port[p].rq );
 1427               		.loc 1 47 0
 1428 05dc 9C7F      		andi r25,lo8(-4)
 1429 05de F501      		movw r30,r10
 1430 05e0 9083      		st Z,r25
  45:/home/pthalamy/CMU/bench/benchmark/build/src-bobby/hw-block/hwDataLink.c ****     if( !(gotOddAck(port[p].rq) ^ gotEvenAck(port[p].rq)) ) 
 1431               		.loc 1 45 0
 1432 05e2 20FF      		sbrs r18,0
 1433 05e4 00C0      		rjmp .L134
 1434               	.LVL157:
  42:/home/pthalamy/CMU/bench/benchmark/build/src-bobby/hw-block/hwDataLink.c ****     byte currParity = sendParity(port[p].sq);
 1435               		.loc 1 42 0
 1436 05e6 32FB      		bst r19,2
 1437 05e8 3327      		clr r19
 1438 05ea 30F9      		bld r19,0
 1439               	.LVL158:
  50:/home/pthalamy/CMU/bench/benchmark/build/src-bobby/hw-block/hwDataLink.c ****     byte recdParity = gotOddAck(port[p].rq);
 1440               		.loc 1 50 0
 1441 05ec 8170      		andi r24,lo8(1)
 1442               	.LVL159:
  54:/home/pthalamy/CMU/bench/benchmark/build/src-bobby/hw-block/hwDataLink.c ****     if(currParity == recdParity)
 1443               		.loc 1 54 0
 1444 05ee 3813      		cpse r19,r24
 1445 05f0 00C0      		rjmp .L134
  57:/home/pthalamy/CMU/bench/benchmark/build/src-bobby/hw-block/hwDataLink.c ****         removeFromSq(p, MSG_RESP_ACK);
 1446               		.loc 1 57 0
 1447 05f2 68E0      		ldi r22,lo8(8)
 1448 05f4 8B81      		ldd r24,Y+3
 1449               	.LVL160:
 1450 05f6 0E94 0000 		call removeFromSq
 1451               	.LVL161:
  60:/home/pthalamy/CMU/bench/benchmark/build/src-bobby/hw-block/hwDataLink.c ****         port[p].sq.retry    = NUM_RETRIES;
 1452               		.loc 1 60 0
 1453 05fa 94E0      		ldi r25,lo8(4)
 1454 05fc EE81      		ldd r30,Y+6
 1455 05fe FF81      		ldd r31,Y+7
 1456 0600 9083      		st Z,r25
  61:/home/pthalamy/CMU/bench/benchmark/build/src-bobby/hw-block/hwDataLink.c ****         flipParity(port[p].sq);
 1457               		.loc 1 61 0
 1458 0602 EC81      		ldd r30,Y+4
 1459 0604 FD81      		ldd r31,Y+5
 1460 0606 8081      		ld r24,Z
 1461 0608 8927      		eor r24,r25
  62:/home/pthalamy/CMU/bench/benchmark/build/src-bobby/hw-block/hwDataLink.c ****         port[p].sq.flags   |= CLEAR_TO_SEND;
 1462               		.loc 1 62 0
 1463 060a 8064      		ori r24,lo8(64)
 1464 060c 8083      		st Z,r24
  65:/home/pthalamy/CMU/bench/benchmark/build/src-bobby/hw-block/hwDataLink.c ****         deregisterTimeout(&(port[p].sq.qtout.tout));
 1465               		.loc 1 65 0
 1466 060e 8885      		ldd r24,Y+8
 1467 0610 9985      		ldd r25,Y+9
 1468 0612 0E94 0000 		call deregisterTimeout
 1469               	.LVL162:
 1470 0616 00C0      		rjmp .L134
 1471               	.LVL163:
 1472               	.L132:
 1473               	.LBE57:
 1474               	.LBE60:
 204:/home/pthalamy/CMU/bench/benchmark/build/src-bobby/hw-block/hwDataLink.c ****         port[p].rq.index    = 0;
 1475               		.loc 1 204 0
 1476 0618 88E5      		ldi r24,lo8(88)
 1477 061a 809F      		mul r24,r16
 1478 061c F001      		movw r30,r0
 1479 061e 819F      		mul r24,r17
 1480 0620 F00D      		add r31,r0
 1481 0622 1124      		clr __zero_reg__
 1482 0624 E050      		subi r30,lo8(-(port))
 1483 0626 F040      		sbci r31,hi8(-(port))
 1484 0628 138A      		std Z+19,__zero_reg__
 205:/home/pthalamy/CMU/bench/benchmark/build/src-bobby/hw-block/hwDataLink.c ****         port[p].rq.checksum = 0;
 1485               		.loc 1 205 0
 1486 062a 148A      		std Z+20,__zero_reg__
 1487               	.LVL164:
 206:/home/pthalamy/CMU/bench/benchmark/build/src-bobby/hw-block/hwDataLink.c ****         wasEscape           = 0;
 1488               		.loc 1 206 0
 1489 062c 512C      		mov r5,__zero_reg__
 187:/home/pthalamy/CMU/bench/benchmark/build/src-bobby/hw-block/hwDataLink.c ****     Chunk* currChunk = NULL;
 1490               		.loc 1 187 0
 1491 062e 40E0      		ldi r20,0
 1492 0630 50E0      		ldi r21,0
 1493 0632 00C0      		rjmp .L133
 1494               	.LVL165:
 1495               	.L180:
 1496               	.LBB61:
 297:/home/pthalamy/CMU/bench/benchmark/build/src-bobby/hw-block/hwDataLink.c ****                 currChunk->status &= ~CHUNK_FILLING;
 1497               		.loc 1 297 0
 1498 0634 EB85      		ldd r30,Y+11
 1499 0636 FC85      		ldd r31,Y+12
 1500 0638 8189      		ldd r24,Z+17
 1501 063a 8F7B      		andi r24,lo8(-65)
 1502 063c 818B      		std Z+17,r24
 298:/home/pthalamy/CMU/bench/benchmark/build/src-bobby/hw-block/hwDataLink.c ****                 port[p].rq.flags  |=  CHUNK_READY;
 1503               		.loc 1 298 0
 1504 063e F501      		movw r30,r10
 1505 0640 8081      		ld r24,Z
 1506 0642 8068      		ori r24,lo8(-128)
 1507 0644 8083      		st Z,r24
 1508               	.LVL166:
 301:/home/pthalamy/CMU/bench/benchmark/build/src-bobby/hw-block/hwDataLink.c ****                 byte parity = chunkParity(currChunk);
 1509               		.loc 1 301 0
 1510 0646 EB85      		ldd r30,Y+11
 1511 0648 FC85      		ldd r31,Y+12
 1512 064a 9189      		ldd r25,Z+17
 1513 064c 95FB      		bst r25,5
 1514 064e 9927      		clr r25
 1515 0650 90F9      		bld r25,0
 302:/home/pthalamy/CMU/bench/benchmark/build/src-bobby/hw-block/hwDataLink.c ****                 byte last   = parityLastChunk(port[p].rq);
 1516               		.loc 1 302 0
 1517 0652 86FB      		bst r24,6
 1518 0654 8827      		clr r24
 1519 0656 80F9      		bld r24,0
 1520               	.LVL167:
 305:/home/pthalamy/CMU/bench/benchmark/build/src-bobby/hw-block/hwDataLink.c ****                 if(parity != last) {
 1521               		.loc 1 305 0
 1522 0658 9817      		cp r25,r24
 1523 065a 01F4      		brne .+2
 1524 065c 00C0      		rjmp .L143
 1525               	.LVL168:
 1526               	.LBB51:
 1527               	.LBB52:
  80:/home/pthalamy/CMU/bench/benchmark/build/src-bobby/hw-block/hwDataLink.c ****     c->next = NULL;
 1528               		.loc 1 80 0
 1529 065e 128A      		std Z+18,__zero_reg__
 1530 0660 138A      		std Z+19,__zero_reg__
 1531               	.LVL169:
  83:/home/pthalamy/CMU/bench/benchmark/build/src-bobby/hw-block/hwDataLink.c ****     if( globalRq.head == NULL ) 
 1532               		.loc 1 83 0
 1533 0662 8091 0000 		lds r24,globalRq
 1534 0666 9091 0000 		lds r25,globalRq+1
 1535 066a 892B      		or r24,r25
 1536 066c 01F4      		brne .+2
 1537 066e 00C0      		rjmp .L183
  89:/home/pthalamy/CMU/bench/benchmark/build/src-bobby/hw-block/hwDataLink.c ****         globalRq.tail->next = c;
 1538               		.loc 1 89 0
 1539 0670 E091 0000 		lds r30,globalRq+2
 1540 0674 F091 0000 		lds r31,globalRq+2+1
 1541 0678 2B85      		ldd r18,Y+11
 1542 067a 3C85      		ldd r19,Y+12
 1543 067c 228B      		std Z+18,r18
 1544 067e 338B      		std Z+19,r19
 1545               	.L145:
  93:/home/pthalamy/CMU/bench/benchmark/build/src-bobby/hw-block/hwDataLink.c ****     globalRq.tail  = c;
 1546               		.loc 1 93 0
 1547 0680 2093 0000 		sts globalRq+2,r18
 1548 0684 3093 0000 		sts globalRq+2+1,r19
  94:/home/pthalamy/CMU/bench/benchmark/build/src-bobby/hw-block/hwDataLink.c ****     globalRq.flags = PACKET_READY;
 1549               		.loc 1 94 0
 1550 0688 80E8      		ldi r24,lo8(-128)
 1551 068a 8093 0000 		sts globalRq+4,r24
 1552               	.LBE52:
 1553               	.LBE51:
 313:/home/pthalamy/CMU/bench/benchmark/build/src-bobby/hw-block/hwDataLink.c ****                     flipParityLast(port[p].rq);
 1554               		.loc 1 313 0
 1555 068e F501      		movw r30,r10
 1556 0690 8081      		ld r24,Z
 1557 0692 90E4      		ldi r25,lo8(64)
 1558 0694 8927      		eor r24,r25
 1559 0696 8083      		st Z,r24
 1560               	.LVL170:
 1561               	.L146:
 322:/home/pthalamy/CMU/bench/benchmark/build/src-bobby/hw-block/hwDataLink.c ****                 port[p].rq.curr = NULL;
 1562               		.loc 1 322 0
 1563 0698 F301      		movw r30,r6
 1564 069a 1082      		st Z,__zero_reg__
 1565 069c 1182      		std Z+1,__zero_reg__
 1566 069e 00C0      		rjmp .L142
 1567               	.LVL171:
 1568               	.L161:
 1569               	.LBE61:
 1570               	.LBB62:
 1571               	.LBB49:
  27:/home/pthalamy/CMU/bench/benchmark/build/src-bobby/hw-block/hwDataLink.c ****             crc = (crc << 1) ^ CRC_POLY;
 1572               		.loc 1 27 0
 1573 06a0 880F      		lsl r24
 1574               	.LVL172:
 1575 06a2 8425      		eor r24,r4
 1576               	.LVL173:
  26:/home/pthalamy/CMU/bench/benchmark/build/src-bobby/hw-block/hwDataLink.c ****         if (0x80 & crc) {
 1577               		.loc 1 26 0
 1578 06a4 87FF      		sbrs r24,7
 1579 06a6 00C0      		rjmp .L184
 1580               	.L163:
  27:/home/pthalamy/CMU/bench/benchmark/build/src-bobby/hw-block/hwDataLink.c ****             crc = (crc << 1) ^ CRC_POLY;
 1581               		.loc 1 27 0
 1582 06a8 880F      		lsl r24
 1583               	.LVL174:
 1584 06aa 8425      		eor r24,r4
 1585               	.LVL175:
 1586 06ac 00C0      		rjmp .L164
 1587               	.LVL176:
 1588               	.L159:
 1589 06ae 880F      		lsl r24
 1590               	.LVL177:
 1591 06b0 8425      		eor r24,r4
 1592               	.LVL178:
 1593 06b2 00C0      		rjmp .L160
 1594               	.LVL179:
 1595               	.L149:
 1596 06b4 880F      		lsl r24
 1597               	.LVL180:
 1598 06b6 8425      		eor r24,r4
 1599               	.LVL181:
  26:/home/pthalamy/CMU/bench/benchmark/build/src-bobby/hw-block/hwDataLink.c ****         if (0x80 & crc) {
 1600               		.loc 1 26 0
 1601 06b8 87FF      		sbrs r24,7
 1602 06ba 00C0      		rjmp .L185
 1603               	.L151:
  27:/home/pthalamy/CMU/bench/benchmark/build/src-bobby/hw-block/hwDataLink.c ****             crc = (crc << 1) ^ CRC_POLY;
 1604               		.loc 1 27 0
 1605 06bc 880F      		lsl r24
 1606               	.LVL182:
 1607 06be 8425      		eor r24,r4
 1608               	.LVL183:
  26:/home/pthalamy/CMU/bench/benchmark/build/src-bobby/hw-block/hwDataLink.c ****         if (0x80 & crc) {
 1609               		.loc 1 26 0
 1610 06c0 87FF      		sbrs r24,7
 1611 06c2 00C0      		rjmp .L186
 1612               	.L153:
  27:/home/pthalamy/CMU/bench/benchmark/build/src-bobby/hw-block/hwDataLink.c ****             crc = (crc << 1) ^ CRC_POLY;
 1613               		.loc 1 27 0
 1614 06c4 880F      		lsl r24
 1615               	.LVL184:
 1616 06c6 8425      		eor r24,r4
 1617               	.LVL185:
  26:/home/pthalamy/CMU/bench/benchmark/build/src-bobby/hw-block/hwDataLink.c ****         if (0x80 & crc) {
 1618               		.loc 1 26 0
 1619 06c8 87FF      		sbrs r24,7
 1620 06ca 00C0      		rjmp .L187
 1621               	.L155:
  27:/home/pthalamy/CMU/bench/benchmark/build/src-bobby/hw-block/hwDataLink.c ****             crc = (crc << 1) ^ CRC_POLY;
 1622               		.loc 1 27 0
 1623 06cc 880F      		lsl r24
 1624               	.LVL186:
 1625 06ce 8425      		eor r24,r4
 1626               	.LVL187:
  26:/home/pthalamy/CMU/bench/benchmark/build/src-bobby/hw-block/hwDataLink.c ****         if (0x80 & crc) {
 1627               		.loc 1 26 0
 1628 06d0 87FF      		sbrs r24,7
 1629 06d2 00C0      		rjmp .L188
 1630               	.L157:
  27:/home/pthalamy/CMU/bench/benchmark/build/src-bobby/hw-block/hwDataLink.c ****             crc = (crc << 1) ^ CRC_POLY;
 1631               		.loc 1 27 0
 1632 06d4 880F      		lsl r24
 1633               	.LVL188:
 1634 06d6 8425      		eor r24,r4
 1635               	.LVL189:
 1636 06d8 00C0      		rjmp .L158
 1637               	.LVL190:
 1638               	.L182:
 1639               	.LBE49:
 1640               	.LBE62:
 338:/home/pthalamy/CMU/bench/benchmark/build/src-bobby/hw-block/hwDataLink.c ****             currChunk->handler[port[p].rq.index] = currByte;
 1641               		.loc 1 338 0
 1642 06da 448B      		std Z+20,r20
 1643 06dc 00C0      		rjmp .L148
 1644               	.LVL191:
 1645               	.L181:
 1646               	.LBB63:
 251:/home/pthalamy/CMU/bench/benchmark/build/src-bobby/hw-block/hwDataLink.c ****                 currChunk = getSystemRXChunk();
 1647               		.loc 1 251 0
 1648 06de 2A87      		std Y+10,r18
 1649 06e0 0E94 0000 		call getSystemRXChunk
 1650               	.LVL192:
 1651 06e4 8B87      		std Y+11,r24
 1652 06e6 9C87      		std Y+12,r25
 1653               	.LVL193:
 254:/home/pthalamy/CMU/bench/benchmark/build/src-bobby/hw-block/hwDataLink.c ****                 if( currChunk == NULL )
 1654               		.loc 1 254 0
 1655 06e8 2A85      		ldd r18,Y+10
 1656 06ea 0097      		sbiw r24,0
 1657 06ec 01F0      		breq .L166
 261:/home/pthalamy/CMU/bench/benchmark/build/src-bobby/hw-block/hwDataLink.c ****                 port[p].rq.curr = currChunk;
 1658               		.loc 1 261 0
 1659 06ee F301      		movw r30,r6
 1660 06f0 8083      		st Z,r24
 1661 06f2 9183      		std Z+1,r25
 1662 06f4 00C0      		rjmp .L139
 1663               	.LVL194:
 1664               	.L143:
 1665 06f6 CF01      		movw r24,r30
 1666               	.LBE63:
 1667               	.LBB64:
 318:/home/pthalamy/CMU/bench/benchmark/build/src-bobby/hw-block/hwDataLink.c ****                     freeChunk(currChunk);
 1668               		.loc 1 318 0
 1669 06f8 0E94 0000 		call freeChunk
 1670               	.LVL195:
 1671 06fc 00C0      		rjmp .L146
 1672               	.LVL196:
 1673               	.L183:
 1674               	.LBB54:
 1675               	.LBB53:
  85:/home/pthalamy/CMU/bench/benchmark/build/src-bobby/hw-block/hwDataLink.c ****         globalRq.head = c;
 1676               		.loc 1 85 0
 1677 06fe E093 0000 		sts globalRq,r30
 1678 0702 F093 0000 		sts globalRq+1,r31
 1679 0706 2B85      		ldd r18,Y+11
 1680 0708 3C85      		ldd r19,Y+12
 1681 070a 00C0      		rjmp .L145
 1682               	.LVL197:
 1683               	.L166:
 1684               	.LBE53:
 1685               	.LBE54:
 1686               	.LBE64:
 1687               	.LBB65:
 241:/home/pthalamy/CMU/bench/benchmark/build/src-bobby/hw-block/hwDataLink.c ****             wasEscape           = 0;
 1688               		.loc 1 241 0
 1689 070c 512C      		mov r5,__zero_reg__
 1690 070e 00C0      		rjmp .L134
 1691               	.LBE65:
 1692               		.cfi_endproc
 1693               	.LFE11:
 1695               	.global	nextPacket
 1697               	nextPacket:
 1698               	.LFB12:
 353:/home/pthalamy/CMU/bench/benchmark/build/src-bobby/hw-block/hwDataLink.c **** 
 354:/home/pthalamy/CMU/bench/benchmark/build/src-bobby/hw-block/hwDataLink.c **** // gets data from the global receive queue
 355:/home/pthalamy/CMU/bench/benchmark/build/src-bobby/hw-block/hwDataLink.c **** Chunk* nextPacket(void)
 356:/home/pthalamy/CMU/bench/benchmark/build/src-bobby/hw-block/hwDataLink.c **** {
 1699               		.loc 1 356 0
 1700               		.cfi_startproc
 1701               	/* prologue: function */
 1702               	/* frame size = 0 */
 1703               	/* stack size = 0 */
 1704               	.L__stack_usage = 0
 1705               	.LVL198:
 357:/home/pthalamy/CMU/bench/benchmark/build/src-bobby/hw-block/hwDataLink.c ****     Chunk* c = NULL;
 358:/home/pthalamy/CMU/bench/benchmark/build/src-bobby/hw-block/hwDataLink.c **** 
 359:/home/pthalamy/CMU/bench/benchmark/build/src-bobby/hw-block/hwDataLink.c ****     // no packets
 360:/home/pthalamy/CMU/bench/benchmark/build/src-bobby/hw-block/hwDataLink.c ****     if( globalRq.head == NULL )
 1706               		.loc 1 360 0
 1707 0710 8091 0000 		lds r24,globalRq
 1708 0714 9091 0000 		lds r25,globalRq+1
 1709 0718 0097      		sbiw r24,0
 1710 071a 01F0      		breq .L193
 1711               	.LVL199:
 361:/home/pthalamy/CMU/bench/benchmark/build/src-bobby/hw-block/hwDataLink.c ****     {
 362:/home/pthalamy/CMU/bench/benchmark/build/src-bobby/hw-block/hwDataLink.c ****         globalRq.tail = NULL;
 363:/home/pthalamy/CMU/bench/benchmark/build/src-bobby/hw-block/hwDataLink.c ****         globalRq.flags &= ~PACKET_READY;
 364:/home/pthalamy/CMU/bench/benchmark/build/src-bobby/hw-block/hwDataLink.c ****         return NULL;
 365:/home/pthalamy/CMU/bench/benchmark/build/src-bobby/hw-block/hwDataLink.c ****     }
 366:/home/pthalamy/CMU/bench/benchmark/build/src-bobby/hw-block/hwDataLink.c **** 
 367:/home/pthalamy/CMU/bench/benchmark/build/src-bobby/hw-block/hwDataLink.c ****     // update pointers
 368:/home/pthalamy/CMU/bench/benchmark/build/src-bobby/hw-block/hwDataLink.c ****     c = globalRq.head;
 369:/home/pthalamy/CMU/bench/benchmark/build/src-bobby/hw-block/hwDataLink.c ****     
 370:/home/pthalamy/CMU/bench/benchmark/build/src-bobby/hw-block/hwDataLink.c ****     globalRq.head = c->next;
 1712               		.loc 1 370 0
 1713 071c FC01      		movw r30,r24
 1714 071e 2289      		ldd r18,Z+18
 1715 0720 3389      		ldd r19,Z+19
 1716 0722 2093 0000 		sts globalRq,r18
 1717 0726 3093 0000 		sts globalRq+1,r19
 371:/home/pthalamy/CMU/bench/benchmark/build/src-bobby/hw-block/hwDataLink.c ****     if( globalRq.head == NULL )
 1718               		.loc 1 371 0
 1719 072a 232B      		or r18,r19
 1720 072c 01F0      		breq .L194
 372:/home/pthalamy/CMU/bench/benchmark/build/src-bobby/hw-block/hwDataLink.c ****     {
 373:/home/pthalamy/CMU/bench/benchmark/build/src-bobby/hw-block/hwDataLink.c ****         globalRq.flags &= ~PACKET_READY;
 374:/home/pthalamy/CMU/bench/benchmark/build/src-bobby/hw-block/hwDataLink.c ****         globalRq.tail = NULL;
 375:/home/pthalamy/CMU/bench/benchmark/build/src-bobby/hw-block/hwDataLink.c ****     }
 376:/home/pthalamy/CMU/bench/benchmark/build/src-bobby/hw-block/hwDataLink.c ****     
 377:/home/pthalamy/CMU/bench/benchmark/build/src-bobby/hw-block/hwDataLink.c ****     // isolate and return
 378:/home/pthalamy/CMU/bench/benchmark/build/src-bobby/hw-block/hwDataLink.c ****     c->next = NULL;
 1721               		.loc 1 378 0
 1722 072e FC01      		movw r30,r24
 1723 0730 128A      		std Z+18,__zero_reg__
 1724 0732 138A      		std Z+19,__zero_reg__
 379:/home/pthalamy/CMU/bench/benchmark/build/src-bobby/hw-block/hwDataLink.c ****     return c;
 380:/home/pthalamy/CMU/bench/benchmark/build/src-bobby/hw-block/hwDataLink.c **** }
 1725               		.loc 1 380 0
 1726 0734 0895      		ret
 1727               	.L194:
 373:/home/pthalamy/CMU/bench/benchmark/build/src-bobby/hw-block/hwDataLink.c ****         globalRq.flags &= ~PACKET_READY;
 1728               		.loc 1 373 0
 1729 0736 2091 0000 		lds r18,globalRq+4
 1730 073a 2F77      		andi r18,lo8(127)
 1731 073c 2093 0000 		sts globalRq+4,r18
 374:/home/pthalamy/CMU/bench/benchmark/build/src-bobby/hw-block/hwDataLink.c ****         globalRq.tail = NULL;
 1732               		.loc 1 374 0
 1733 0740 1092 0000 		sts globalRq+2,__zero_reg__
 1734 0744 1092 0000 		sts globalRq+2+1,__zero_reg__
 378:/home/pthalamy/CMU/bench/benchmark/build/src-bobby/hw-block/hwDataLink.c ****     c->next = NULL;
 1735               		.loc 1 378 0
 1736 0748 FC01      		movw r30,r24
 1737 074a 128A      		std Z+18,__zero_reg__
 1738 074c 138A      		std Z+19,__zero_reg__
 1739               		.loc 1 380 0
 1740 074e 0895      		ret
 1741               	.LVL200:
 1742               	.L193:
 362:/home/pthalamy/CMU/bench/benchmark/build/src-bobby/hw-block/hwDataLink.c ****         globalRq.tail = NULL;
 1743               		.loc 1 362 0
 1744 0750 1092 0000 		sts globalRq+2,__zero_reg__
 1745 0754 1092 0000 		sts globalRq+2+1,__zero_reg__
 363:/home/pthalamy/CMU/bench/benchmark/build/src-bobby/hw-block/hwDataLink.c ****         globalRq.flags &= ~PACKET_READY;
 1746               		.loc 1 363 0
 1747 0758 2091 0000 		lds r18,globalRq+4
 1748 075c 2F77      		andi r18,lo8(127)
 1749 075e 2093 0000 		sts globalRq+4,r18
 364:/home/pthalamy/CMU/bench/benchmark/build/src-bobby/hw-block/hwDataLink.c ****         return NULL;
 1750               		.loc 1 364 0
 1751 0762 0895      		ret
 1752               		.cfi_endproc
 1753               	.LFE12:
 1755               	.global	sendOnSerial
 1757               	sendOnSerial:
 1758               	.LFB13:
 381:/home/pthalamy/CMU/bench/benchmark/build/src-bobby/hw-block/hwDataLink.c **** 
 382:/home/pthalamy/CMU/bench/benchmark/build/src-bobby/hw-block/hwDataLink.c **** // try sending stuff if available and ready
 383:/home/pthalamy/CMU/bench/benchmark/build/src-bobby/hw-block/hwDataLink.c **** void sendOnSerial(PRef p)
 384:/home/pthalamy/CMU/bench/benchmark/build/src-bobby/hw-block/hwDataLink.c **** {
 1759               		.loc 1 384 0
 1760               		.cfi_startproc
 1761               	.LVL201:
 1762 0764 DF92      		push r13
 1763               	.LCFI42:
 1764               		.cfi_def_cfa_offset 4
 1765               		.cfi_offset 13, -3
 1766 0766 EF92      		push r14
 1767               	.LCFI43:
 1768               		.cfi_def_cfa_offset 5
 1769               		.cfi_offset 14, -4
 1770 0768 FF92      		push r15
 1771               	.LCFI44:
 1772               		.cfi_def_cfa_offset 6
 1773               		.cfi_offset 15, -5
 1774 076a 0F93      		push r16
 1775               	.LCFI45:
 1776               		.cfi_def_cfa_offset 7
 1777               		.cfi_offset 16, -6
 1778 076c 1F93      		push r17
 1779               	.LCFI46:
 1780               		.cfi_def_cfa_offset 8
 1781               		.cfi_offset 17, -7
 1782 076e CF93      		push r28
 1783               	.LCFI47:
 1784               		.cfi_def_cfa_offset 9
 1785               		.cfi_offset 28, -8
 1786 0770 DF93      		push r29
 1787               	.LCFI48:
 1788               		.cfi_def_cfa_offset 10
 1789               		.cfi_offset 29, -9
 1790               	/* prologue: function */
 1791               	/* frame size = 0 */
 1792               	/* stack size = 7 */
 1793               	.L__stack_usage = 7
 1794 0772 D82E      		mov r13,r24
 385:/home/pthalamy/CMU/bench/benchmark/build/src-bobby/hw-block/hwDataLink.c ****     // send acks
 386:/home/pthalamy/CMU/bench/benchmark/build/src-bobby/hw-block/hwDataLink.c ****     if( shouldSendOddAck(port[p].sq) )
 1795               		.loc 1 386 0
 1796 0774 E82E      		mov r14,r24
 1797 0776 F12C      		mov r15,__zero_reg__
 1798 0778 88E5      		ldi r24,lo8(88)
 1799               	.LVL202:
 1800 077a D89E      		mul r13,r24
 1801 077c B001      		movw r22,r0
 1802 077e 1124      		clr __zero_reg__
 1803 0780 EB01      		movw r28,r22
 1804 0782 C050      		subi r28,lo8(-(port))
 1805 0784 D040      		sbci r29,hi8(-(port))
 1806 0786 4E85      		ldd r20,Y+14
 1807 0788 41FD      		sbrc r20,1
 1808 078a 00C0      		rjmp .L212
 1809               	.L196:
 387:/home/pthalamy/CMU/bench/benchmark/build/src-bobby/hw-block/hwDataLink.c ****     {
 388:/home/pthalamy/CMU/bench/benchmark/build/src-bobby/hw-block/hwDataLink.c ****         if( isEmpty(&(port[p].tx)) ) {
 389:/home/pthalamy/CMU/bench/benchmark/build/src-bobby/hw-block/hwDataLink.c ****             pPutChar(ACK | ODD, port[p].pnum);
 390:/home/pthalamy/CMU/bench/benchmark/build/src-bobby/hw-block/hwDataLink.c ****         }
 391:/home/pthalamy/CMU/bench/benchmark/build/src-bobby/hw-block/hwDataLink.c ****         else {
 392:/home/pthalamy/CMU/bench/benchmark/build/src-bobby/hw-block/hwDataLink.c ****             push(ACK | ODD, &(port[p].tx));
 393:/home/pthalamy/CMU/bench/benchmark/build/src-bobby/hw-block/hwDataLink.c ****         }
 394:/home/pthalamy/CMU/bench/benchmark/build/src-bobby/hw-block/hwDataLink.c ****     }
 395:/home/pthalamy/CMU/bench/benchmark/build/src-bobby/hw-block/hwDataLink.c ****     if( shouldSendEvenAck(port[p].sq) )
 1810               		.loc 1 395 0
 1811 078c 40FD      		sbrc r20,0
 1812 078e 00C0      		rjmp .L213
 1813               	.L198:
 396:/home/pthalamy/CMU/bench/benchmark/build/src-bobby/hw-block/hwDataLink.c ****     {
 397:/home/pthalamy/CMU/bench/benchmark/build/src-bobby/hw-block/hwDataLink.c ****         if( isEmpty(&(port[p].tx)) ) {
 398:/home/pthalamy/CMU/bench/benchmark/build/src-bobby/hw-block/hwDataLink.c ****             pPutChar(ACK | EVEN, port[p].pnum);
 399:/home/pthalamy/CMU/bench/benchmark/build/src-bobby/hw-block/hwDataLink.c ****         }
 400:/home/pthalamy/CMU/bench/benchmark/build/src-bobby/hw-block/hwDataLink.c ****         else {
 401:/home/pthalamy/CMU/bench/benchmark/build/src-bobby/hw-block/hwDataLink.c ****             push(ACK | EVEN, &(port[p].tx));
 402:/home/pthalamy/CMU/bench/benchmark/build/src-bobby/hw-block/hwDataLink.c ****         }
 403:/home/pthalamy/CMU/bench/benchmark/build/src-bobby/hw-block/hwDataLink.c ****     }
 404:/home/pthalamy/CMU/bench/benchmark/build/src-bobby/hw-block/hwDataLink.c ****     clearSendAcks(port[p].sq);
 1814               		.loc 1 404 0
 1815 0790 4C7F      		andi r20,lo8(-4)
 1816 0792 88E5      		ldi r24,lo8(88)
 1817 0794 8E9D      		mul r24,r14
 1818 0796 8001      		movw r16,r0
 1819 0798 8F9D      		mul r24,r15
 1820 079a 100D      		add r17,r0
 1821 079c 1124      		clr __zero_reg__
 1822 079e E801      		movw r28,r16
 1823 07a0 C050      		subi r28,lo8(-(port))
 1824 07a2 D040      		sbci r29,hi8(-(port))
 1825 07a4 4E87      		std Y+14,r20
 405:/home/pthalamy/CMU/bench/benchmark/build/src-bobby/hw-block/hwDataLink.c ****     
 406:/home/pthalamy/CMU/bench/benchmark/build/src-bobby/hw-block/hwDataLink.c ****     // send Chunk?
 407:/home/pthalamy/CMU/bench/benchmark/build/src-bobby/hw-block/hwDataLink.c ****     if( chunkReady(port[p].sq) )
 1826               		.loc 1 407 0
 1827 07a6 47FF      		sbrs r20,7
 1828 07a8 00C0      		rjmp .L195
 408:/home/pthalamy/CMU/bench/benchmark/build/src-bobby/hw-block/hwDataLink.c ****     {
 409:/home/pthalamy/CMU/bench/benchmark/build/src-bobby/hw-block/hwDataLink.c ****         if( clearToSend(port[p].sq) )
 1829               		.loc 1 409 0
 1830 07aa 46FF      		sbrs r20,6
 1831 07ac 00C0      		rjmp .L195
 410:/home/pthalamy/CMU/bench/benchmark/build/src-bobby/hw-block/hwDataLink.c ****         {
 411:/home/pthalamy/CMU/bench/benchmark/build/src-bobby/hw-block/hwDataLink.c ****             // out of retries
 412:/home/pthalamy/CMU/bench/benchmark/build/src-bobby/hw-block/hwDataLink.c ****             if( (port[p].sq.retry <= 0) || (port[p].sq.retry > NUM_RETRIES))
 1832               		.loc 1 412 0
 1833 07ae 8D85      		ldd r24,Y+13
 1834 07b0 8150      		subi r24,lo8(-(-1))
 1835 07b2 8430      		cpi r24,lo8(4)
 1836 07b4 00F4      		brsh .L214
 413:/home/pthalamy/CMU/bench/benchmark/build/src-bobby/hw-block/hwDataLink.c ****             {
 414:/home/pthalamy/CMU/bench/benchmark/build/src-bobby/hw-block/hwDataLink.c ****                 // reset the timer
 415:/home/pthalamy/CMU/bench/benchmark/build/src-bobby/hw-block/hwDataLink.c ****                 deregisterTimeout(&(port[p].sq.qtout.tout));
 416:/home/pthalamy/CMU/bench/benchmark/build/src-bobby/hw-block/hwDataLink.c **** 
 417:/home/pthalamy/CMU/bench/benchmark/build/src-bobby/hw-block/hwDataLink.c ****                 // flush the queue
 418:/home/pthalamy/CMU/bench/benchmark/build/src-bobby/hw-block/hwDataLink.c ****                 flushSendQueue(p);
 419:/home/pthalamy/CMU/bench/benchmark/build/src-bobby/hw-block/hwDataLink.c ****                         
 420:/home/pthalamy/CMU/bench/benchmark/build/src-bobby/hw-block/hwDataLink.c ****                 // reset the flags
 421:/home/pthalamy/CMU/bench/benchmark/build/src-bobby/hw-block/hwDataLink.c ****                 port[p].sq.retry    = NUM_RETRIES;
 422:/home/pthalamy/CMU/bench/benchmark/build/src-bobby/hw-block/hwDataLink.c ****                 port[p].sq.flags   |= CLEAR_TO_SEND;
 423:/home/pthalamy/CMU/bench/benchmark/build/src-bobby/hw-block/hwDataLink.c ****                 flipParity(port[p].sq);
 424:/home/pthalamy/CMU/bench/benchmark/build/src-bobby/hw-block/hwDataLink.c **** 
 425:/home/pthalamy/CMU/bench/benchmark/build/src-bobby/hw-block/hwDataLink.c ****                 // ensemble level updates - remove neighbor, restart neighbor scanning
 426:/home/pthalamy/CMU/bench/benchmark/build/src-bobby/hw-block/hwDataLink.c ****                 //     These don't belong in data-link in my opinion
 427:/home/pthalamy/CMU/bench/benchmark/build/src-bobby/hw-block/hwDataLink.c ****                 //restartScan(p);
 428:/home/pthalamy/CMU/bench/benchmark/build/src-bobby/hw-block/hwDataLink.c **** 
 429:/home/pthalamy/CMU/bench/benchmark/build/src-bobby/hw-block/hwDataLink.c ****                 return;
 430:/home/pthalamy/CMU/bench/benchmark/build/src-bobby/hw-block/hwDataLink.c ****             }
 431:/home/pthalamy/CMU/bench/benchmark/build/src-bobby/hw-block/hwDataLink.c ****             port[p].sq.retry--;
 1837               		.loc 1 431 0
 1838 07b6 8D87      		std Y+13,r24
 432:/home/pthalamy/CMU/bench/benchmark/build/src-bobby/hw-block/hwDataLink.c **** 
 433:/home/pthalamy/CMU/bench/benchmark/build/src-bobby/hw-block/hwDataLink.c ****             sendToBuffer(p, port[p].sq.head, sendParity(port[p].sq) );
 1839               		.loc 1 433 0
 1840 07b8 42FB      		bst r20,2
 1841 07ba 4427      		clr r20
 1842 07bc 40F9      		bld r20,0
 1843 07be 6F85      		ldd r22,Y+15
 1844 07c0 7889      		ldd r23,Y+16
 1845 07c2 8D2D      		mov r24,r13
 1846 07c4 0E94 0000 		call sendToBuffer
 1847               	.LVL203:
 434:/home/pthalamy/CMU/bench/benchmark/build/src-bobby/hw-block/hwDataLink.c ****             port[p].sq.flags &= ~CLEAR_TO_SEND;
 1848               		.loc 1 434 0
 1849 07c8 8E85      		ldd r24,Y+14
 1850 07ca 8F7B      		andi r24,lo8(-65)
 1851 07cc 8E87      		std Y+14,r24
 435:/home/pthalamy/CMU/bench/benchmark/build/src-bobby/hw-block/hwDataLink.c ****             
 436:/home/pthalamy/CMU/bench/benchmark/build/src-bobby/hw-block/hwDataLink.c ****             // start the timeout
 437:/home/pthalamy/CMU/bench/benchmark/build/src-bobby/hw-block/hwDataLink.c ****             port[p].sq.qtout.tout.calltime = getTime() + DEFAULT_TIMEOUT;
 1852               		.loc 1 437 0
 1853 07ce 0E94 0000 		call getTime
 1854               	.LVL204:
 1855 07d2 6E5C      		subi r22,-50
 1856 07d4 7F4F      		sbci r23,-1
 1857 07d6 8F4F      		sbci r24,-1
 1858 07d8 9F4F      		sbci r25,-1
 1859 07da 6B83      		std Y+3,r22
 1860 07dc 7C83      		std Y+4,r23
 1861 07de 8D83      		std Y+5,r24
 1862 07e0 9E83      		std Y+6,r25
 438:/home/pthalamy/CMU/bench/benchmark/build/src-bobby/hw-block/hwDataLink.c ****             registerTimeout(&(port[p].sq.qtout.tout));
 1863               		.loc 1 438 0
 1864 07e2 C801      		movw r24,r16
 1865 07e4 8050      		subi r24,lo8(-(port+1))
 1866 07e6 9040      		sbci r25,hi8(-(port+1))
 1867               	/* epilogue start */
 439:/home/pthalamy/CMU/bench/benchmark/build/src-bobby/hw-block/hwDataLink.c ****         }
 440:/home/pthalamy/CMU/bench/benchmark/build/src-bobby/hw-block/hwDataLink.c ****     }
 441:/home/pthalamy/CMU/bench/benchmark/build/src-bobby/hw-block/hwDataLink.c **** }
 1868               		.loc 1 441 0
 1869 07e8 DF91      		pop r29
 1870 07ea CF91      		pop r28
 1871 07ec 1F91      		pop r17
 1872 07ee 0F91      		pop r16
 1873 07f0 FF90      		pop r15
 1874 07f2 EF90      		pop r14
 1875 07f4 DF90      		pop r13
 1876               	.LVL205:
 438:/home/pthalamy/CMU/bench/benchmark/build/src-bobby/hw-block/hwDataLink.c ****             registerTimeout(&(port[p].sq.qtout.tout));
 1877               		.loc 1 438 0
 1878 07f6 0C94 0000 		jmp registerTimeout
 1879               	.LVL206:
 1880               	.L214:
 415:/home/pthalamy/CMU/bench/benchmark/build/src-bobby/hw-block/hwDataLink.c ****                 deregisterTimeout(&(port[p].sq.qtout.tout));
 1881               		.loc 1 415 0
 1882 07fa C801      		movw r24,r16
 1883 07fc 8050      		subi r24,lo8(-(port+1))
 1884 07fe 9040      		sbci r25,hi8(-(port+1))
 1885 0800 0E94 0000 		call deregisterTimeout
 1886               	.LVL207:
 418:/home/pthalamy/CMU/bench/benchmark/build/src-bobby/hw-block/hwDataLink.c ****                 flushSendQueue(p);
 1887               		.loc 1 418 0
 1888 0804 8D2D      		mov r24,r13
 1889 0806 0E94 0000 		call flushSendQueue
 1890               	.LVL208:
 421:/home/pthalamy/CMU/bench/benchmark/build/src-bobby/hw-block/hwDataLink.c ****                 port[p].sq.retry    = NUM_RETRIES;
 1891               		.loc 1 421 0
 1892 080a 94E0      		ldi r25,lo8(4)
 1893 080c 9D87      		std Y+13,r25
 422:/home/pthalamy/CMU/bench/benchmark/build/src-bobby/hw-block/hwDataLink.c ****                 port[p].sq.flags   |= CLEAR_TO_SEND;
 1894               		.loc 1 422 0
 1895 080e 8E85      		ldd r24,Y+14
 1896 0810 8064      		ori r24,lo8(64)
 423:/home/pthalamy/CMU/bench/benchmark/build/src-bobby/hw-block/hwDataLink.c ****                 flipParity(port[p].sq);
 1897               		.loc 1 423 0
 1898 0812 8927      		eor r24,r25
 1899 0814 8E87      		std Y+14,r24
 1900               	.L195:
 1901               	/* epilogue start */
 1902               		.loc 1 441 0
 1903 0816 DF91      		pop r29
 1904 0818 CF91      		pop r28
 1905 081a 1F91      		pop r17
 1906 081c 0F91      		pop r16
 1907 081e FF90      		pop r15
 1908 0820 EF90      		pop r14
 1909 0822 DF90      		pop r13
 1910               	.LVL209:
 1911 0824 0895      		ret
 1912               	.LVL210:
 1913               	.L213:
 397:/home/pthalamy/CMU/bench/benchmark/build/src-bobby/hw-block/hwDataLink.c ****         if( isEmpty(&(port[p].tx)) ) {
 1914               		.loc 1 397 0
 1915 0826 88E5      		ldi r24,lo8(88)
 1916 0828 8E9D      		mul r24,r14
 1917 082a E001      		movw r28,r0
 1918 082c 8F9D      		mul r24,r15
 1919 082e D00D      		add r29,r0
 1920 0830 1124      		clr __zero_reg__
 1921 0832 8E01      		movw r16,r28
 1922 0834 0050      		subi r16,lo8(-(port+56))
 1923 0836 1040      		sbci r17,hi8(-(port+56))
 1924 0838 C801      		movw r24,r16
 1925 083a 0E94 0000 		call isEmpty
 1926               	.LVL211:
 1927 083e 8823      		tst r24
 1928 0840 01F0      		breq .L199
 398:/home/pthalamy/CMU/bench/benchmark/build/src-bobby/hw-block/hwDataLink.c ****             pPutChar(ACK | EVEN, port[p].pnum);
 1929               		.loc 1 398 0
 1930 0842 C050      		subi r28,lo8(-(port))
 1931 0844 D040      		sbci r29,hi8(-(port))
 1932 0846 6881      		ld r22,Y
 1933 0848 88E0      		ldi r24,lo8(8)
 1934 084a 0E94 0000 		call pPutChar
 1935               	.LVL212:
 1936 084e 4E85      		ldd r20,Y+14
 1937 0850 00C0      		rjmp .L198
 1938               	.L212:
 388:/home/pthalamy/CMU/bench/benchmark/build/src-bobby/hw-block/hwDataLink.c ****         if( isEmpty(&(port[p].tx)) ) {
 1939               		.loc 1 388 0
 1940 0852 8B01      		movw r16,r22
 1941 0854 0050      		subi r16,lo8(-(port+56))
 1942 0856 1040      		sbci r17,hi8(-(port+56))
 1943 0858 C801      		movw r24,r16
 1944 085a 0E94 0000 		call isEmpty
 1945               	.LVL213:
 1946 085e 8823      		tst r24
 1947 0860 01F0      		breq .L197
 389:/home/pthalamy/CMU/bench/benchmark/build/src-bobby/hw-block/hwDataLink.c ****             pPutChar(ACK | ODD, port[p].pnum);
 1948               		.loc 1 389 0
 1949 0862 6881      		ld r22,Y
 1950 0864 89E0      		ldi r24,lo8(9)
 1951 0866 0E94 0000 		call pPutChar
 1952               	.LVL214:
 1953 086a 4E85      		ldd r20,Y+14
 1954 086c 00C0      		rjmp .L196
 1955               	.L197:
 392:/home/pthalamy/CMU/bench/benchmark/build/src-bobby/hw-block/hwDataLink.c ****             push(ACK | ODD, &(port[p].tx));
 1956               		.loc 1 392 0
 1957 086e B801      		movw r22,r16
 1958 0870 89E0      		ldi r24,lo8(9)
 1959 0872 0E94 0000 		call push
 1960               	.LVL215:
 1961 0876 4E85      		ldd r20,Y+14
 1962 0878 00C0      		rjmp .L196
 1963               	.L199:
 401:/home/pthalamy/CMU/bench/benchmark/build/src-bobby/hw-block/hwDataLink.c ****             push(ACK | EVEN, &(port[p].tx));
 1964               		.loc 1 401 0
 1965 087a B801      		movw r22,r16
 1966 087c 88E0      		ldi r24,lo8(8)
 1967 087e 0E94 0000 		call push
 1968               	.LVL216:
 1969 0882 C050      		subi r28,lo8(-(port))
 1970 0884 D040      		sbci r29,hi8(-(port))
 1971 0886 4E85      		ldd r20,Y+14
 1972 0888 00C0      		rjmp .L198
 1973               		.cfi_endproc
 1974               	.LFE13:
 1976               	.global	initHWDataLink
 1978               	initHWDataLink:
 1979               	.LFB14:
 442:/home/pthalamy/CMU/bench/benchmark/build/src-bobby/hw-block/hwDataLink.c **** 
 443:/home/pthalamy/CMU/bench/benchmark/build/src-bobby/hw-block/hwDataLink.c **** // initialize
 444:/home/pthalamy/CMU/bench/benchmark/build/src-bobby/hw-block/hwDataLink.c **** void initHWDataLink(){
 1980               		.loc 1 444 0
 1981               		.cfi_startproc
 1982               	/* prologue: function */
 1983               	/* frame size = 0 */
 1984               	/* stack size = 0 */
 1985               	.L__stack_usage = 0
 1986 088a 0895      		ret
 1987               		.cfi_endproc
 1988               	.LFE14:
 1990               		.comm	wasEscapeStore,6,1
 1991               	.Letext0:
 1992               		.file 2 "/usr/lib/avr/include/stdint.h"
 1993               		.file 3 "/home/pthalamy/CMU/bench/benchmark/build/src-bobby/system/defs.bbh"
 1994               		.file 4 "/home/pthalamy/CMU/bench/benchmark/build/src-bobby/system/circ_buffer.bbh"
 1995               		.file 5 "/home/pthalamy/CMU/bench/benchmark/build/src-bobby/system/handler.bbh"
 1996               		.file 6 "/home/pthalamy/CMU/bench/benchmark/build/src-bobby/system/memory.bbh"
 1997               		.file 7 "/home/pthalamy/CMU/bench/benchmark/build/src-bobby/system/hardwaretime.bbh"
 1998               		.file 8 "/home/pthalamy/CMU/bench/benchmark/build/src-bobby/system/queues.bbh"
 1999               		.file 9 "/home/pthalamy/CMU/bench/benchmark/build/src-bobby/system/serial.bbh"
 2000               		.file 10 "/home/pthalamy/CMU/bench/benchmark/build/src-bobby/hw-block/../hw-api/hwDataLink.h"
 2001               		.file 11 "/home/pthalamy/CMU/bench/benchmark/build/src-bobby/hw-block/../hw-api/hwSerial.h"