   1               		.file	"hwDataLink.c"
   2               	__SP_H__ = 0x3e
   3               	__SP_L__ = 0x3d
   4               	__SREG__ = 0x3f
   5               	__RAMPZ__ = 0x3b
   6               	__CCP__ = 0x34
   7               	__tmp_reg__ = 0
   8               	__zero_reg__ = 1
   9               		.text
  10               	.Ltext0:
  11               		.cfi_sections	.debug_frame
  12               	.global	crcCalc
  14               	crcCalc:
  15               	.LFB6:
  16               		.file 1 "/Users/pthalamy/Studies/CMU/benchmark/build/src-bobby/hw-block/hwDataLink.c"
   1:/Users/pthalamy/Studies/CMU/benchmark/build/src-bobby/hw-block/hwDataLink.c **** #ifndef _HW_DATALINK_C_
   2:/Users/pthalamy/Studies/CMU/benchmark/build/src-bobby/hw-block/hwDataLink.c **** #define _HW_DATALINK_C_
   3:/Users/pthalamy/Studies/CMU/benchmark/build/src-bobby/hw-block/hwDataLink.c **** 
   4:/Users/pthalamy/Studies/CMU/benchmark/build/src-bobby/hw-block/hwDataLink.c **** #include "../hw-api/hwDataLink.h"
   5:/Users/pthalamy/Studies/CMU/benchmark/build/src-bobby/hw-block/hwDataLink.c **** #include "../hw-api/hwSerial.h"
   6:/Users/pthalamy/Studies/CMU/benchmark/build/src-bobby/hw-block/hwDataLink.c **** #include "../system/ensemble.h"
   7:/Users/pthalamy/Studies/CMU/benchmark/build/src-bobby/hw-block/hwDataLink.c **** #include "../system/serial.h"
   8:/Users/pthalamy/Studies/CMU/benchmark/build/src-bobby/hw-block/hwDataLink.c **** 
   9:/Users/pthalamy/Studies/CMU/benchmark/build/src-bobby/hw-block/hwDataLink.c **** #define CRC_POLY        0xA6
  10:/Users/pthalamy/Studies/CMU/benchmark/build/src-bobby/hw-block/hwDataLink.c **** 
  11:/Users/pthalamy/Studies/CMU/benchmark/build/src-bobby/hw-block/hwDataLink.c **** // store if received an escape char
  12:/Users/pthalamy/Studies/CMU/benchmark/build/src-bobby/hw-block/hwDataLink.c **** byte   wasEscapeStore[NUM_PORTS];
  13:/Users/pthalamy/Studies/CMU/benchmark/build/src-bobby/hw-block/hwDataLink.c **** 
  14:/Users/pthalamy/Studies/CMU/benchmark/build/src-bobby/hw-block/hwDataLink.c **** extern ReceivePacketQueue globalRq;
  15:/Users/pthalamy/Studies/CMU/benchmark/build/src-bobby/hw-block/hwDataLink.c **** extern Port port[NUM_PORTS];
  16:/Users/pthalamy/Studies/CMU/benchmark/build/src-bobby/hw-block/hwDataLink.c **** 
  17:/Users/pthalamy/Studies/CMU/benchmark/build/src-bobby/hw-block/hwDataLink.c **** // calculates part of crc
  18:/Users/pthalamy/Studies/CMU/benchmark/build/src-bobby/hw-block/hwDataLink.c **** byte crcCalc(byte currCrc, byte newVal)
  19:/Users/pthalamy/Studies/CMU/benchmark/build/src-bobby/hw-block/hwDataLink.c **** {
  17               		.loc 1 19 0
  18               		.cfi_startproc
  19               	.LVL0:
  20               	/* prologue: function */
  21               	/* frame size = 0 */
  22               	/* stack size = 0 */
  23               	.L__stack_usage = 0
  20:/Users/pthalamy/Studies/CMU/benchmark/build/src-bobby/hw-block/hwDataLink.c ****     byte crc = currCrc;
  21:/Users/pthalamy/Studies/CMU/benchmark/build/src-bobby/hw-block/hwDataLink.c **** 	int i;
  22:/Users/pthalamy/Studies/CMU/benchmark/build/src-bobby/hw-block/hwDataLink.c **** 	
  23:/Users/pthalamy/Studies/CMU/benchmark/build/src-bobby/hw-block/hwDataLink.c **** 	crc ^= newVal;
  24               		.loc 1 23 0
  25 0000 6827      		eor r22,r24
  26               	.LVL1:
  24:/Users/pthalamy/Studies/CMU/benchmark/build/src-bobby/hw-block/hwDataLink.c ****     for (i=0; i<8; i++)
  25:/Users/pthalamy/Studies/CMU/benchmark/build/src-bobby/hw-block/hwDataLink.c **** 	{
  26:/Users/pthalamy/Studies/CMU/benchmark/build/src-bobby/hw-block/hwDataLink.c ****         if (0x80 & crc) {
  27:/Users/pthalamy/Studies/CMU/benchmark/build/src-bobby/hw-block/hwDataLink.c ****             crc = (crc << 1) ^ CRC_POLY;
  27               		.loc 1 27 0
  28 0002 262F      		mov r18,r22
  29 0004 30E0      		ldi r19,0
  30 0006 220F      		lsl r18
  31 0008 331F      		rol r19
  32 000a 86EA      		ldi r24,166
  33 000c 2827      		eor r18,r24
  34 000e 3095      		com r19
  35               	.LVL2:
  28:/Users/pthalamy/Studies/CMU/benchmark/build/src-bobby/hw-block/hwDataLink.c ****         }
  29:/Users/pthalamy/Studies/CMU/benchmark/build/src-bobby/hw-block/hwDataLink.c **** 		else {
  30:/Users/pthalamy/Studies/CMU/benchmark/build/src-bobby/hw-block/hwDataLink.c ****             crc = crc << 1;
  36               		.loc 1 30 0
  37 0010 862F      		mov r24,r22
  38 0012 880F      		lsl r24
  39 0014 67FD      		sbrc r22,7
  40 0016 00C0      		rjmp .L19
  41 0018 382F      		mov r19,r24
  42               	.L3:
  43               	.LVL3:
  27:/Users/pthalamy/Studies/CMU/benchmark/build/src-bobby/hw-block/hwDataLink.c ****             crc = (crc << 1) ^ CRC_POLY;
  44               		.loc 1 27 0
  45 001a 832F      		mov r24,r19
  46 001c 90E0      		ldi r25,0
  47 001e 880F      		lsl r24
  48 0020 991F      		rol r25
  49 0022 26EA      		ldi r18,166
  50 0024 8227      		eor r24,r18
  51 0026 9095      		com r25
  52               	.LVL4:
  53               		.loc 1 30 0
  54 0028 232F      		mov r18,r19
  55 002a 220F      		lsl r18
  56 002c 37FD      		sbrc r19,7
  57 002e 00C0      		rjmp .L20
  58               	.L5:
  59               	.LVL5:
  27:/Users/pthalamy/Studies/CMU/benchmark/build/src-bobby/hw-block/hwDataLink.c ****             crc = (crc << 1) ^ CRC_POLY;
  60               		.loc 1 27 0
  61 0030 822F      		mov r24,r18
  62 0032 90E0      		ldi r25,0
  63 0034 880F      		lsl r24
  64 0036 991F      		rol r25
  65 0038 36EA      		ldi r19,166
  66 003a 8327      		eor r24,r19
  67 003c 9095      		com r25
  68               	.LVL6:
  69               		.loc 1 30 0
  70 003e 322F      		mov r19,r18
  71 0040 330F      		lsl r19
  72 0042 27FD      		sbrc r18,7
  73 0044 00C0      		rjmp .L21
  74               	.L7:
  75               	.LVL7:
  27:/Users/pthalamy/Studies/CMU/benchmark/build/src-bobby/hw-block/hwDataLink.c ****             crc = (crc << 1) ^ CRC_POLY;
  76               		.loc 1 27 0
  77 0046 832F      		mov r24,r19
  78 0048 90E0      		ldi r25,0
  79 004a 880F      		lsl r24
  80 004c 991F      		rol r25
  81 004e 26EA      		ldi r18,166
  82 0050 8227      		eor r24,r18
  83 0052 9095      		com r25
  84               	.LVL8:
  85               		.loc 1 30 0
  86 0054 232F      		mov r18,r19
  87 0056 220F      		lsl r18
  88 0058 37FD      		sbrc r19,7
  89 005a 00C0      		rjmp .L22
  90               	.L9:
  91               	.LVL9:
  27:/Users/pthalamy/Studies/CMU/benchmark/build/src-bobby/hw-block/hwDataLink.c ****             crc = (crc << 1) ^ CRC_POLY;
  92               		.loc 1 27 0
  93 005c 822F      		mov r24,r18
  94 005e 90E0      		ldi r25,0
  95 0060 880F      		lsl r24
  96 0062 991F      		rol r25
  97 0064 36EA      		ldi r19,166
  98 0066 8327      		eor r24,r19
  99 0068 9095      		com r25
 100               	.LVL10:
 101               		.loc 1 30 0
 102 006a 322F      		mov r19,r18
 103 006c 330F      		lsl r19
 104 006e 27FD      		sbrc r18,7
 105 0070 00C0      		rjmp .L23
 106               	.L11:
 107               	.LVL11:
  27:/Users/pthalamy/Studies/CMU/benchmark/build/src-bobby/hw-block/hwDataLink.c ****             crc = (crc << 1) ^ CRC_POLY;
 108               		.loc 1 27 0
 109 0072 832F      		mov r24,r19
 110 0074 90E0      		ldi r25,0
 111 0076 880F      		lsl r24
 112 0078 991F      		rol r25
 113 007a 26EA      		ldi r18,166
 114 007c 8227      		eor r24,r18
 115 007e 9095      		com r25
 116               	.LVL12:
 117               		.loc 1 30 0
 118 0080 232F      		mov r18,r19
 119 0082 220F      		lsl r18
 120 0084 37FD      		sbrc r19,7
 121 0086 00C0      		rjmp .L24
 122               	.L13:
 123               	.LVL13:
  27:/Users/pthalamy/Studies/CMU/benchmark/build/src-bobby/hw-block/hwDataLink.c ****             crc = (crc << 1) ^ CRC_POLY;
 124               		.loc 1 27 0
 125 0088 822F      		mov r24,r18
 126 008a 90E0      		ldi r25,0
 127 008c 880F      		lsl r24
 128 008e 991F      		rol r25
 129 0090 36EA      		ldi r19,166
 130 0092 8327      		eor r24,r19
 131 0094 9095      		com r25
 132               	.LVL14:
 133               		.loc 1 30 0
 134 0096 322F      		mov r19,r18
 135 0098 330F      		lsl r19
 136 009a 27FF      		sbrs r18,7
 137 009c 832F      		mov r24,r19
 138               	.L15:
 139               	.LVL15:
  27:/Users/pthalamy/Studies/CMU/benchmark/build/src-bobby/hw-block/hwDataLink.c ****             crc = (crc << 1) ^ CRC_POLY;
 140               		.loc 1 27 0
 141 009e 282F      		mov r18,r24
 142 00a0 30E0      		ldi r19,0
 143 00a2 220F      		lsl r18
 144 00a4 331F      		rol r19
 145 00a6 96EA      		ldi r25,166
 146 00a8 2927      		eor r18,r25
 147 00aa 3095      		com r19
 148               	.LVL16:
 149               		.loc 1 30 0
 150 00ac 982F      		mov r25,r24
 151 00ae 990F      		lsl r25
  31:/Users/pthalamy/Studies/CMU/benchmark/build/src-bobby/hw-block/hwDataLink.c ****         }
  32:/Users/pthalamy/Studies/CMU/benchmark/build/src-bobby/hw-block/hwDataLink.c ****     }
  33:/Users/pthalamy/Studies/CMU/benchmark/build/src-bobby/hw-block/hwDataLink.c **** 	return crc;
 152               		.loc 1 33 0
 153 00b0 87FD      		sbrc r24,7
 154 00b2 00C0      		rjmp .L25
 155 00b4 892F      		mov r24,r25
  34:/Users/pthalamy/Studies/CMU/benchmark/build/src-bobby/hw-block/hwDataLink.c **** } 
 156               		.loc 1 34 0
 157 00b6 0895      		ret
 158               	.LVL17:
 159               	.L19:
 160 00b8 322F      		mov r19,r18
 161 00ba 00C0      		rjmp .L3
 162               	.LVL18:
 163               	.L25:
  33:/Users/pthalamy/Studies/CMU/benchmark/build/src-bobby/hw-block/hwDataLink.c **** 	return crc;
 164               		.loc 1 33 0
 165 00bc 822F      		mov r24,r18
 166 00be 0895      		ret
 167               	.L24:
 168 00c0 282F      		mov r18,r24
 169 00c2 00C0      		rjmp .L13
 170               	.L23:
 171 00c4 382F      		mov r19,r24
 172 00c6 00C0      		rjmp .L11
 173               	.L22:
 174 00c8 282F      		mov r18,r24
 175 00ca 00C0      		rjmp .L9
 176               	.L21:
 177 00cc 382F      		mov r19,r24
 178 00ce 00C0      		rjmp .L7
 179               	.L20:
 180 00d0 282F      		mov r18,r24
 181 00d2 00C0      		rjmp .L5
 182               		.cfi_endproc
 183               	.LFE6:
 185               	.global	ackHandler
 187               	ackHandler:
 188               	.LFB7:
  35:/Users/pthalamy/Studies/CMU/benchmark/build/src-bobby/hw-block/hwDataLink.c **** 
  36:/Users/pthalamy/Studies/CMU/benchmark/build/src-bobby/hw-block/hwDataLink.c **** // handles the ack byte and updates the packet queue
  37:/Users/pthalamy/Studies/CMU/benchmark/build/src-bobby/hw-block/hwDataLink.c **** //    (parity, timer, CTS)
  38:/Users/pthalamy/Studies/CMU/benchmark/build/src-bobby/hw-block/hwDataLink.c **** // inputs:  port received on
  39:/Users/pthalamy/Studies/CMU/benchmark/build/src-bobby/hw-block/hwDataLink.c **** // returns: nothing
  40:/Users/pthalamy/Studies/CMU/benchmark/build/src-bobby/hw-block/hwDataLink.c **** void ackHandler(PRef p)
  41:/Users/pthalamy/Studies/CMU/benchmark/build/src-bobby/hw-block/hwDataLink.c **** {
 189               		.loc 1 41 0
 190               		.cfi_startproc
 191               	.LVL19:
 192 00d4 0F93      		push r16
 193               	.LCFI0:
 194               		.cfi_def_cfa_offset 4
 195               		.cfi_offset 16, -3
 196 00d6 1F93      		push r17
 197               	.LCFI1:
 198               		.cfi_def_cfa_offset 5
 199               		.cfi_offset 17, -4
 200 00d8 CF93      		push r28
 201               	.LCFI2:
 202               		.cfi_def_cfa_offset 6
 203               		.cfi_offset 28, -5
 204 00da DF93      		push r29
 205               	.LCFI3:
 206               		.cfi_def_cfa_offset 7
 207               		.cfi_offset 29, -6
 208               	/* prologue: function */
 209               	/* frame size = 0 */
 210               	/* stack size = 4 */
 211               	.L__stack_usage = 4
  42:/Users/pthalamy/Studies/CMU/benchmark/build/src-bobby/hw-block/hwDataLink.c ****     byte currParity = sendParity(port[p].sq);
 212               		.loc 1 42 0
 213 00dc 98E5      		ldi r25,lo8(88)
 214 00de 899F      		mul r24,r25
 215 00e0 8001      		movw r16,r0
 216 00e2 1124      		clr __zero_reg__
 217 00e4 E801      		movw r28,r16
 218 00e6 C050      		subi r28,lo8(-(port))
 219 00e8 D040      		sbci r29,hi8(-(port))
 220 00ea 4E85      		ldd r20,Y+14
 221               	.LVL20:
  43:/Users/pthalamy/Studies/CMU/benchmark/build/src-bobby/hw-block/hwDataLink.c ****     
  44:/Users/pthalamy/Studies/CMU/benchmark/build/src-bobby/hw-block/hwDataLink.c ****     // check for double acks (shouldn't ever happen)
  45:/Users/pthalamy/Studies/CMU/benchmark/build/src-bobby/hw-block/hwDataLink.c ****     if( !(gotOddAck(port[p].rq) ^ gotEvenAck(port[p].rq)) ) 
 222               		.loc 1 45 0
 223 00ec 9D89      		ldd r25,Y+21
 224 00ee 292F      		mov r18,r25
 225 00f0 2695      		lsr r18
 226 00f2 322F      		mov r19,r18
 227 00f4 3927      		eor r19,r25
  46:/Users/pthalamy/Studies/CMU/benchmark/build/src-bobby/hw-block/hwDataLink.c ****     {
  47:/Users/pthalamy/Studies/CMU/benchmark/build/src-bobby/hw-block/hwDataLink.c ****         clearReceivedAcks( port[p].rq );
 228               		.loc 1 47 0
 229 00f6 9C7F      		andi r25,lo8(-4)
 230 00f8 9D8B      		std Y+21,r25
  45:/Users/pthalamy/Studies/CMU/benchmark/build/src-bobby/hw-block/hwDataLink.c ****     if( !(gotOddAck(port[p].rq) ^ gotEvenAck(port[p].rq)) ) 
 231               		.loc 1 45 0
 232 00fa 30FF      		sbrs r19,0
 233 00fc 00C0      		rjmp .L26
 234               	.LVL21:
  42:/Users/pthalamy/Studies/CMU/benchmark/build/src-bobby/hw-block/hwDataLink.c ****     byte currParity = sendParity(port[p].sq);
 235               		.loc 1 42 0
 236 00fe 42FB      		bst r20,2
 237 0100 4427      		clr r20
 238 0102 40F9      		bld r20,0
 239               	.LVL22:
  48:/Users/pthalamy/Studies/CMU/benchmark/build/src-bobby/hw-block/hwDataLink.c ****         return;
  49:/Users/pthalamy/Studies/CMU/benchmark/build/src-bobby/hw-block/hwDataLink.c ****     }
  50:/Users/pthalamy/Studies/CMU/benchmark/build/src-bobby/hw-block/hwDataLink.c ****     byte recdParity = gotOddAck(port[p].rq);
 240               		.loc 1 50 0
 241 0104 2170      		andi r18,lo8(1)
 242               	.LVL23:
  51:/Users/pthalamy/Studies/CMU/benchmark/build/src-bobby/hw-block/hwDataLink.c ****     clearReceivedAcks( port[p].rq );
  52:/Users/pthalamy/Studies/CMU/benchmark/build/src-bobby/hw-block/hwDataLink.c ****     
  53:/Users/pthalamy/Studies/CMU/benchmark/build/src-bobby/hw-block/hwDataLink.c ****     // parity matches
  54:/Users/pthalamy/Studies/CMU/benchmark/build/src-bobby/hw-block/hwDataLink.c ****     if(currParity == recdParity)
 243               		.loc 1 54 0
 244 0106 4217      		cp r20,r18
 245 0108 01F0      		breq .L29
 246               	.LVL24:
 247               	.L26:
 248               	/* epilogue start */
  55:/Users/pthalamy/Studies/CMU/benchmark/build/src-bobby/hw-block/hwDataLink.c ****     {
  56:/Users/pthalamy/Studies/CMU/benchmark/build/src-bobby/hw-block/hwDataLink.c ****         // remove the Chunk, call callback with successfull response
  57:/Users/pthalamy/Studies/CMU/benchmark/build/src-bobby/hw-block/hwDataLink.c ****         removeFromSq(p, MSG_RESP_ACK);
  58:/Users/pthalamy/Studies/CMU/benchmark/build/src-bobby/hw-block/hwDataLink.c ****         
  59:/Users/pthalamy/Studies/CMU/benchmark/build/src-bobby/hw-block/hwDataLink.c ****         // reset the flags
  60:/Users/pthalamy/Studies/CMU/benchmark/build/src-bobby/hw-block/hwDataLink.c ****         port[p].sq.retry    = NUM_RETRIES;
  61:/Users/pthalamy/Studies/CMU/benchmark/build/src-bobby/hw-block/hwDataLink.c ****         flipParity(port[p].sq);
  62:/Users/pthalamy/Studies/CMU/benchmark/build/src-bobby/hw-block/hwDataLink.c ****         port[p].sq.flags   |= CLEAR_TO_SEND;
  63:/Users/pthalamy/Studies/CMU/benchmark/build/src-bobby/hw-block/hwDataLink.c ****         
  64:/Users/pthalamy/Studies/CMU/benchmark/build/src-bobby/hw-block/hwDataLink.c ****         // reset the timer
  65:/Users/pthalamy/Studies/CMU/benchmark/build/src-bobby/hw-block/hwDataLink.c ****         deregisterTimeout(&(port[p].sq.qtout.tout));
  66:/Users/pthalamy/Studies/CMU/benchmark/build/src-bobby/hw-block/hwDataLink.c ****     }
  67:/Users/pthalamy/Studies/CMU/benchmark/build/src-bobby/hw-block/hwDataLink.c ****     // else, parity error - don't do anything
  68:/Users/pthalamy/Studies/CMU/benchmark/build/src-bobby/hw-block/hwDataLink.c **** }
 249               		.loc 1 68 0
 250 010a DF91      		pop r29
 251 010c CF91      		pop r28
 252               	.LVL25:
 253 010e 1F91      		pop r17
 254 0110 0F91      		pop r16
 255               	.LVL26:
 256 0112 0895      		ret
 257               	.LVL27:
 258               	.L29:
  57:/Users/pthalamy/Studies/CMU/benchmark/build/src-bobby/hw-block/hwDataLink.c ****         removeFromSq(p, MSG_RESP_ACK);
 259               		.loc 1 57 0
 260 0114 68E0      		ldi r22,lo8(8)
 261 0116 0E94 0000 		call removeFromSq
 262               	.LVL28:
  60:/Users/pthalamy/Studies/CMU/benchmark/build/src-bobby/hw-block/hwDataLink.c ****         port[p].sq.retry    = NUM_RETRIES;
 263               		.loc 1 60 0
 264 011a 94E0      		ldi r25,lo8(4)
 265 011c 9D87      		std Y+13,r25
  61:/Users/pthalamy/Studies/CMU/benchmark/build/src-bobby/hw-block/hwDataLink.c ****         flipParity(port[p].sq);
 266               		.loc 1 61 0
 267 011e 8E85      		ldd r24,Y+14
 268 0120 8927      		eor r24,r25
  62:/Users/pthalamy/Studies/CMU/benchmark/build/src-bobby/hw-block/hwDataLink.c ****         port[p].sq.flags   |= CLEAR_TO_SEND;
 269               		.loc 1 62 0
 270 0122 8064      		ori r24,lo8(64)
 271 0124 8E87      		std Y+14,r24
  65:/Users/pthalamy/Studies/CMU/benchmark/build/src-bobby/hw-block/hwDataLink.c ****         deregisterTimeout(&(port[p].sq.qtout.tout));
 272               		.loc 1 65 0
 273 0126 C801      		movw r24,r16
 274 0128 8050      		subi r24,lo8(-(port+1))
 275 012a 9040      		sbci r25,hi8(-(port+1))
 276               	/* epilogue start */
 277               		.loc 1 68 0
 278 012c DF91      		pop r29
 279 012e CF91      		pop r28
 280 0130 1F91      		pop r17
 281 0132 0F91      		pop r16
  65:/Users/pthalamy/Studies/CMU/benchmark/build/src-bobby/hw-block/hwDataLink.c ****         deregisterTimeout(&(port[p].sq.qtout.tout));
 282               		.loc 1 65 0
 283 0134 0C94 0000 		jmp deregisterTimeout
 284               	.LVL29:
 285               		.cfi_endproc
 286               	.LFE7:
 288               	.global	addToGlobalRq
 290               	addToGlobalRq:
 291               	.LFB8:
  69:/Users/pthalamy/Studies/CMU/benchmark/build/src-bobby/hw-block/hwDataLink.c **** 
  70:/Users/pthalamy/Studies/CMU/benchmark/build/src-bobby/hw-block/hwDataLink.c **** // adds a Chunk to the global receive queue
  71:/Users/pthalamy/Studies/CMU/benchmark/build/src-bobby/hw-block/hwDataLink.c **** void addToGlobalRq(Chunk* c)
  72:/Users/pthalamy/Studies/CMU/benchmark/build/src-bobby/hw-block/hwDataLink.c **** {
 292               		.loc 1 72 0
 293               		.cfi_startproc
 294               	.LVL30:
 295               	/* prologue: function */
 296               	/* frame size = 0 */
 297               	/* stack size = 0 */
 298               	.L__stack_usage = 0
  73:/Users/pthalamy/Studies/CMU/benchmark/build/src-bobby/hw-block/hwDataLink.c ****     // nothing to add
  74:/Users/pthalamy/Studies/CMU/benchmark/build/src-bobby/hw-block/hwDataLink.c ****     if( c == NULL ) 
 299               		.loc 1 74 0
 300 0138 0097      		sbiw r24,0
 301 013a 01F0      		breq .L30
  75:/Users/pthalamy/Studies/CMU/benchmark/build/src-bobby/hw-block/hwDataLink.c ****     {
  76:/Users/pthalamy/Studies/CMU/benchmark/build/src-bobby/hw-block/hwDataLink.c ****         return;
  77:/Users/pthalamy/Studies/CMU/benchmark/build/src-bobby/hw-block/hwDataLink.c ****     }
  78:/Users/pthalamy/Studies/CMU/benchmark/build/src-bobby/hw-block/hwDataLink.c ****         
  79:/Users/pthalamy/Studies/CMU/benchmark/build/src-bobby/hw-block/hwDataLink.c ****     // isolate Chunk
  80:/Users/pthalamy/Studies/CMU/benchmark/build/src-bobby/hw-block/hwDataLink.c ****     c->next = NULL;
 302               		.loc 1 80 0
 303 013c FC01      		movw r30,r24
 304 013e 128A      		std Z+18,__zero_reg__
 305 0140 138A      		std Z+19,__zero_reg__
  81:/Users/pthalamy/Studies/CMU/benchmark/build/src-bobby/hw-block/hwDataLink.c ****     
  82:/Users/pthalamy/Studies/CMU/benchmark/build/src-bobby/hw-block/hwDataLink.c ****     // update pointers
  83:/Users/pthalamy/Studies/CMU/benchmark/build/src-bobby/hw-block/hwDataLink.c ****     if( globalRq.head == NULL ) 
 306               		.loc 1 83 0
 307 0142 2091 0000 		lds r18,globalRq
 308 0146 3091 0000 		lds r19,globalRq+1
 309 014a 232B      		or r18,r19
 310 014c 01F0      		breq .L37
  84:/Users/pthalamy/Studies/CMU/benchmark/build/src-bobby/hw-block/hwDataLink.c ****     {
  85:/Users/pthalamy/Studies/CMU/benchmark/build/src-bobby/hw-block/hwDataLink.c ****         globalRq.head = c;
  86:/Users/pthalamy/Studies/CMU/benchmark/build/src-bobby/hw-block/hwDataLink.c ****     }
  87:/Users/pthalamy/Studies/CMU/benchmark/build/src-bobby/hw-block/hwDataLink.c ****     else 
  88:/Users/pthalamy/Studies/CMU/benchmark/build/src-bobby/hw-block/hwDataLink.c ****     {
  89:/Users/pthalamy/Studies/CMU/benchmark/build/src-bobby/hw-block/hwDataLink.c ****         globalRq.tail->next = c;
 311               		.loc 1 89 0
 312 014e E091 0000 		lds r30,globalRq+2
 313 0152 F091 0000 		lds r31,globalRq+2+1
 314 0156 828B      		std Z+18,r24
 315 0158 938B      		std Z+19,r25
 316               	.L33:
  90:/Users/pthalamy/Studies/CMU/benchmark/build/src-bobby/hw-block/hwDataLink.c ****     }
  91:/Users/pthalamy/Studies/CMU/benchmark/build/src-bobby/hw-block/hwDataLink.c ****     
  92:/Users/pthalamy/Studies/CMU/benchmark/build/src-bobby/hw-block/hwDataLink.c ****     // add/flag it
  93:/Users/pthalamy/Studies/CMU/benchmark/build/src-bobby/hw-block/hwDataLink.c ****     globalRq.tail  = c;
 317               		.loc 1 93 0
 318 015a 8093 0000 		sts globalRq+2,r24
 319 015e 9093 0000 		sts globalRq+2+1,r25
  94:/Users/pthalamy/Studies/CMU/benchmark/build/src-bobby/hw-block/hwDataLink.c ****     globalRq.flags = PACKET_READY;
 320               		.loc 1 94 0
 321 0162 80E8      		ldi r24,lo8(-128)
 322               	.LVL31:
 323 0164 8093 0000 		sts globalRq+4,r24
 324               	.LVL32:
 325               	.L30:
 326 0168 0895      		ret
 327               	.LVL33:
 328               	.L37:
  85:/Users/pthalamy/Studies/CMU/benchmark/build/src-bobby/hw-block/hwDataLink.c ****         globalRq.head = c;
 329               		.loc 1 85 0
 330 016a 8093 0000 		sts globalRq,r24
 331 016e 9093 0000 		sts globalRq+1,r25
 332 0172 00C0      		rjmp .L33
 333               		.cfi_endproc
 334               	.LFE8:
 336               	.global	isSpecial
 338               	isSpecial:
 339               	.LFB9:
  95:/Users/pthalamy/Studies/CMU/benchmark/build/src-bobby/hw-block/hwDataLink.c **** }
  96:/Users/pthalamy/Studies/CMU/benchmark/build/src-bobby/hw-block/hwDataLink.c **** 
  97:/Users/pthalamy/Studies/CMU/benchmark/build/src-bobby/hw-block/hwDataLink.c **** // check to see if character is special
  98:/Users/pthalamy/Studies/CMU/benchmark/build/src-bobby/hw-block/hwDataLink.c **** byte isSpecial(byte val)
  99:/Users/pthalamy/Studies/CMU/benchmark/build/src-bobby/hw-block/hwDataLink.c **** {
 340               		.loc 1 99 0
 341               		.cfi_startproc
 342               	.LVL34:
 343               	/* prologue: function */
 344               	/* frame size = 0 */
 345               	/* stack size = 0 */
 346               	.L__stack_usage = 0
 100:/Users/pthalamy/Studies/CMU/benchmark/build/src-bobby/hw-block/hwDataLink.c ****     if( ((val & ACK_MASK) == ACK   ) || ((val & ACK_MASK) == NACK  ) ||
 347               		.loc 1 100 0
 348 0174 982F      		mov r25,r24
 349 0176 9E7F      		andi r25,lo8(-2)
 350 0178 9830      		cpi r25,lo8(8)
 351 017a 01F0      		breq .L43
 352               		.loc 1 100 0 is_stmt 0 discriminator 1
 353 017c 9A30      		cpi r25,lo8(10)
 354 017e 01F0      		breq .L43
 355 0180 9231      		cpi r25,lo8(18)
 356 0182 01F0      		breq .L43
 101:/Users/pthalamy/Studies/CMU/benchmark/build/src-bobby/hw-block/hwDataLink.c ****         ((val & FD_MASK)  == FD    ) || (val              == ESCAPE )   )
 357               		.loc 1 101 0 is_stmt 1
 358 0184 91E0      		ldi r25,lo8(1)
 359 0186 8D37      		cpi r24,lo8(125)
 360 0188 01F0      		breq .L39
 361 018a 90E0      		ldi r25,0
 362               	.L39:
 102:/Users/pthalamy/Studies/CMU/benchmark/build/src-bobby/hw-block/hwDataLink.c ****     {
 103:/Users/pthalamy/Studies/CMU/benchmark/build/src-bobby/hw-block/hwDataLink.c ****         return 1;
 104:/Users/pthalamy/Studies/CMU/benchmark/build/src-bobby/hw-block/hwDataLink.c ****     }
 105:/Users/pthalamy/Studies/CMU/benchmark/build/src-bobby/hw-block/hwDataLink.c ****         
 106:/Users/pthalamy/Studies/CMU/benchmark/build/src-bobby/hw-block/hwDataLink.c ****     return 0;
 107:/Users/pthalamy/Studies/CMU/benchmark/build/src-bobby/hw-block/hwDataLink.c **** }
 363               		.loc 1 107 0
 364 018c 892F      		mov r24,r25
 365               	.LVL35:
 366 018e 0895      		ret
 367               	.LVL36:
 368               	.L43:
 103:/Users/pthalamy/Studies/CMU/benchmark/build/src-bobby/hw-block/hwDataLink.c ****         return 1;
 369               		.loc 1 103 0
 370 0190 91E0      		ldi r25,lo8(1)
 371               		.loc 1 107 0
 372 0192 892F      		mov r24,r25
 373               	.LVL37:
 374 0194 0895      		ret
 375               		.cfi_endproc
 376               	.LFE9:
 378               	.global	sendToBuffer
 380               	sendToBuffer:
 381               	.LFB10:
 108:/Users/pthalamy/Studies/CMU/benchmark/build/src-bobby/hw-block/hwDataLink.c **** 
 109:/Users/pthalamy/Studies/CMU/benchmark/build/src-bobby/hw-block/hwDataLink.c **** // makes the Chunk into the correct send string
 110:/Users/pthalamy/Studies/CMU/benchmark/build/src-bobby/hw-block/hwDataLink.c **** void sendToBuffer(PRef p, Chunk* c, byte parity)
 111:/Users/pthalamy/Studies/CMU/benchmark/build/src-bobby/hw-block/hwDataLink.c **** {
 382               		.loc 1 111 0
 383               		.cfi_startproc
 384               	.LVL38:
 385 0196 6F92      		push r6
 386               	.LCFI4:
 387               		.cfi_def_cfa_offset 4
 388               		.cfi_offset 6, -3
 389 0198 7F92      		push r7
 390               	.LCFI5:
 391               		.cfi_def_cfa_offset 5
 392               		.cfi_offset 7, -4
 393 019a 9F92      		push r9
 394               	.LCFI6:
 395               		.cfi_def_cfa_offset 6
 396               		.cfi_offset 9, -5
 397 019c AF92      		push r10
 398               	.LCFI7:
 399               		.cfi_def_cfa_offset 7
 400               		.cfi_offset 10, -6
 401 019e BF92      		push r11
 402               	.LCFI8:
 403               		.cfi_def_cfa_offset 8
 404               		.cfi_offset 11, -7
 405 01a0 CF92      		push r12
 406               	.LCFI9:
 407               		.cfi_def_cfa_offset 9
 408               		.cfi_offset 12, -8
 409 01a2 DF92      		push r13
 410               	.LCFI10:
 411               		.cfi_def_cfa_offset 10
 412               		.cfi_offset 13, -9
 413 01a4 EF92      		push r14
 414               	.LCFI11:
 415               		.cfi_def_cfa_offset 11
 416               		.cfi_offset 14, -10
 417 01a6 FF92      		push r15
 418               	.LCFI12:
 419               		.cfi_def_cfa_offset 12
 420               		.cfi_offset 15, -11
 421 01a8 0F93      		push r16
 422               	.LCFI13:
 423               		.cfi_def_cfa_offset 13
 424               		.cfi_offset 16, -12
 425 01aa 1F93      		push r17
 426               	.LCFI14:
 427               		.cfi_def_cfa_offset 14
 428               		.cfi_offset 17, -13
 429 01ac CF93      		push r28
 430               	.LCFI15:
 431               		.cfi_def_cfa_offset 15
 432               		.cfi_offset 28, -14
 433 01ae DF93      		push r29
 434               	.LCFI16:
 435               		.cfi_def_cfa_offset 16
 436               		.cfi_offset 29, -15
 437 01b0 1F92      		push __zero_reg__
 438               	.LCFI17:
 439               		.cfi_def_cfa_offset 17
 440 01b2 CDB7      		in r28,__SP_L__
 441 01b4 DEB7      		in r29,__SP_H__
 442               	.LCFI18:
 443               		.cfi_def_cfa_register 28
 444               	/* prologue: function */
 445               	/* frame size = 1 */
 446               	/* stack size = 14 */
 447               	.L__stack_usage = 14
 448 01b6 3B01      		movw r6,r22
 449               	.LVL39:
 112:/Users/pthalamy/Studies/CMU/benchmark/build/src-bobby/hw-block/hwDataLink.c ****     byte checksum = 0;
 113:/Users/pthalamy/Studies/CMU/benchmark/build/src-bobby/hw-block/hwDataLink.c ****     byte val;
 114:/Users/pthalamy/Studies/CMU/benchmark/build/src-bobby/hw-block/hwDataLink.c ****     byte i;
 115:/Users/pthalamy/Studies/CMU/benchmark/build/src-bobby/hw-block/hwDataLink.c ****     byte delim;
 116:/Users/pthalamy/Studies/CMU/benchmark/build/src-bobby/hw-block/hwDataLink.c ****     
 117:/Users/pthalamy/Studies/CMU/benchmark/build/src-bobby/hw-block/hwDataLink.c ****     if(c == NULL)
 450               		.loc 1 117 0
 451 01b8 6115      		cp r22,__zero_reg__
 452 01ba 7105      		cpc r23,__zero_reg__
 453 01bc 01F4      		brne .+2
 454 01be 00C0      		rjmp .L47
 118:/Users/pthalamy/Studies/CMU/benchmark/build/src-bobby/hw-block/hwDataLink.c ****     {
 119:/Users/pthalamy/Studies/CMU/benchmark/build/src-bobby/hw-block/hwDataLink.c ****         return;
 120:/Users/pthalamy/Studies/CMU/benchmark/build/src-bobby/hw-block/hwDataLink.c ****     }
 121:/Users/pthalamy/Studies/CMU/benchmark/build/src-bobby/hw-block/hwDataLink.c **** 	
 122:/Users/pthalamy/Studies/CMU/benchmark/build/src-bobby/hw-block/hwDataLink.c ****     // send FD
 123:/Users/pthalamy/Studies/CMU/benchmark/build/src-bobby/hw-block/hwDataLink.c ****     delim = (FD | parity);
 455               		.loc 1 123 0
 456 01c0 92E1      		ldi r25,lo8(18)
 457 01c2 C92E      		mov r12,r25
 458 01c4 C42A      		or r12,r20
 459               	.LVL40:
 460 01c6 E82E      		mov r14,r24
 461 01c8 F12C      		mov r15,__zero_reg__
 124:/Users/pthalamy/Studies/CMU/benchmark/build/src-bobby/hw-block/hwDataLink.c **** 
 125:/Users/pthalamy/Studies/CMU/benchmark/build/src-bobby/hw-block/hwDataLink.c ****     // send messageHandler
 126:/Users/pthalamy/Studies/CMU/benchmark/build/src-bobby/hw-block/hwDataLink.c ****     for(i=0; i<POINTER_SIZE; i++)
 127:/Users/pthalamy/Studies/CMU/benchmark/build/src-bobby/hw-block/hwDataLink.c ****     {
 128:/Users/pthalamy/Studies/CMU/benchmark/build/src-bobby/hw-block/hwDataLink.c ****         val = c->handler[i];
 462               		.loc 1 128 0
 463 01ca FB01      		movw r30,r22
 464 01cc 9489      		ldd r25,Z+20
 465               	.LVL41:
 466               	.LBB18:
 467               	.LBB19:
  27:/Users/pthalamy/Studies/CMU/benchmark/build/src-bobby/hw-block/hwDataLink.c ****             crc = (crc << 1) ^ CRC_POLY;
 468               		.loc 1 27 0
 469 01ce 292F      		mov r18,r25
  26:/Users/pthalamy/Studies/CMU/benchmark/build/src-bobby/hw-block/hwDataLink.c ****         if (0x80 & crc) {
 470               		.loc 1 26 0
 471 01d0 97FD      		sbrc r25,7
 472 01d2 00C0      		rjmp .L159
  30:/Users/pthalamy/Studies/CMU/benchmark/build/src-bobby/hw-block/hwDataLink.c ****             crc = crc << 1;
 473               		.loc 1 30 0
 474 01d4 220F      		lsl r18
 475               	.LVL42:
 476               	.L50:
  26:/Users/pthalamy/Studies/CMU/benchmark/build/src-bobby/hw-block/hwDataLink.c ****         if (0x80 & crc) {
 477               		.loc 1 26 0
 478 01d6 27FD      		sbrc r18,7
 479 01d8 00C0      		rjmp .L160
  30:/Users/pthalamy/Studies/CMU/benchmark/build/src-bobby/hw-block/hwDataLink.c ****             crc = crc << 1;
 480               		.loc 1 30 0
 481 01da 220F      		lsl r18
 482               	.LVL43:
 483               	.L52:
  26:/Users/pthalamy/Studies/CMU/benchmark/build/src-bobby/hw-block/hwDataLink.c ****         if (0x80 & crc) {
 484               		.loc 1 26 0
 485 01dc 27FD      		sbrc r18,7
 486 01de 00C0      		rjmp .L161
  30:/Users/pthalamy/Studies/CMU/benchmark/build/src-bobby/hw-block/hwDataLink.c ****             crc = crc << 1;
 487               		.loc 1 30 0
 488 01e0 220F      		lsl r18
 489               	.LVL44:
 490               	.L54:
  26:/Users/pthalamy/Studies/CMU/benchmark/build/src-bobby/hw-block/hwDataLink.c ****         if (0x80 & crc) {
 491               		.loc 1 26 0
 492 01e2 27FD      		sbrc r18,7
 493 01e4 00C0      		rjmp .L162
  30:/Users/pthalamy/Studies/CMU/benchmark/build/src-bobby/hw-block/hwDataLink.c ****             crc = crc << 1;
 494               		.loc 1 30 0
 495 01e6 220F      		lsl r18
 496               	.LVL45:
 497               	.L56:
  26:/Users/pthalamy/Studies/CMU/benchmark/build/src-bobby/hw-block/hwDataLink.c ****         if (0x80 & crc) {
 498               		.loc 1 26 0
 499 01e8 27FD      		sbrc r18,7
 500 01ea 00C0      		rjmp .L163
  30:/Users/pthalamy/Studies/CMU/benchmark/build/src-bobby/hw-block/hwDataLink.c ****             crc = crc << 1;
 501               		.loc 1 30 0
 502 01ec 220F      		lsl r18
 503               	.LVL46:
 504               	.L58:
  26:/Users/pthalamy/Studies/CMU/benchmark/build/src-bobby/hw-block/hwDataLink.c ****         if (0x80 & crc) {
 505               		.loc 1 26 0
 506 01ee 27FD      		sbrc r18,7
 507 01f0 00C0      		rjmp .L164
  30:/Users/pthalamy/Studies/CMU/benchmark/build/src-bobby/hw-block/hwDataLink.c ****             crc = crc << 1;
 508               		.loc 1 30 0
 509 01f2 220F      		lsl r18
 510               	.LVL47:
 511               	.L60:
  26:/Users/pthalamy/Studies/CMU/benchmark/build/src-bobby/hw-block/hwDataLink.c ****         if (0x80 & crc) {
 512               		.loc 1 26 0
 513 01f4 27FD      		sbrc r18,7
 514 01f6 00C0      		rjmp .L165
  30:/Users/pthalamy/Studies/CMU/benchmark/build/src-bobby/hw-block/hwDataLink.c ****             crc = crc << 1;
 515               		.loc 1 30 0
 516 01f8 220F      		lsl r18
 517               	.LVL48:
 518               	.L62:
  26:/Users/pthalamy/Studies/CMU/benchmark/build/src-bobby/hw-block/hwDataLink.c ****         if (0x80 & crc) {
 519               		.loc 1 26 0
 520 01fa 27FD      		sbrc r18,7
 521 01fc 00C0      		rjmp .L166
  30:/Users/pthalamy/Studies/CMU/benchmark/build/src-bobby/hw-block/hwDataLink.c ****             crc = crc << 1;
 522               		.loc 1 30 0
 523 01fe D22E      		mov r13,r18
 524 0200 DD0C      		lsl r13
 525               	.LVL49:
 526               	.L64:
 527               	.LBE19:
 528               	.LBE18:
 529               	.LBB38:
 100:/Users/pthalamy/Studies/CMU/benchmark/build/src-bobby/hw-block/hwDataLink.c ****     if( ((val & ACK_MASK) == ACK   ) || ((val & ACK_MASK) == NACK  ) ||
 530               		.loc 1 100 0
 531 0202 892F      		mov r24,r25
 532 0204 8E7F      		andi r24,lo8(-2)
 533               	.LBB39:
 534 0206 8830      		cpi r24,lo8(8)
 535 0208 01F4      		brne .+2
 536 020a 00C0      		rjmp .L67
 537 020c 8A30      		cpi r24,lo8(10)
 538 020e 01F4      		brne .+2
 539 0210 00C0      		rjmp .L67
 540 0212 8231      		cpi r24,lo8(18)
 541 0214 01F4      		brne .+2
 542 0216 00C0      		rjmp .L67
 101:/Users/pthalamy/Studies/CMU/benchmark/build/src-bobby/hw-block/hwDataLink.c ****         ((val & FD_MASK)  == FD    ) || (val              == ESCAPE )   )
 543               		.loc 1 101 0
 544 0218 9D37      		cpi r25,lo8(125)
 545 021a 01F4      		brne .+2
 546 021c 00C0      		rjmp .L67
 547               	.LBE39:
 548               	.LBE38:
 129:/Users/pthalamy/Studies/CMU/benchmark/build/src-bobby/hw-block/hwDataLink.c ****         checksum = crcCalc(checksum, val);
 130:/Users/pthalamy/Studies/CMU/benchmark/build/src-bobby/hw-block/hwDataLink.c ****         
 131:/Users/pthalamy/Studies/CMU/benchmark/build/src-bobby/hw-block/hwDataLink.c ****         // escape it
 132:/Users/pthalamy/Studies/CMU/benchmark/build/src-bobby/hw-block/hwDataLink.c ****         if( isSpecial(val) ) 
 133:/Users/pthalamy/Studies/CMU/benchmark/build/src-bobby/hw-block/hwDataLink.c ****         {
 134:/Users/pthalamy/Studies/CMU/benchmark/build/src-bobby/hw-block/hwDataLink.c ****             push(ESCAPE, &(port[p].tx));
 135:/Users/pthalamy/Studies/CMU/benchmark/build/src-bobby/hw-block/hwDataLink.c ****             push(val^ESCAPE_CHAR, &(port[p].tx));
 136:/Users/pthalamy/Studies/CMU/benchmark/build/src-bobby/hw-block/hwDataLink.c ****         }
 137:/Users/pthalamy/Studies/CMU/benchmark/build/src-bobby/hw-block/hwDataLink.c ****         // send regular
 138:/Users/pthalamy/Studies/CMU/benchmark/build/src-bobby/hw-block/hwDataLink.c ****         else 
 139:/Users/pthalamy/Studies/CMU/benchmark/build/src-bobby/hw-block/hwDataLink.c ****         {
 140:/Users/pthalamy/Studies/CMU/benchmark/build/src-bobby/hw-block/hwDataLink.c ****             push(val, &(port[p].tx));
 549               		.loc 1 140 0
 550 021e 88E5      		ldi r24,lo8(88)
 551 0220 8E9D      		mul r24,r14
 552 0222 B001      		movw r22,r0
 553 0224 8F9D      		mul r24,r15
 554 0226 700D      		add r23,r0
 555 0228 1124      		clr __zero_reg__
 556 022a 6050      		subi r22,lo8(-(port+56))
 557 022c 7040      		sbci r23,hi8(-(port+56))
 558 022e 892F      		mov r24,r25
 559 0230 0E94 0000 		call push
 560               	.LVL50:
 128:/Users/pthalamy/Studies/CMU/benchmark/build/src-bobby/hw-block/hwDataLink.c ****         val = c->handler[i];
 561               		.loc 1 128 0
 562 0234 F301      		movw r30,r6
 563 0236 9589      		ldd r25,Z+21
 564               	.LVL51:
 565               	.LBB42:
 566               	.LBB20:
  23:/Users/pthalamy/Studies/CMU/benchmark/build/src-bobby/hw-block/hwDataLink.c **** 	crc ^= newVal;
 567               		.loc 1 23 0
 568 0238 292F      		mov r18,r25
 569 023a 2D25      		eor r18,r13
 570               	.LVL52:
  26:/Users/pthalamy/Studies/CMU/benchmark/build/src-bobby/hw-block/hwDataLink.c ****         if (0x80 & crc) {
 571               		.loc 1 26 0
 572 023c 27FF      		sbrs r18,7
 573 023e 00C0      		rjmp .L167
 574               	.L68:
  27:/Users/pthalamy/Studies/CMU/benchmark/build/src-bobby/hw-block/hwDataLink.c ****             crc = (crc << 1) ^ CRC_POLY;
 575               		.loc 1 27 0
 576 0240 30E0      		ldi r19,0
 577 0242 220F      		lsl r18
 578 0244 331F      		rol r19
 579               	.LVL53:
 580               	.LBE20:
 581 0246 F6EA      		ldi r31,166
 582 0248 2F27      		eor r18,r31
 583 024a 3095      		com r19
 584               	.LVL54:
 585               	.LBB21:
  26:/Users/pthalamy/Studies/CMU/benchmark/build/src-bobby/hw-block/hwDataLink.c ****         if (0x80 & crc) {
 586               		.loc 1 26 0
 587 024c 27FF      		sbrs r18,7
 588 024e 00C0      		rjmp .L168
 589               	.L70:
  27:/Users/pthalamy/Studies/CMU/benchmark/build/src-bobby/hw-block/hwDataLink.c ****             crc = (crc << 1) ^ CRC_POLY;
 590               		.loc 1 27 0
 591 0250 30E0      		ldi r19,0
 592 0252 220F      		lsl r18
 593 0254 331F      		rol r19
 594               	.LVL55:
 595               	.LBE21:
 596 0256 86EA      		ldi r24,166
 597 0258 2827      		eor r18,r24
 598 025a 3095      		com r19
 599               	.LVL56:
 600               	.LBB22:
  26:/Users/pthalamy/Studies/CMU/benchmark/build/src-bobby/hw-block/hwDataLink.c ****         if (0x80 & crc) {
 601               		.loc 1 26 0
 602 025c 27FF      		sbrs r18,7
 603 025e 00C0      		rjmp .L169
 604               	.L72:
  27:/Users/pthalamy/Studies/CMU/benchmark/build/src-bobby/hw-block/hwDataLink.c ****             crc = (crc << 1) ^ CRC_POLY;
 605               		.loc 1 27 0
 606 0260 30E0      		ldi r19,0
 607 0262 220F      		lsl r18
 608 0264 331F      		rol r19
 609               	.LVL57:
 610               	.LBE22:
 611 0266 E6EA      		ldi r30,166
 612 0268 2E27      		eor r18,r30
 613 026a 3095      		com r19
 614               	.LVL58:
 615               	.LBB23:
  26:/Users/pthalamy/Studies/CMU/benchmark/build/src-bobby/hw-block/hwDataLink.c ****         if (0x80 & crc) {
 616               		.loc 1 26 0
 617 026c 27FF      		sbrs r18,7
 618 026e 00C0      		rjmp .L170
 619               	.L74:
  27:/Users/pthalamy/Studies/CMU/benchmark/build/src-bobby/hw-block/hwDataLink.c ****             crc = (crc << 1) ^ CRC_POLY;
 620               		.loc 1 27 0
 621 0270 30E0      		ldi r19,0
 622 0272 220F      		lsl r18
 623 0274 331F      		rol r19
 624               	.LVL59:
 625               	.LBE23:
 626 0276 F6EA      		ldi r31,166
 627 0278 2F27      		eor r18,r31
 628 027a 3095      		com r19
 629               	.LVL60:
 630               	.LBB24:
  26:/Users/pthalamy/Studies/CMU/benchmark/build/src-bobby/hw-block/hwDataLink.c ****         if (0x80 & crc) {
 631               		.loc 1 26 0
 632 027c 27FF      		sbrs r18,7
 633 027e 00C0      		rjmp .L171
 634               	.L76:
  27:/Users/pthalamy/Studies/CMU/benchmark/build/src-bobby/hw-block/hwDataLink.c ****             crc = (crc << 1) ^ CRC_POLY;
 635               		.loc 1 27 0
 636 0280 30E0      		ldi r19,0
 637 0282 220F      		lsl r18
 638 0284 331F      		rol r19
 639               	.LVL61:
 640               	.LBE24:
 641 0286 86EA      		ldi r24,166
 642 0288 2827      		eor r18,r24
 643 028a 3095      		com r19
 644               	.LVL62:
 645               	.LBB25:
  26:/Users/pthalamy/Studies/CMU/benchmark/build/src-bobby/hw-block/hwDataLink.c ****         if (0x80 & crc) {
 646               		.loc 1 26 0
 647 028c 27FF      		sbrs r18,7
 648 028e 00C0      		rjmp .L172
 649               	.L78:
  27:/Users/pthalamy/Studies/CMU/benchmark/build/src-bobby/hw-block/hwDataLink.c ****             crc = (crc << 1) ^ CRC_POLY;
 650               		.loc 1 27 0
 651 0290 30E0      		ldi r19,0
 652 0292 220F      		lsl r18
 653 0294 331F      		rol r19
 654               	.LVL63:
 655               	.LBE25:
 656 0296 E6EA      		ldi r30,166
 657 0298 2E27      		eor r18,r30
 658 029a 3095      		com r19
 659               	.LVL64:
 660               	.LBB26:
  26:/Users/pthalamy/Studies/CMU/benchmark/build/src-bobby/hw-block/hwDataLink.c ****         if (0x80 & crc) {
 661               		.loc 1 26 0
 662 029c 27FF      		sbrs r18,7
 663 029e 00C0      		rjmp .L173
 664               	.L80:
  27:/Users/pthalamy/Studies/CMU/benchmark/build/src-bobby/hw-block/hwDataLink.c ****             crc = (crc << 1) ^ CRC_POLY;
 665               		.loc 1 27 0
 666 02a0 30E0      		ldi r19,0
 667 02a2 220F      		lsl r18
 668 02a4 331F      		rol r19
 669               	.LVL65:
 670               	.LBE26:
 671 02a6 F6EA      		ldi r31,166
 672 02a8 2F27      		eor r18,r31
 673 02aa 3095      		com r19
 674               	.LVL66:
 675               	.LBB27:
  26:/Users/pthalamy/Studies/CMU/benchmark/build/src-bobby/hw-block/hwDataLink.c ****         if (0x80 & crc) {
 676               		.loc 1 26 0
 677 02ac 27FF      		sbrs r18,7
 678 02ae 00C0      		rjmp .L174
 679               	.L82:
  27:/Users/pthalamy/Studies/CMU/benchmark/build/src-bobby/hw-block/hwDataLink.c ****             crc = (crc << 1) ^ CRC_POLY;
 680               		.loc 1 27 0
 681 02b0 30E0      		ldi r19,0
 682 02b2 220F      		lsl r18
 683 02b4 331F      		rol r19
 684               	.LVL67:
 685               	.LBE27:
 686 02b6 86EA      		ldi r24,166
 687 02b8 2827      		eor r18,r24
 688 02ba 3095      		com r19
 689               	.LBB28:
 690 02bc 922E      		mov r9,r18
 691               	.LVL68:
 692               	.LBE28:
 693               	.LBE42:
 694               	.LBB43:
 100:/Users/pthalamy/Studies/CMU/benchmark/build/src-bobby/hw-block/hwDataLink.c ****     if( ((val & ACK_MASK) == ACK   ) || ((val & ACK_MASK) == NACK  ) ||
 695               		.loc 1 100 0
 696 02be 892F      		mov r24,r25
 697 02c0 8E7F      		andi r24,lo8(-2)
 698               	.LBB40:
 699 02c2 8830      		cpi r24,lo8(8)
 700 02c4 01F0      		breq .+2
 701 02c6 00C0      		rjmp .L175
 702               	.L84:
 703               	.LBE40:
 704               	.LBE43:
 134:/Users/pthalamy/Studies/CMU/benchmark/build/src-bobby/hw-block/hwDataLink.c ****             push(ESCAPE, &(port[p].tx));
 705               		.loc 1 134 0
 706 02c8 88E5      		ldi r24,lo8(88)
 707 02ca 8E9D      		mul r24,r14
 708 02cc 8001      		movw r16,r0
 709 02ce 8F9D      		mul r24,r15
 710 02d0 100D      		add r17,r0
 711 02d2 1124      		clr __zero_reg__
 712 02d4 0050      		subi r16,lo8(-(port+56))
 713 02d6 1040      		sbci r17,hi8(-(port+56))
 714 02d8 B801      		movw r22,r16
 715 02da 8DE7      		ldi r24,lo8(125)
 716 02dc 9983      		std Y+1,r25
 717 02de 0E94 0000 		call push
 718               	.LVL69:
 135:/Users/pthalamy/Studies/CMU/benchmark/build/src-bobby/hw-block/hwDataLink.c ****             push(val^ESCAPE_CHAR, &(port[p].tx));
 719               		.loc 1 135 0
 720 02e2 B801      		movw r22,r16
 721 02e4 80E2      		ldi r24,lo8(32)
 722 02e6 9981      		ldd r25,Y+1
 723 02e8 8927      		eor r24,r25
 724 02ea 0E94 0000 		call push
 725               	.LVL70:
 726               	.L107:
 111:/Users/pthalamy/Studies/CMU/benchmark/build/src-bobby/hw-block/hwDataLink.c **** {
 727               		.loc 1 111 0
 728 02ee E1E1      		ldi r30,lo8(17)
 729 02f0 AE2E      		mov r10,r30
 141:/Users/pthalamy/Studies/CMU/benchmark/build/src-bobby/hw-block/hwDataLink.c ****         }
 142:/Users/pthalamy/Studies/CMU/benchmark/build/src-bobby/hw-block/hwDataLink.c ****     }
 143:/Users/pthalamy/Studies/CMU/benchmark/build/src-bobby/hw-block/hwDataLink.c ****     
 144:/Users/pthalamy/Studies/CMU/benchmark/build/src-bobby/hw-block/hwDataLink.c ****     // send data
 145:/Users/pthalamy/Studies/CMU/benchmark/build/src-bobby/hw-block/hwDataLink.c ****     for(i=0; i<DATA_SIZE; i++)
 146:/Users/pthalamy/Studies/CMU/benchmark/build/src-bobby/hw-block/hwDataLink.c ****     {
 147:/Users/pthalamy/Studies/CMU/benchmark/build/src-bobby/hw-block/hwDataLink.c ****         val = c->data[i];
 148:/Users/pthalamy/Studies/CMU/benchmark/build/src-bobby/hw-block/hwDataLink.c ****         checksum = crcCalc(checksum, val);
 149:/Users/pthalamy/Studies/CMU/benchmark/build/src-bobby/hw-block/hwDataLink.c ****         
 150:/Users/pthalamy/Studies/CMU/benchmark/build/src-bobby/hw-block/hwDataLink.c ****         // escape it
 151:/Users/pthalamy/Studies/CMU/benchmark/build/src-bobby/hw-block/hwDataLink.c ****         if( isSpecial(val) ) 
 152:/Users/pthalamy/Studies/CMU/benchmark/build/src-bobby/hw-block/hwDataLink.c ****         {
 153:/Users/pthalamy/Studies/CMU/benchmark/build/src-bobby/hw-block/hwDataLink.c ****             push(ESCAPE, &(port[p].tx));
 730               		.loc 1 153 0
 731 02f2 88E5      		ldi r24,lo8(88)
 732 02f4 8E9D      		mul r24,r14
 733 02f6 8001      		movw r16,r0
 734 02f8 8F9D      		mul r24,r15
 735 02fa 100D      		add r17,r0
 736 02fc 1124      		clr __zero_reg__
 737 02fe 0050      		subi r16,lo8(-(port+56))
 738 0300 1040      		sbci r17,hi8(-(port+56))
 154:/Users/pthalamy/Studies/CMU/benchmark/build/src-bobby/hw-block/hwDataLink.c **** 
 155:/Users/pthalamy/Studies/CMU/benchmark/build/src-bobby/hw-block/hwDataLink.c ****             push(val^ESCAPE_CHAR, &(port[p].tx));
 739               		.loc 1 155 0
 740 0302 F0E2      		ldi r31,lo8(32)
 741 0304 DF2E      		mov r13,r31
 742               	.LVL71:
 743 0306 00C0      		rjmp .L104
 744               	.LVL72:
 745               	.L177:
 746               	.LBB44:
 747               	.LBB45:
 100:/Users/pthalamy/Studies/CMU/benchmark/build/src-bobby/hw-block/hwDataLink.c ****     if( ((val & ACK_MASK) == ACK   ) || ((val & ACK_MASK) == NACK  ) ||
 748               		.loc 1 100 0
 749 0308 9A30      		cpi r25,lo8(10)
 750 030a 01F0      		breq .L102
 751 030c 9231      		cpi r25,lo8(18)
 752 030e 01F0      		breq .L102
 101:/Users/pthalamy/Studies/CMU/benchmark/build/src-bobby/hw-block/hwDataLink.c ****         ((val & FD_MASK)  == FD    ) || (val              == ESCAPE )   )
 753               		.loc 1 101 0
 754 0310 EDE7      		ldi r30,lo8(125)
 755 0312 BE16      		cp r11,r30
 756 0314 01F0      		breq .L102
 757               	.LBE45:
 758               	.LBE44:
 156:/Users/pthalamy/Studies/CMU/benchmark/build/src-bobby/hw-block/hwDataLink.c ****         }
 157:/Users/pthalamy/Studies/CMU/benchmark/build/src-bobby/hw-block/hwDataLink.c ****         // send regular
 158:/Users/pthalamy/Studies/CMU/benchmark/build/src-bobby/hw-block/hwDataLink.c ****         else 
 159:/Users/pthalamy/Studies/CMU/benchmark/build/src-bobby/hw-block/hwDataLink.c ****         {
 160:/Users/pthalamy/Studies/CMU/benchmark/build/src-bobby/hw-block/hwDataLink.c ****             push(val, &(port[p].tx));
 759               		.loc 1 160 0
 760 0316 B801      		movw r22,r16
 761 0318 8B2D      		mov r24,r11
 762 031a 9983      		std Y+1,r25
 763 031c 0E94 0000 		call push
 764               	.LVL73:
 765 0320 9981      		ldd r25,Y+1
 766               	.LVL74:
 767 0322 AA94      		dec r10
 145:/Users/pthalamy/Studies/CMU/benchmark/build/src-bobby/hw-block/hwDataLink.c ****     for(i=0; i<DATA_SIZE; i++)
 768               		.loc 1 145 0
 769 0324 01F0      		breq .L176
 770               	.LVL75:
 771               	.L104:
 147:/Users/pthalamy/Studies/CMU/benchmark/build/src-bobby/hw-block/hwDataLink.c ****         val = c->data[i];
 772               		.loc 1 147 0
 773 0326 F301      		movw r30,r6
 774 0328 B190      		ld r11,Z+
 775 032a 3F01      		movw r6,r30
 776               	.LVL76:
 777               	.LBB47:
 778               	.LBB48:
  23:/Users/pthalamy/Studies/CMU/benchmark/build/src-bobby/hw-block/hwDataLink.c **** 	crc ^= newVal;
 779               		.loc 1 23 0
 780 032c 292D      		mov r18,r9
 781 032e 2B25      		eor r18,r11
 782               	.LVL77:
  26:/Users/pthalamy/Studies/CMU/benchmark/build/src-bobby/hw-block/hwDataLink.c ****         if (0x80 & crc) {
 783               		.loc 1 26 0
 784 0330 27FD      		sbrc r18,7
 785 0332 00C0      		rjmp .L86
  30:/Users/pthalamy/Studies/CMU/benchmark/build/src-bobby/hw-block/hwDataLink.c ****             crc = crc << 1;
 786               		.loc 1 30 0
 787 0334 220F      		lsl r18
 788               	.LVL78:
 789               	.L87:
  26:/Users/pthalamy/Studies/CMU/benchmark/build/src-bobby/hw-block/hwDataLink.c ****         if (0x80 & crc) {
 790               		.loc 1 26 0
 791 0336 27FD      		sbrc r18,7
 792 0338 00C0      		rjmp .L88
  30:/Users/pthalamy/Studies/CMU/benchmark/build/src-bobby/hw-block/hwDataLink.c ****             crc = crc << 1;
 793               		.loc 1 30 0
 794 033a 220F      		lsl r18
 795               	.LVL79:
 796               	.L89:
  26:/Users/pthalamy/Studies/CMU/benchmark/build/src-bobby/hw-block/hwDataLink.c ****         if (0x80 & crc) {
 797               		.loc 1 26 0
 798 033c 27FD      		sbrc r18,7
 799 033e 00C0      		rjmp .L90
  30:/Users/pthalamy/Studies/CMU/benchmark/build/src-bobby/hw-block/hwDataLink.c ****             crc = crc << 1;
 800               		.loc 1 30 0
 801 0340 220F      		lsl r18
 802               	.LVL80:
 803               	.L91:
  26:/Users/pthalamy/Studies/CMU/benchmark/build/src-bobby/hw-block/hwDataLink.c ****         if (0x80 & crc) {
 804               		.loc 1 26 0
 805 0342 27FD      		sbrc r18,7
 806 0344 00C0      		rjmp .L92
  30:/Users/pthalamy/Studies/CMU/benchmark/build/src-bobby/hw-block/hwDataLink.c ****             crc = crc << 1;
 807               		.loc 1 30 0
 808 0346 220F      		lsl r18
 809               	.LVL81:
 810               	.L93:
  26:/Users/pthalamy/Studies/CMU/benchmark/build/src-bobby/hw-block/hwDataLink.c ****         if (0x80 & crc) {
 811               		.loc 1 26 0
 812 0348 27FD      		sbrc r18,7
 813 034a 00C0      		rjmp .L94
  30:/Users/pthalamy/Studies/CMU/benchmark/build/src-bobby/hw-block/hwDataLink.c ****             crc = crc << 1;
 814               		.loc 1 30 0
 815 034c 220F      		lsl r18
 816               	.LVL82:
 817               	.L95:
  26:/Users/pthalamy/Studies/CMU/benchmark/build/src-bobby/hw-block/hwDataLink.c ****         if (0x80 & crc) {
 818               		.loc 1 26 0
 819 034e 27FD      		sbrc r18,7
 820 0350 00C0      		rjmp .L96
  30:/Users/pthalamy/Studies/CMU/benchmark/build/src-bobby/hw-block/hwDataLink.c ****             crc = crc << 1;
 821               		.loc 1 30 0
 822 0352 220F      		lsl r18
 823               	.LVL83:
 824               	.L97:
  26:/Users/pthalamy/Studies/CMU/benchmark/build/src-bobby/hw-block/hwDataLink.c ****         if (0x80 & crc) {
 825               		.loc 1 26 0
 826 0354 27FD      		sbrc r18,7
 827 0356 00C0      		rjmp .L98
  30:/Users/pthalamy/Studies/CMU/benchmark/build/src-bobby/hw-block/hwDataLink.c ****             crc = crc << 1;
 828               		.loc 1 30 0
 829 0358 220F      		lsl r18
 830               	.LVL84:
 831               	.L99:
  26:/Users/pthalamy/Studies/CMU/benchmark/build/src-bobby/hw-block/hwDataLink.c ****         if (0x80 & crc) {
 832               		.loc 1 26 0
 833 035a 27FD      		sbrc r18,7
 834 035c 00C0      		rjmp .L100
  30:/Users/pthalamy/Studies/CMU/benchmark/build/src-bobby/hw-block/hwDataLink.c ****             crc = crc << 1;
 835               		.loc 1 30 0
 836 035e 922E      		mov r9,r18
 837               	.LVL85:
 838 0360 990C      		lsl r9
 839               	.LVL86:
 840               	.L101:
 841               	.LBE48:
 842               	.LBE47:
 843               	.LBB57:
 100:/Users/pthalamy/Studies/CMU/benchmark/build/src-bobby/hw-block/hwDataLink.c ****     if( ((val & ACK_MASK) == ACK   ) || ((val & ACK_MASK) == NACK  ) ||
 844               		.loc 1 100 0
 845 0362 9B2D      		mov r25,r11
 846 0364 9E7F      		andi r25,lo8(-2)
 847               	.LBB46:
 848 0366 9830      		cpi r25,lo8(8)
 849 0368 01F4      		brne .L177
 850               	.L102:
 851               	.LBE46:
 852               	.LBE57:
 153:/Users/pthalamy/Studies/CMU/benchmark/build/src-bobby/hw-block/hwDataLink.c ****             push(ESCAPE, &(port[p].tx));
 853               		.loc 1 153 0
 854 036a B801      		movw r22,r16
 855 036c 8DE7      		ldi r24,lo8(125)
 856 036e 9983      		std Y+1,r25
 857 0370 0E94 0000 		call push
 858               	.LVL87:
 155:/Users/pthalamy/Studies/CMU/benchmark/build/src-bobby/hw-block/hwDataLink.c ****             push(val^ESCAPE_CHAR, &(port[p].tx));
 859               		.loc 1 155 0
 860 0374 B801      		movw r22,r16
 861 0376 8B2D      		mov r24,r11
 862 0378 8D25      		eor r24,r13
 863 037a 0E94 0000 		call push
 864               	.LVL88:
 865 037e 9981      		ldd r25,Y+1
 866               	.LVL89:
 867 0380 AA94      		dec r10
 145:/Users/pthalamy/Studies/CMU/benchmark/build/src-bobby/hw-block/hwDataLink.c ****     for(i=0; i<DATA_SIZE; i++)
 868               		.loc 1 145 0
 869 0382 01F4      		brne .L104
 870               	.L176:
 871               	.LVL90:
 872               	.LBB58:
 873               	.LBB59:
 100:/Users/pthalamy/Studies/CMU/benchmark/build/src-bobby/hw-block/hwDataLink.c ****     if( ((val & ACK_MASK) == ACK   ) || ((val & ACK_MASK) == NACK  ) ||
 874               		.loc 1 100 0
 875 0384 9830      		cpi r25,lo8(8)
 876 0386 01F4      		brne .+2
 877 0388 00C0      		rjmp .L105
 878 038a 9A30      		cpi r25,lo8(10)
 879 038c 01F4      		brne .+2
 880 038e 00C0      		rjmp .L105
 881 0390 9231      		cpi r25,lo8(18)
 882 0392 01F4      		brne .+2
 883 0394 00C0      		rjmp .L105
 101:/Users/pthalamy/Studies/CMU/benchmark/build/src-bobby/hw-block/hwDataLink.c ****         ((val & FD_MASK)  == FD    ) || (val              == ESCAPE )   )
 884               		.loc 1 101 0
 885 0396 FDE7      		ldi r31,lo8(125)
 886 0398 BF16      		cp r11,r31
 887 039a 01F4      		brne .+2
 888 039c 00C0      		rjmp .L105
 889               	.LBE59:
 890               	.LBE58:
 161:/Users/pthalamy/Studies/CMU/benchmark/build/src-bobby/hw-block/hwDataLink.c ****         }
 162:/Users/pthalamy/Studies/CMU/benchmark/build/src-bobby/hw-block/hwDataLink.c ****     }
 163:/Users/pthalamy/Studies/CMU/benchmark/build/src-bobby/hw-block/hwDataLink.c **** 
 164:/Users/pthalamy/Studies/CMU/benchmark/build/src-bobby/hw-block/hwDataLink.c ****     // send checksum
 165:/Users/pthalamy/Studies/CMU/benchmark/build/src-bobby/hw-block/hwDataLink.c **** 	// escape it
 166:/Users/pthalamy/Studies/CMU/benchmark/build/src-bobby/hw-block/hwDataLink.c ****     if( isSpecial(val) ) 
 167:/Users/pthalamy/Studies/CMU/benchmark/build/src-bobby/hw-block/hwDataLink.c ****     {
 168:/Users/pthalamy/Studies/CMU/benchmark/build/src-bobby/hw-block/hwDataLink.c ****         push(ESCAPE, &(port[p].tx));
 169:/Users/pthalamy/Studies/CMU/benchmark/build/src-bobby/hw-block/hwDataLink.c ****         push(checksum^ESCAPE_CHAR, &(port[p].tx));
 170:/Users/pthalamy/Studies/CMU/benchmark/build/src-bobby/hw-block/hwDataLink.c ****     }
 171:/Users/pthalamy/Studies/CMU/benchmark/build/src-bobby/hw-block/hwDataLink.c ****     // send regular
 172:/Users/pthalamy/Studies/CMU/benchmark/build/src-bobby/hw-block/hwDataLink.c ****     else 
 173:/Users/pthalamy/Studies/CMU/benchmark/build/src-bobby/hw-block/hwDataLink.c ****     {
 174:/Users/pthalamy/Studies/CMU/benchmark/build/src-bobby/hw-block/hwDataLink.c ****         push(checksum, &(port[p].tx));
 891               		.loc 1 174 0
 892 039e 88E5      		ldi r24,lo8(88)
 893 03a0 8E9D      		mul r24,r14
 894 03a2 B001      		movw r22,r0
 895 03a4 8F9D      		mul r24,r15
 896 03a6 700D      		add r23,r0
 897 03a8 1124      		clr __zero_reg__
 898 03aa 6050      		subi r22,lo8(-(port+56))
 899 03ac 7040      		sbci r23,hi8(-(port+56))
 900 03ae 892D      		mov r24,r9
 901 03b0 0E94 0000 		call push
 902               	.LVL91:
 903 03b4 00C0      		rjmp .L109
 904               	.LVL92:
 905               	.L67:
 134:/Users/pthalamy/Studies/CMU/benchmark/build/src-bobby/hw-block/hwDataLink.c ****             push(ESCAPE, &(port[p].tx));
 906               		.loc 1 134 0
 907 03b6 88E5      		ldi r24,lo8(88)
 908 03b8 8E9D      		mul r24,r14
 909 03ba 8001      		movw r16,r0
 910 03bc 8F9D      		mul r24,r15
 911 03be 100D      		add r17,r0
 912 03c0 1124      		clr __zero_reg__
 913 03c2 0050      		subi r16,lo8(-(port+56))
 914 03c4 1040      		sbci r17,hi8(-(port+56))
 915 03c6 B801      		movw r22,r16
 916 03c8 8DE7      		ldi r24,lo8(125)
 917 03ca 9983      		std Y+1,r25
 918 03cc 0E94 0000 		call push
 919               	.LVL93:
 135:/Users/pthalamy/Studies/CMU/benchmark/build/src-bobby/hw-block/hwDataLink.c ****             push(val^ESCAPE_CHAR, &(port[p].tx));
 920               		.loc 1 135 0
 921 03d0 B801      		movw r22,r16
 922 03d2 80E2      		ldi r24,lo8(32)
 923 03d4 9981      		ldd r25,Y+1
 924 03d6 8927      		eor r24,r25
 925 03d8 0E94 0000 		call push
 926               	.LVL94:
 128:/Users/pthalamy/Studies/CMU/benchmark/build/src-bobby/hw-block/hwDataLink.c ****         val = c->handler[i];
 927               		.loc 1 128 0
 928 03dc F301      		movw r30,r6
 929 03de 9589      		ldd r25,Z+21
 930               	.LVL95:
 931               	.LBB60:
 932               	.LBB29:
  23:/Users/pthalamy/Studies/CMU/benchmark/build/src-bobby/hw-block/hwDataLink.c **** 	crc ^= newVal;
 933               		.loc 1 23 0
 934 03e0 292F      		mov r18,r25
 935 03e2 2D25      		eor r18,r13
 936               	.LVL96:
  26:/Users/pthalamy/Studies/CMU/benchmark/build/src-bobby/hw-block/hwDataLink.c ****         if (0x80 & crc) {
 937               		.loc 1 26 0
 938 03e4 27FD      		sbrc r18,7
 939 03e6 00C0      		rjmp .L68
 940               	.L167:
  30:/Users/pthalamy/Studies/CMU/benchmark/build/src-bobby/hw-block/hwDataLink.c ****             crc = crc << 1;
 941               		.loc 1 30 0
 942 03e8 220F      		lsl r18
 943               	.LVL97:
  26:/Users/pthalamy/Studies/CMU/benchmark/build/src-bobby/hw-block/hwDataLink.c ****         if (0x80 & crc) {
 944               		.loc 1 26 0
 945 03ea 27FD      		sbrc r18,7
 946 03ec 00C0      		rjmp .L70
 947               	.L168:
  30:/Users/pthalamy/Studies/CMU/benchmark/build/src-bobby/hw-block/hwDataLink.c ****             crc = crc << 1;
 948               		.loc 1 30 0
 949 03ee 220F      		lsl r18
 950               	.LVL98:
  26:/Users/pthalamy/Studies/CMU/benchmark/build/src-bobby/hw-block/hwDataLink.c ****         if (0x80 & crc) {
 951               		.loc 1 26 0
 952 03f0 27FD      		sbrc r18,7
 953 03f2 00C0      		rjmp .L72
 954               	.L169:
  30:/Users/pthalamy/Studies/CMU/benchmark/build/src-bobby/hw-block/hwDataLink.c ****             crc = crc << 1;
 955               		.loc 1 30 0
 956 03f4 220F      		lsl r18
 957               	.LVL99:
  26:/Users/pthalamy/Studies/CMU/benchmark/build/src-bobby/hw-block/hwDataLink.c ****         if (0x80 & crc) {
 958               		.loc 1 26 0
 959 03f6 27FD      		sbrc r18,7
 960 03f8 00C0      		rjmp .L74
 961               	.L170:
  30:/Users/pthalamy/Studies/CMU/benchmark/build/src-bobby/hw-block/hwDataLink.c ****             crc = crc << 1;
 962               		.loc 1 30 0
 963 03fa 220F      		lsl r18
 964               	.LVL100:
  26:/Users/pthalamy/Studies/CMU/benchmark/build/src-bobby/hw-block/hwDataLink.c ****         if (0x80 & crc) {
 965               		.loc 1 26 0
 966 03fc 27FD      		sbrc r18,7
 967 03fe 00C0      		rjmp .L76
 968               	.L171:
  30:/Users/pthalamy/Studies/CMU/benchmark/build/src-bobby/hw-block/hwDataLink.c ****             crc = crc << 1;
 969               		.loc 1 30 0
 970 0400 220F      		lsl r18
 971               	.LVL101:
  26:/Users/pthalamy/Studies/CMU/benchmark/build/src-bobby/hw-block/hwDataLink.c ****         if (0x80 & crc) {
 972               		.loc 1 26 0
 973 0402 27FD      		sbrc r18,7
 974 0404 00C0      		rjmp .L78
 975               	.L172:
  30:/Users/pthalamy/Studies/CMU/benchmark/build/src-bobby/hw-block/hwDataLink.c ****             crc = crc << 1;
 976               		.loc 1 30 0
 977 0406 220F      		lsl r18
 978               	.LVL102:
  26:/Users/pthalamy/Studies/CMU/benchmark/build/src-bobby/hw-block/hwDataLink.c ****         if (0x80 & crc) {
 979               		.loc 1 26 0
 980 0408 27FD      		sbrc r18,7
 981 040a 00C0      		rjmp .L80
 982               	.L173:
  30:/Users/pthalamy/Studies/CMU/benchmark/build/src-bobby/hw-block/hwDataLink.c ****             crc = crc << 1;
 983               		.loc 1 30 0
 984 040c 220F      		lsl r18
 985               	.LVL103:
  26:/Users/pthalamy/Studies/CMU/benchmark/build/src-bobby/hw-block/hwDataLink.c ****         if (0x80 & crc) {
 986               		.loc 1 26 0
 987 040e 27FD      		sbrc r18,7
 988 0410 00C0      		rjmp .L82
 989               	.L174:
  30:/Users/pthalamy/Studies/CMU/benchmark/build/src-bobby/hw-block/hwDataLink.c ****             crc = crc << 1;
 990               		.loc 1 30 0
 991 0412 922E      		mov r9,r18
 992 0414 990C      		lsl r9
 993               	.LVL104:
 994               	.LBE29:
 995               	.LBE60:
 996               	.LBB61:
 100:/Users/pthalamy/Studies/CMU/benchmark/build/src-bobby/hw-block/hwDataLink.c ****     if( ((val & ACK_MASK) == ACK   ) || ((val & ACK_MASK) == NACK  ) ||
 997               		.loc 1 100 0
 998 0416 892F      		mov r24,r25
 999 0418 8E7F      		andi r24,lo8(-2)
 1000               	.LBB41:
 1001 041a 8830      		cpi r24,lo8(8)
 1002 041c 01F4      		brne .+2
 1003 041e 00C0      		rjmp .L84
 1004               	.L175:
 1005 0420 8A30      		cpi r24,lo8(10)
 1006 0422 01F4      		brne .+2
 1007 0424 00C0      		rjmp .L84
 1008 0426 8231      		cpi r24,lo8(18)
 1009 0428 01F4      		brne .+2
 1010 042a 00C0      		rjmp .L84
 101:/Users/pthalamy/Studies/CMU/benchmark/build/src-bobby/hw-block/hwDataLink.c ****         ((val & FD_MASK)  == FD    ) || (val              == ESCAPE )   )
 1011               		.loc 1 101 0
 1012 042c 9D37      		cpi r25,lo8(125)
 1013 042e 01F4      		brne .+2
 1014 0430 00C0      		rjmp .L84
 1015               	.LBE41:
 1016               	.LBE61:
 140:/Users/pthalamy/Studies/CMU/benchmark/build/src-bobby/hw-block/hwDataLink.c ****             push(val, &(port[p].tx));
 1017               		.loc 1 140 0
 1018 0432 88E5      		ldi r24,lo8(88)
 1019 0434 8E9D      		mul r24,r14
 1020 0436 B001      		movw r22,r0
 1021 0438 8F9D      		mul r24,r15
 1022 043a 700D      		add r23,r0
 1023 043c 1124      		clr __zero_reg__
 1024 043e 6050      		subi r22,lo8(-(port+56))
 1025 0440 7040      		sbci r23,hi8(-(port+56))
 1026 0442 892F      		mov r24,r25
 1027 0444 0E94 0000 		call push
 1028               	.LVL105:
 1029 0448 00C0      		rjmp .L107
 1030               	.LVL106:
 1031               	.L100:
 1032               	.LBB62:
 1033               	.LBB49:
  27:/Users/pthalamy/Studies/CMU/benchmark/build/src-bobby/hw-block/hwDataLink.c ****             crc = (crc << 1) ^ CRC_POLY;
 1034               		.loc 1 27 0
 1035 044a 30E0      		ldi r19,0
 1036 044c 220F      		lsl r18
 1037 044e 331F      		rol r19
 1038               	.LVL107:
 1039               	.LBE49:
 1040 0450 86EA      		ldi r24,166
 1041 0452 2827      		eor r18,r24
 1042 0454 3095      		com r19
 1043               	.LBB50:
 1044 0456 922E      		mov r9,r18
 1045               	.LVL108:
 1046 0458 00C0      		rjmp .L101
 1047               	.LVL109:
 1048               	.L98:
 1049 045a 30E0      		ldi r19,0
 1050 045c 220F      		lsl r18
 1051 045e 331F      		rol r19
 1052               	.LVL110:
 1053               	.LBE50:
 1054 0460 F6EA      		ldi r31,166
 1055 0462 2F27      		eor r18,r31
 1056 0464 3095      		com r19
 1057               	.LVL111:
 1058 0466 00C0      		rjmp .L99
 1059               	.LVL112:
 1060               	.L96:
 1061               	.LBB51:
 1062 0468 30E0      		ldi r19,0
 1063 046a 220F      		lsl r18
 1064 046c 331F      		rol r19
 1065               	.LVL113:
 1066               	.LBE51:
 1067 046e E6EA      		ldi r30,166
 1068 0470 2E27      		eor r18,r30
 1069 0472 3095      		com r19
 1070               	.LVL114:
 1071 0474 00C0      		rjmp .L97
 1072               	.LVL115:
 1073               	.L94:
 1074               	.LBB52:
 1075 0476 30E0      		ldi r19,0
 1076 0478 220F      		lsl r18
 1077 047a 331F      		rol r19
 1078               	.LVL116:
 1079               	.LBE52:
 1080 047c 86EA      		ldi r24,166
 1081 047e 2827      		eor r18,r24
 1082 0480 3095      		com r19
 1083               	.LVL117:
 1084 0482 00C0      		rjmp .L95
 1085               	.LVL118:
 1086               	.L92:
 1087               	.LBB53:
 1088 0484 30E0      		ldi r19,0
 1089 0486 220F      		lsl r18
 1090 0488 331F      		rol r19
 1091               	.LVL119:
 1092               	.LBE53:
 1093 048a F6EA      		ldi r31,166
 1094 048c 2F27      		eor r18,r31
 1095 048e 3095      		com r19
 1096               	.LVL120:
 1097 0490 00C0      		rjmp .L93
 1098               	.LVL121:
 1099               	.L90:
 1100               	.LBB54:
 1101 0492 30E0      		ldi r19,0
 1102 0494 220F      		lsl r18
 1103 0496 331F      		rol r19
 1104               	.LVL122:
 1105               	.LBE54:
 1106 0498 E6EA      		ldi r30,166
 1107 049a 2E27      		eor r18,r30
 1108 049c 3095      		com r19
 1109               	.LVL123:
 1110 049e 00C0      		rjmp .L91
 1111               	.LVL124:
 1112               	.L88:
 1113               	.LBB55:
 1114 04a0 30E0      		ldi r19,0
 1115 04a2 220F      		lsl r18
 1116 04a4 331F      		rol r19
 1117               	.LVL125:
 1118               	.LBE55:
 1119 04a6 86EA      		ldi r24,166
 1120 04a8 2827      		eor r18,r24
 1121 04aa 3095      		com r19
 1122               	.LVL126:
 1123 04ac 00C0      		rjmp .L89
 1124               	.LVL127:
 1125               	.L86:
 1126               	.LBB56:
 1127 04ae 30E0      		ldi r19,0
 1128 04b0 220F      		lsl r18
 1129 04b2 331F      		rol r19
 1130               	.LVL128:
 1131               	.LBE56:
 1132 04b4 F6EA      		ldi r31,166
 1133 04b6 2F27      		eor r18,r31
 1134 04b8 3095      		com r19
 1135               	.LVL129:
 1136 04ba 00C0      		rjmp .L87
 1137               	.LVL130:
 1138               	.L105:
 1139               	.LBE62:
 168:/Users/pthalamy/Studies/CMU/benchmark/build/src-bobby/hw-block/hwDataLink.c ****         push(ESCAPE, &(port[p].tx));
 1140               		.loc 1 168 0
 1141 04bc 88E5      		ldi r24,lo8(88)
 1142 04be 8E9D      		mul r24,r14
 1143 04c0 8001      		movw r16,r0
 1144 04c2 8F9D      		mul r24,r15
 1145 04c4 100D      		add r17,r0
 1146 04c6 1124      		clr __zero_reg__
 1147 04c8 0050      		subi r16,lo8(-(port+56))
 1148 04ca 1040      		sbci r17,hi8(-(port+56))
 1149 04cc B801      		movw r22,r16
 1150 04ce 8DE7      		ldi r24,lo8(125)
 1151 04d0 0E94 0000 		call push
 1152               	.LVL131:
 169:/Users/pthalamy/Studies/CMU/benchmark/build/src-bobby/hw-block/hwDataLink.c ****         push(checksum^ESCAPE_CHAR, &(port[p].tx));
 1153               		.loc 1 169 0
 1154 04d4 B801      		movw r22,r16
 1155 04d6 80E2      		ldi r24,lo8(32)
 1156 04d8 8925      		eor r24,r9
 1157 04da 0E94 0000 		call push
 1158               	.LVL132:
 1159               	.L109:
 175:/Users/pthalamy/Studies/CMU/benchmark/build/src-bobby/hw-block/hwDataLink.c ****     }
 176:/Users/pthalamy/Studies/CMU/benchmark/build/src-bobby/hw-block/hwDataLink.c ****     
 177:/Users/pthalamy/Studies/CMU/benchmark/build/src-bobby/hw-block/hwDataLink.c ****     // start the interrupt by sending a byte (FD)
 178:/Users/pthalamy/Studies/CMU/benchmark/build/src-bobby/hw-block/hwDataLink.c ****     pPutChar(delim, port[p].pnum);
 1160               		.loc 1 178 0
 1161 04de 88E5      		ldi r24,lo8(88)
 1162 04e0 8E9D      		mul r24,r14
 1163 04e2 F001      		movw r30,r0
 1164 04e4 8F9D      		mul r24,r15
 1165 04e6 F00D      		add r31,r0
 1166 04e8 1124      		clr __zero_reg__
 1167 04ea E050      		subi r30,lo8(-(port))
 1168 04ec F040      		sbci r31,hi8(-(port))
 1169 04ee 6081      		ld r22,Z
 1170 04f0 8C2D      		mov r24,r12
 1171               	/* epilogue start */
 179:/Users/pthalamy/Studies/CMU/benchmark/build/src-bobby/hw-block/hwDataLink.c **** }
 1172               		.loc 1 179 0
 1173 04f2 0F90      		pop __tmp_reg__
 1174 04f4 DF91      		pop r29
 1175 04f6 CF91      		pop r28
 1176 04f8 1F91      		pop r17
 1177 04fa 0F91      		pop r16
 1178 04fc FF90      		pop r15
 1179 04fe EF90      		pop r14
 1180               	.LVL133:
 1181 0500 DF90      		pop r13
 1182 0502 CF90      		pop r12
 1183               	.LVL134:
 1184 0504 BF90      		pop r11
 1185               	.LVL135:
 1186 0506 AF90      		pop r10
 1187 0508 9F90      		pop r9
 1188               	.LVL136:
 1189 050a 7F90      		pop r7
 1190 050c 6F90      		pop r6
 178:/Users/pthalamy/Studies/CMU/benchmark/build/src-bobby/hw-block/hwDataLink.c ****     pPutChar(delim, port[p].pnum);
 1191               		.loc 1 178 0
 1192 050e 0C94 0000 		jmp pPutChar
 1193               	.LVL137:
 1194               	.L166:
 1195               	.LBB63:
 1196               	.LBB30:
  27:/Users/pthalamy/Studies/CMU/benchmark/build/src-bobby/hw-block/hwDataLink.c ****             crc = (crc << 1) ^ CRC_POLY;
 1197               		.loc 1 27 0
 1198 0512 30E0      		ldi r19,0
 1199 0514 220F      		lsl r18
 1200 0516 331F      		rol r19
 1201               	.LVL138:
 1202               	.LBE30:
 1203 0518 86EA      		ldi r24,166
 1204 051a 2827      		eor r18,r24
 1205 051c 3095      		com r19
 1206               	.LBB31:
 1207 051e D22E      		mov r13,r18
 1208               	.LVL139:
 1209 0520 00C0      		rjmp .L64
 1210               	.LVL140:
 1211               	.L165:
 1212 0522 30E0      		ldi r19,0
 1213 0524 220F      		lsl r18
 1214 0526 331F      		rol r19
 1215               	.LVL141:
 1216               	.LBE31:
 1217 0528 F6EA      		ldi r31,166
 1218 052a 2F27      		eor r18,r31
 1219 052c 3095      		com r19
 1220               	.LVL142:
 1221 052e 00C0      		rjmp .L62
 1222               	.LVL143:
 1223               	.L164:
 1224               	.LBB32:
 1225 0530 30E0      		ldi r19,0
 1226 0532 220F      		lsl r18
 1227 0534 331F      		rol r19
 1228               	.LVL144:
 1229               	.LBE32:
 1230 0536 E6EA      		ldi r30,166
 1231 0538 2E27      		eor r18,r30
 1232 053a 3095      		com r19
 1233               	.LVL145:
 1234 053c 00C0      		rjmp .L60
 1235               	.LVL146:
 1236               	.L163:
 1237               	.LBB33:
 1238 053e 30E0      		ldi r19,0
 1239 0540 220F      		lsl r18
 1240 0542 331F      		rol r19
 1241               	.LVL147:
 1242               	.LBE33:
 1243 0544 86EA      		ldi r24,166
 1244 0546 2827      		eor r18,r24
 1245 0548 3095      		com r19
 1246               	.LVL148:
 1247 054a 00C0      		rjmp .L58
 1248               	.LVL149:
 1249               	.L162:
 1250               	.LBB34:
 1251 054c 30E0      		ldi r19,0
 1252 054e 220F      		lsl r18
 1253 0550 331F      		rol r19
 1254               	.LVL150:
 1255               	.LBE34:
 1256 0552 F6EA      		ldi r31,166
 1257 0554 2F27      		eor r18,r31
 1258 0556 3095      		com r19
 1259               	.LVL151:
 1260 0558 00C0      		rjmp .L56
 1261               	.LVL152:
 1262               	.L161:
 1263               	.LBB35:
 1264 055a 30E0      		ldi r19,0
 1265 055c 220F      		lsl r18
 1266 055e 331F      		rol r19
 1267               	.LVL153:
 1268               	.LBE35:
 1269 0560 E6EA      		ldi r30,166
 1270 0562 2E27      		eor r18,r30
 1271 0564 3095      		com r19
 1272               	.LVL154:
 1273 0566 00C0      		rjmp .L54
 1274               	.LVL155:
 1275               	.L160:
 1276               	.LBB36:
 1277 0568 30E0      		ldi r19,0
 1278 056a 220F      		lsl r18
 1279 056c 331F      		rol r19
 1280               	.LVL156:
 1281               	.LBE36:
 1282 056e 86EA      		ldi r24,166
 1283 0570 2827      		eor r18,r24
 1284 0572 3095      		com r19
 1285               	.LVL157:
 1286 0574 00C0      		rjmp .L52
 1287               	.LVL158:
 1288               	.L159:
 1289               	.LBB37:
 1290 0576 30E0      		ldi r19,0
 1291 0578 220F      		lsl r18
 1292 057a 331F      		rol r19
 1293               	.LVL159:
 1294               	.LBE37:
 1295 057c F6EA      		ldi r31,166
 1296 057e 2F27      		eor r18,r31
 1297 0580 3095      		com r19
 1298               	.LVL160:
 1299 0582 00C0      		rjmp .L50
 1300               	.LVL161:
 1301               	.L47:
 1302               	/* epilogue start */
 1303               	.LBE63:
 1304               		.loc 1 179 0
 1305 0584 0F90      		pop __tmp_reg__
 1306 0586 DF91      		pop r29
 1307 0588 CF91      		pop r28
 1308 058a 1F91      		pop r17
 1309 058c 0F91      		pop r16
 1310 058e FF90      		pop r15
 1311 0590 EF90      		pop r14
 1312 0592 DF90      		pop r13
 1313 0594 CF90      		pop r12
 1314 0596 BF90      		pop r11
 1315 0598 AF90      		pop r10
 1316 059a 9F90      		pop r9
 1317 059c 7F90      		pop r7
 1318 059e 6F90      		pop r6
 1319               	.LVL162:
 1320 05a0 0895      		ret
 1321               		.cfi_endproc
 1322               	.LFE10:
 1324               	.global	processBuffer
 1326               	processBuffer:
 1327               	.LFB11:
 180:/Users/pthalamy/Studies/CMU/benchmark/build/src-bobby/hw-block/hwDataLink.c **** 
 181:/Users/pthalamy/Studies/CMU/benchmark/build/src-bobby/hw-block/hwDataLink.c **** 
 182:/Users/pthalamy/Studies/CMU/benchmark/build/src-bobby/hw-block/hwDataLink.c **** // pulls bytes from the buffer and puts them into Chunks
 183:/Users/pthalamy/Studies/CMU/benchmark/build/src-bobby/hw-block/hwDataLink.c **** // also handles ACKs appropriately
 184:/Users/pthalamy/Studies/CMU/benchmark/build/src-bobby/hw-block/hwDataLink.c **** void processBuffer(PRef p)
 185:/Users/pthalamy/Studies/CMU/benchmark/build/src-bobby/hw-block/hwDataLink.c **** {
 1328               		.loc 1 185 0
 1329               		.cfi_startproc
 1330               	.LVL163:
 1331 05a2 2F92      		push r2
 1332               	.LCFI19:
 1333               		.cfi_def_cfa_offset 4
 1334               		.cfi_offset 2, -3
 1335 05a4 3F92      		push r3
 1336               	.LCFI20:
 1337               		.cfi_def_cfa_offset 5
 1338               		.cfi_offset 3, -4
 1339 05a6 4F92      		push r4
 1340               	.LCFI21:
 1341               		.cfi_def_cfa_offset 6
 1342               		.cfi_offset 4, -5
 1343 05a8 5F92      		push r5
 1344               	.LCFI22:
 1345               		.cfi_def_cfa_offset 7
 1346               		.cfi_offset 5, -6
 1347 05aa 6F92      		push r6
 1348               	.LCFI23:
 1349               		.cfi_def_cfa_offset 8
 1350               		.cfi_offset 6, -7
 1351 05ac 7F92      		push r7
 1352               	.LCFI24:
 1353               		.cfi_def_cfa_offset 9
 1354               		.cfi_offset 7, -8
 1355 05ae 8F92      		push r8
 1356               	.LCFI25:
 1357               		.cfi_def_cfa_offset 10
 1358               		.cfi_offset 8, -9
 1359 05b0 9F92      		push r9
 1360               	.LCFI26:
 1361               		.cfi_def_cfa_offset 11
 1362               		.cfi_offset 9, -10
 1363 05b2 AF92      		push r10
 1364               	.LCFI27:
 1365               		.cfi_def_cfa_offset 12
 1366               		.cfi_offset 10, -11
 1367 05b4 BF92      		push r11
 1368               	.LCFI28:
 1369               		.cfi_def_cfa_offset 13
 1370               		.cfi_offset 11, -12
 1371 05b6 CF92      		push r12
 1372               	.LCFI29:
 1373               		.cfi_def_cfa_offset 14
 1374               		.cfi_offset 12, -13
 1375 05b8 DF92      		push r13
 1376               	.LCFI30:
 1377               		.cfi_def_cfa_offset 15
 1378               		.cfi_offset 13, -14
 1379 05ba EF92      		push r14
 1380               	.LCFI31:
 1381               		.cfi_def_cfa_offset 16
 1382               		.cfi_offset 14, -15
 1383 05bc FF92      		push r15
 1384               	.LCFI32:
 1385               		.cfi_def_cfa_offset 17
 1386               		.cfi_offset 15, -16
 1387 05be 0F93      		push r16
 1388               	.LCFI33:
 1389               		.cfi_def_cfa_offset 18
 1390               		.cfi_offset 16, -17
 1391 05c0 1F93      		push r17
 1392               	.LCFI34:
 1393               		.cfi_def_cfa_offset 19
 1394               		.cfi_offset 17, -18
 1395 05c2 CF93      		push r28
 1396               	.LCFI35:
 1397               		.cfi_def_cfa_offset 20
 1398               		.cfi_offset 28, -19
 1399 05c4 DF93      		push r29
 1400               	.LCFI36:
 1401               		.cfi_def_cfa_offset 21
 1402               		.cfi_offset 29, -20
 1403 05c6 CDB7      		in r28,__SP_L__
 1404 05c8 DEB7      		in r29,__SP_H__
 1405               	.LCFI37:
 1406               		.cfi_def_cfa_register 28
 1407 05ca 2897      		sbiw r28,8
 1408               	.LCFI38:
 1409               		.cfi_def_cfa_offset 29
 1410 05cc CDBF      		out __SP_L__,r28
 1411 05ce DEBF      		out __SP_H__,r29
 1412               	/* prologue: function */
 1413               	/* frame size = 8 */
 1414               	/* stack size = 26 */
 1415               	.L__stack_usage = 26
 1416 05d0 282E      		mov r2,r24
 1417               	.LVL164:
 186:/Users/pthalamy/Studies/CMU/benchmark/build/src-bobby/hw-block/hwDataLink.c ****     byte   currByte;
 187:/Users/pthalamy/Studies/CMU/benchmark/build/src-bobby/hw-block/hwDataLink.c ****     Chunk* currChunk = NULL;
 188:/Users/pthalamy/Studies/CMU/benchmark/build/src-bobby/hw-block/hwDataLink.c ****     byte   wasEscape = wasEscapeStore[p];
 1418               		.loc 1 188 0
 1419 05d2 E82E      		mov r14,r24
 1420 05d4 F12C      		mov r15,__zero_reg__
 1421 05d6 10E0      		ldi r17,lo8(wasEscapeStore)
 1422 05d8 612E      		mov r6,r17
 1423 05da 10E0      		ldi r17,hi8(wasEscapeStore)
 1424 05dc 712E      		mov r7,r17
 1425 05de 6E0C      		add r6,r14
 1426 05e0 7F1C      		adc r7,r15
 1427 05e2 F301      		movw r30,r6
 1428 05e4 3080      		ld r3,Z
 1429               	.LVL165:
 189:/Users/pthalamy/Studies/CMU/benchmark/build/src-bobby/hw-block/hwDataLink.c **** 
 190:/Users/pthalamy/Studies/CMU/benchmark/build/src-bobby/hw-block/hwDataLink.c **** 
 191:/Users/pthalamy/Studies/CMU/benchmark/build/src-bobby/hw-block/hwDataLink.c ****     // nothing to process
 192:/Users/pthalamy/Studies/CMU/benchmark/build/src-bobby/hw-block/hwDataLink.c ****     if( isEmpty(&(port[p].rx)) )
 1430               		.loc 1 192 0
 1431 05e6 88E5      		ldi r24,lo8(88)
 1432               	.LVL166:
 1433 05e8 8E9D      		mul r24,r14
 1434 05ea 8001      		movw r16,r0
 1435 05ec 8F9D      		mul r24,r15
 1436 05ee 100D      		add r17,r0
 1437 05f0 1124      		clr __zero_reg__
 1438 05f2 9801      		movw r18,r16
 1439 05f4 2050      		subi r18,lo8(-(port+24))
 1440 05f6 3040      		sbci r19,hi8(-(port+24))
 1441 05f8 2F83      		std Y+7,r18
 1442 05fa 3887      		std Y+8,r19
 1443 05fc C901      		movw r24,r18
 1444 05fe 0E94 0000 		call isEmpty
 1445               	.LVL167:
 1446 0602 8111      		cpse r24,__zero_reg__
 1447 0604 00C0      		rjmp .L178
 193:/Users/pthalamy/Studies/CMU/benchmark/build/src-bobby/hw-block/hwDataLink.c ****     {
 194:/Users/pthalamy/Studies/CMU/benchmark/build/src-bobby/hw-block/hwDataLink.c ****         return;
 195:/Users/pthalamy/Studies/CMU/benchmark/build/src-bobby/hw-block/hwDataLink.c ****     }
 196:/Users/pthalamy/Studies/CMU/benchmark/build/src-bobby/hw-block/hwDataLink.c **** 
 197:/Users/pthalamy/Studies/CMU/benchmark/build/src-bobby/hw-block/hwDataLink.c ****     // continue filling unfinished Chunk
 198:/Users/pthalamy/Studies/CMU/benchmark/build/src-bobby/hw-block/hwDataLink.c ****     if( (port[p].rq.curr != NULL) && chunkFilling(port[p].rq.curr) ) 
 1448               		.loc 1 198 0
 1449 0606 F801      		movw r30,r16
 1450 0608 E050      		subi r30,lo8(-(port))
 1451 060a F040      		sbci r31,hi8(-(port))
 1452 060c 0689      		ldd r16,Z+22
 1453 060e 1789      		ldd r17,Z+23
 1454 0610 0115      		cp r16,__zero_reg__
 1455 0612 1105      		cpc r17,__zero_reg__
 1456 0614 01F4      		brne .+2
 1457 0616 00C0      		rjmp .L180
 1458               		.loc 1 198 0 is_stmt 0 discriminator 1
 1459 0618 F801      		movw r30,r16
 1460 061a 8189      		ldd r24,Z+17
 1461 061c 86FF      		sbrs r24,6
 1462 061e 00C0      		rjmp .L180
 1463               	.LVL168:
 1464               	.L223:
 199:/Users/pthalamy/Studies/CMU/benchmark/build/src-bobby/hw-block/hwDataLink.c ****     {
 200:/Users/pthalamy/Studies/CMU/benchmark/build/src-bobby/hw-block/hwDataLink.c ****         currChunk = port[p].rq.curr;
 201:/Users/pthalamy/Studies/CMU/benchmark/build/src-bobby/hw-block/hwDataLink.c ****     }
 202:/Users/pthalamy/Studies/CMU/benchmark/build/src-bobby/hw-block/hwDataLink.c ****     else
 203:/Users/pthalamy/Studies/CMU/benchmark/build/src-bobby/hw-block/hwDataLink.c ****     {
 204:/Users/pthalamy/Studies/CMU/benchmark/build/src-bobby/hw-block/hwDataLink.c ****         port[p].rq.index    = 0;
 205:/Users/pthalamy/Studies/CMU/benchmark/build/src-bobby/hw-block/hwDataLink.c ****         port[p].rq.checksum = 0;
 206:/Users/pthalamy/Studies/CMU/benchmark/build/src-bobby/hw-block/hwDataLink.c ****         wasEscape           = 0;
 207:/Users/pthalamy/Studies/CMU/benchmark/build/src-bobby/hw-block/hwDataLink.c ****     }
 208:/Users/pthalamy/Studies/CMU/benchmark/build/src-bobby/hw-block/hwDataLink.c ****                 
 209:/Users/pthalamy/Studies/CMU/benchmark/build/src-bobby/hw-block/hwDataLink.c ****     while( !isEmpty(&(port[p].rx)) )
 210:/Users/pthalamy/Studies/CMU/benchmark/build/src-bobby/hw-block/hwDataLink.c ****     {
 211:/Users/pthalamy/Studies/CMU/benchmark/build/src-bobby/hw-block/hwDataLink.c ****         currByte = (byte)pop(&(port[p].rx));
 212:/Users/pthalamy/Studies/CMU/benchmark/build/src-bobby/hw-block/hwDataLink.c ****         
 213:/Users/pthalamy/Studies/CMU/benchmark/build/src-bobby/hw-block/hwDataLink.c ****         // is ACK
 214:/Users/pthalamy/Studies/CMU/benchmark/build/src-bobby/hw-block/hwDataLink.c ****         if( (currByte & ACK_MASK) == ACK )
 215:/Users/pthalamy/Studies/CMU/benchmark/build/src-bobby/hw-block/hwDataLink.c ****         {
 216:/Users/pthalamy/Studies/CMU/benchmark/build/src-bobby/hw-block/hwDataLink.c ****             // set ack parity
 217:/Users/pthalamy/Studies/CMU/benchmark/build/src-bobby/hw-block/hwDataLink.c ****             port[p].rq.flags |= (1 << (currByte & 0x01));
 218:/Users/pthalamy/Studies/CMU/benchmark/build/src-bobby/hw-block/hwDataLink.c ****         
 219:/Users/pthalamy/Studies/CMU/benchmark/build/src-bobby/hw-block/hwDataLink.c ****             ackHandler(p);
 220:/Users/pthalamy/Studies/CMU/benchmark/build/src-bobby/hw-block/hwDataLink.c ****             continue;
 221:/Users/pthalamy/Studies/CMU/benchmark/build/src-bobby/hw-block/hwDataLink.c ****         }
 222:/Users/pthalamy/Studies/CMU/benchmark/build/src-bobby/hw-block/hwDataLink.c ****         
 223:/Users/pthalamy/Studies/CMU/benchmark/build/src-bobby/hw-block/hwDataLink.c ****         /// TODO: HANDLE NACKS
 224:/Users/pthalamy/Studies/CMU/benchmark/build/src-bobby/hw-block/hwDataLink.c ****         /*if( (currByte & ACK_MASK) == NACK ){
 225:/Users/pthalamy/Studies/CMU/benchmark/build/src-bobby/hw-block/hwDataLink.c **** 	        //set ack parity
 226:/Users/pthalamy/Studies/CMU/benchmark/build/src-bobby/hw-block/hwDataLink.c **** 	        //port[p].rq.flags |= (1<<(currByte & 0x01));
 227:/Users/pthalamy/Studies/CMU/benchmark/build/src-bobby/hw-block/hwDataLink.c **** 	        
 228:/Users/pthalamy/Studies/CMU/benchmark/build/src-bobby/hw-block/hwDataLink.c **** 	        nackHandler(p);
 229:/Users/pthalamy/Studies/CMU/benchmark/build/src-bobby/hw-block/hwDataLink.c **** 	        continue;
 230:/Users/pthalamy/Studies/CMU/benchmark/build/src-bobby/hw-block/hwDataLink.c **** 	        }*/
 231:/Users/pthalamy/Studies/CMU/benchmark/build/src-bobby/hw-block/hwDataLink.c ****         
 232:/Users/pthalamy/Studies/CMU/benchmark/build/src-bobby/hw-block/hwDataLink.c ****         // is FRAME_DELIMETER
 233:/Users/pthalamy/Studies/CMU/benchmark/build/src-bobby/hw-block/hwDataLink.c ****         if( (currByte & FD_MASK) == FD )
 234:/Users/pthalamy/Studies/CMU/benchmark/build/src-bobby/hw-block/hwDataLink.c ****         {
 235:/Users/pthalamy/Studies/CMU/benchmark/build/src-bobby/hw-block/hwDataLink.c ****             // determine parity
 236:/Users/pthalamy/Studies/CMU/benchmark/build/src-bobby/hw-block/hwDataLink.c ****             byte parity = setParityFromByte(currByte);
 237:/Users/pthalamy/Studies/CMU/benchmark/build/src-bobby/hw-block/hwDataLink.c ****         
 238:/Users/pthalamy/Studies/CMU/benchmark/build/src-bobby/hw-block/hwDataLink.c ****             // restart the fill
 239:/Users/pthalamy/Studies/CMU/benchmark/build/src-bobby/hw-block/hwDataLink.c ****             port[p].rq.index    = 0;
 240:/Users/pthalamy/Studies/CMU/benchmark/build/src-bobby/hw-block/hwDataLink.c ****             port[p].rq.checksum = 0;
 241:/Users/pthalamy/Studies/CMU/benchmark/build/src-bobby/hw-block/hwDataLink.c ****             wasEscape           = 0;
 242:/Users/pthalamy/Studies/CMU/benchmark/build/src-bobby/hw-block/hwDataLink.c ****                 
 243:/Users/pthalamy/Studies/CMU/benchmark/build/src-bobby/hw-block/hwDataLink.c ****             // unfinished Chunk
 244:/Users/pthalamy/Studies/CMU/benchmark/build/src-bobby/hw-block/hwDataLink.c ****             if(port[p].rq.curr != NULL)
 245:/Users/pthalamy/Studies/CMU/benchmark/build/src-bobby/hw-block/hwDataLink.c ****             {
 246:/Users/pthalamy/Studies/CMU/benchmark/build/src-bobby/hw-block/hwDataLink.c ****                 currChunk = port[p].rq.curr;
 247:/Users/pthalamy/Studies/CMU/benchmark/build/src-bobby/hw-block/hwDataLink.c ****             }
 248:/Users/pthalamy/Studies/CMU/benchmark/build/src-bobby/hw-block/hwDataLink.c ****             // need new Chunk
 249:/Users/pthalamy/Studies/CMU/benchmark/build/src-bobby/hw-block/hwDataLink.c ****             else
 250:/Users/pthalamy/Studies/CMU/benchmark/build/src-bobby/hw-block/hwDataLink.c ****             {
 251:/Users/pthalamy/Studies/CMU/benchmark/build/src-bobby/hw-block/hwDataLink.c ****                 currChunk = getSystemRXChunk();
 252:/Users/pthalamy/Studies/CMU/benchmark/build/src-bobby/hw-block/hwDataLink.c ****                 
 253:/Users/pthalamy/Studies/CMU/benchmark/build/src-bobby/hw-block/hwDataLink.c ****                 // out of memory, can't fill
 254:/Users/pthalamy/Studies/CMU/benchmark/build/src-bobby/hw-block/hwDataLink.c ****                 if( currChunk == NULL )
 255:/Users/pthalamy/Studies/CMU/benchmark/build/src-bobby/hw-block/hwDataLink.c ****                 {
 256:/Users/pthalamy/Studies/CMU/benchmark/build/src-bobby/hw-block/hwDataLink.c ****                     // discard bytes, hopefully will get resent
 257:/Users/pthalamy/Studies/CMU/benchmark/build/src-bobby/hw-block/hwDataLink.c ****                     continue;
 258:/Users/pthalamy/Studies/CMU/benchmark/build/src-bobby/hw-block/hwDataLink.c ****                 }
 259:/Users/pthalamy/Studies/CMU/benchmark/build/src-bobby/hw-block/hwDataLink.c ****                 
 260:/Users/pthalamy/Studies/CMU/benchmark/build/src-bobby/hw-block/hwDataLink.c ****                 // add to the queue
 261:/Users/pthalamy/Studies/CMU/benchmark/build/src-bobby/hw-block/hwDataLink.c ****                 port[p].rq.curr = currChunk;
 262:/Users/pthalamy/Studies/CMU/benchmark/build/src-bobby/hw-block/hwDataLink.c ****             }
 263:/Users/pthalamy/Studies/CMU/benchmark/build/src-bobby/hw-block/hwDataLink.c ****             
 264:/Users/pthalamy/Studies/CMU/benchmark/build/src-bobby/hw-block/hwDataLink.c ****             // reset the status of the Chunk, just in case
 265:/Users/pthalamy/Studies/CMU/benchmark/build/src-bobby/hw-block/hwDataLink.c ****             currChunk->status = CHUNK_USED | CHUNK_FILLING | parity | port[p].pnum;
 266:/Users/pthalamy/Studies/CMU/benchmark/build/src-bobby/hw-block/hwDataLink.c ****             
 267:/Users/pthalamy/Studies/CMU/benchmark/build/src-bobby/hw-block/hwDataLink.c ****             continue;
 268:/Users/pthalamy/Studies/CMU/benchmark/build/src-bobby/hw-block/hwDataLink.c ****         }
 269:/Users/pthalamy/Studies/CMU/benchmark/build/src-bobby/hw-block/hwDataLink.c ****         
 270:/Users/pthalamy/Studies/CMU/benchmark/build/src-bobby/hw-block/hwDataLink.c ****         // no use processing if can't put anywhere
 271:/Users/pthalamy/Studies/CMU/benchmark/build/src-bobby/hw-block/hwDataLink.c ****         if(currChunk == NULL)
 272:/Users/pthalamy/Studies/CMU/benchmark/build/src-bobby/hw-block/hwDataLink.c ****         {
 273:/Users/pthalamy/Studies/CMU/benchmark/build/src-bobby/hw-block/hwDataLink.c ****             continue;
 274:/Users/pthalamy/Studies/CMU/benchmark/build/src-bobby/hw-block/hwDataLink.c ****         }
 275:/Users/pthalamy/Studies/CMU/benchmark/build/src-bobby/hw-block/hwDataLink.c ****         
 276:/Users/pthalamy/Studies/CMU/benchmark/build/src-bobby/hw-block/hwDataLink.c ****         // is an escape char        
 277:/Users/pthalamy/Studies/CMU/benchmark/build/src-bobby/hw-block/hwDataLink.c ****         if( currByte == ESCAPE )
 278:/Users/pthalamy/Studies/CMU/benchmark/build/src-bobby/hw-block/hwDataLink.c ****         {
 279:/Users/pthalamy/Studies/CMU/benchmark/build/src-bobby/hw-block/hwDataLink.c ****             wasEscape = 1;   
 280:/Users/pthalamy/Studies/CMU/benchmark/build/src-bobby/hw-block/hwDataLink.c ****             continue;
 281:/Users/pthalamy/Studies/CMU/benchmark/build/src-bobby/hw-block/hwDataLink.c ****         }
 282:/Users/pthalamy/Studies/CMU/benchmark/build/src-bobby/hw-block/hwDataLink.c **** 
 283:/Users/pthalamy/Studies/CMU/benchmark/build/src-bobby/hw-block/hwDataLink.c ****         // is a regular character
 284:/Users/pthalamy/Studies/CMU/benchmark/build/src-bobby/hw-block/hwDataLink.c ****         // was escaped
 285:/Users/pthalamy/Studies/CMU/benchmark/build/src-bobby/hw-block/hwDataLink.c ****         if( wasEscape )
 286:/Users/pthalamy/Studies/CMU/benchmark/build/src-bobby/hw-block/hwDataLink.c ****         {
 287:/Users/pthalamy/Studies/CMU/benchmark/build/src-bobby/hw-block/hwDataLink.c ****             currByte ^= ESCAPE_CHAR;
 288:/Users/pthalamy/Studies/CMU/benchmark/build/src-bobby/hw-block/hwDataLink.c ****             wasEscape = 0;
 289:/Users/pthalamy/Studies/CMU/benchmark/build/src-bobby/hw-block/hwDataLink.c ****         }
 290:/Users/pthalamy/Studies/CMU/benchmark/build/src-bobby/hw-block/hwDataLink.c **** 
 291:/Users/pthalamy/Studies/CMU/benchmark/build/src-bobby/hw-block/hwDataLink.c ****         // is transmitted checksum
 292:/Users/pthalamy/Studies/CMU/benchmark/build/src-bobby/hw-block/hwDataLink.c ****         if( port[p].rq.index >= (DATA_SIZE + POINTER_SIZE) )
 1465               		.loc 1 292 0 is_stmt 1 discriminator 1
 1466 0620 28E5      		ldi r18,lo8(88)
 1467 0622 2E9D      		mul r18,r14
 1468 0624 C001      		movw r24,r0
 1469 0626 2F9D      		mul r18,r15
 1470 0628 900D      		add r25,r0
 1471 062a 1124      		clr __zero_reg__
 1472 062c 20E0      		ldi r18,lo8(port)
 1473 062e A22E      		mov r10,r18
 1474 0630 20E0      		ldi r18,hi8(port)
 1475 0632 B22E      		mov r11,r18
 1476 0634 A80E      		add r10,r24
 1477 0636 B91E      		adc r11,r25
 1478 0638 7501      		movw r14,r10
 1479 063a F3E1      		ldi r31,19
 1480 063c EF0E      		add r14,r31
 1481 063e F11C      		adc r15,__zero_reg__
 293:/Users/pthalamy/Studies/CMU/benchmark/build/src-bobby/hw-block/hwDataLink.c ****         {
 294:/Users/pthalamy/Studies/CMU/benchmark/build/src-bobby/hw-block/hwDataLink.c ****             // checksum matches!
 295:/Users/pthalamy/Studies/CMU/benchmark/build/src-bobby/hw-block/hwDataLink.c ****             if( currByte == port[p].rq.checksum )
 296:/Users/pthalamy/Studies/CMU/benchmark/build/src-bobby/hw-block/hwDataLink.c ****             {
 297:/Users/pthalamy/Studies/CMU/benchmark/build/src-bobby/hw-block/hwDataLink.c ****                 currChunk->status &= ~CHUNK_FILLING;
 298:/Users/pthalamy/Studies/CMU/benchmark/build/src-bobby/hw-block/hwDataLink.c ****                 port[p].rq.flags  |=  CHUNK_READY;
 299:/Users/pthalamy/Studies/CMU/benchmark/build/src-bobby/hw-block/hwDataLink.c **** 				
 300:/Users/pthalamy/Studies/CMU/benchmark/build/src-bobby/hw-block/hwDataLink.c ****                 // check for parity error
 301:/Users/pthalamy/Studies/CMU/benchmark/build/src-bobby/hw-block/hwDataLink.c ****                 byte parity = chunkParity(currChunk);
 302:/Users/pthalamy/Studies/CMU/benchmark/build/src-bobby/hw-block/hwDataLink.c ****                 byte last   = parityLastChunk(port[p].rq);
 303:/Users/pthalamy/Studies/CMU/benchmark/build/src-bobby/hw-block/hwDataLink.c **** 	      
 304:/Users/pthalamy/Studies/CMU/benchmark/build/src-bobby/hw-block/hwDataLink.c ****                 // not a duplicate packet		
 305:/Users/pthalamy/Studies/CMU/benchmark/build/src-bobby/hw-block/hwDataLink.c ****                 if(parity != last) {
 306:/Users/pthalamy/Studies/CMU/benchmark/build/src-bobby/hw-block/hwDataLink.c ****                     // update neighborhood (fix for race condition)
 307:/Users/pthalamy/Studies/CMU/benchmark/build/src-bobby/hw-block/hwDataLink.c ****                     //updateNeighbor(p, PRESENT);
 308:/Users/pthalamy/Studies/CMU/benchmark/build/src-bobby/hw-block/hwDataLink.c **** 		
 309:/Users/pthalamy/Studies/CMU/benchmark/build/src-bobby/hw-block/hwDataLink.c ****                     // add to global receive queue
 310:/Users/pthalamy/Studies/CMU/benchmark/build/src-bobby/hw-block/hwDataLink.c ****                     addToGlobalRq(currChunk);
 311:/Users/pthalamy/Studies/CMU/benchmark/build/src-bobby/hw-block/hwDataLink.c **** 		
 312:/Users/pthalamy/Studies/CMU/benchmark/build/src-bobby/hw-block/hwDataLink.c ****                     // flip the parity
 313:/Users/pthalamy/Studies/CMU/benchmark/build/src-bobby/hw-block/hwDataLink.c ****                     flipParityLast(port[p].rq);
 314:/Users/pthalamy/Studies/CMU/benchmark/build/src-bobby/hw-block/hwDataLink.c ****                 }
 315:/Users/pthalamy/Studies/CMU/benchmark/build/src-bobby/hw-block/hwDataLink.c ****                 // free the chunk
 316:/Users/pthalamy/Studies/CMU/benchmark/build/src-bobby/hw-block/hwDataLink.c ****                 else 
 317:/Users/pthalamy/Studies/CMU/benchmark/build/src-bobby/hw-block/hwDataLink.c ****                 {
 318:/Users/pthalamy/Studies/CMU/benchmark/build/src-bobby/hw-block/hwDataLink.c ****                     freeChunk(currChunk);
 319:/Users/pthalamy/Studies/CMU/benchmark/build/src-bobby/hw-block/hwDataLink.c ****                 }
 320:/Users/pthalamy/Studies/CMU/benchmark/build/src-bobby/hw-block/hwDataLink.c ****               
 321:/Users/pthalamy/Studies/CMU/benchmark/build/src-bobby/hw-block/hwDataLink.c ****                 // remove from the port rq
 322:/Users/pthalamy/Studies/CMU/benchmark/build/src-bobby/hw-block/hwDataLink.c ****                 port[p].rq.curr = NULL;
 323:/Users/pthalamy/Studies/CMU/benchmark/build/src-bobby/hw-block/hwDataLink.c ****             }
 324:/Users/pthalamy/Studies/CMU/benchmark/build/src-bobby/hw-block/hwDataLink.c ****             
 325:/Users/pthalamy/Studies/CMU/benchmark/build/src-bobby/hw-block/hwDataLink.c ****             // reset the data
 326:/Users/pthalamy/Studies/CMU/benchmark/build/src-bobby/hw-block/hwDataLink.c ****             port[p].rq.index    = 0;
 327:/Users/pthalamy/Studies/CMU/benchmark/build/src-bobby/hw-block/hwDataLink.c ****             port[p].rq.checksum = 0;
 328:/Users/pthalamy/Studies/CMU/benchmark/build/src-bobby/hw-block/hwDataLink.c ****             wasEscape           = 0;
 329:/Users/pthalamy/Studies/CMU/benchmark/build/src-bobby/hw-block/hwDataLink.c ****             currChunk           = NULL;
 330:/Users/pthalamy/Studies/CMU/benchmark/build/src-bobby/hw-block/hwDataLink.c **** 	    
 331:/Users/pthalamy/Studies/CMU/benchmark/build/src-bobby/hw-block/hwDataLink.c ****             /// TODO: send NACK
 332:/Users/pthalamy/Studies/CMU/benchmark/build/src-bobby/hw-block/hwDataLink.c ****             continue;
 333:/Users/pthalamy/Studies/CMU/benchmark/build/src-bobby/hw-block/hwDataLink.c ****         }
 334:/Users/pthalamy/Studies/CMU/benchmark/build/src-bobby/hw-block/hwDataLink.c **** 		
 335:/Users/pthalamy/Studies/CMU/benchmark/build/src-bobby/hw-block/hwDataLink.c ****         // message handler
 336:/Users/pthalamy/Studies/CMU/benchmark/build/src-bobby/hw-block/hwDataLink.c ****         if( port[p].rq.index < POINTER_SIZE )
 337:/Users/pthalamy/Studies/CMU/benchmark/build/src-bobby/hw-block/hwDataLink.c ****         {
 338:/Users/pthalamy/Studies/CMU/benchmark/build/src-bobby/hw-block/hwDataLink.c ****             currChunk->handler[port[p].rq.index] = currByte;
 339:/Users/pthalamy/Studies/CMU/benchmark/build/src-bobby/hw-block/hwDataLink.c ****         }
 340:/Users/pthalamy/Studies/CMU/benchmark/build/src-bobby/hw-block/hwDataLink.c ****         // regular byte
 341:/Users/pthalamy/Studies/CMU/benchmark/build/src-bobby/hw-block/hwDataLink.c ****         else
 342:/Users/pthalamy/Studies/CMU/benchmark/build/src-bobby/hw-block/hwDataLink.c ****         {
 343:/Users/pthalamy/Studies/CMU/benchmark/build/src-bobby/hw-block/hwDataLink.c ****             currChunk->data[port[p].rq.index-POINTER_SIZE] = currByte;
 344:/Users/pthalamy/Studies/CMU/benchmark/build/src-bobby/hw-block/hwDataLink.c ****         }
 345:/Users/pthalamy/Studies/CMU/benchmark/build/src-bobby/hw-block/hwDataLink.c **** 
 346:/Users/pthalamy/Studies/CMU/benchmark/build/src-bobby/hw-block/hwDataLink.c ****         port[p].rq.checksum = crcCalc(port[p].rq.checksum, currByte);
 1482               		.loc 1 346 0 discriminator 1
 1483 0640 6501      		movw r12,r10
 1484 0642 24E1      		ldi r18,20
 1485 0644 C20E      		add r12,r18
 1486 0646 D11C      		adc r13,__zero_reg__
 1487               	.LBB72:
 298:/Users/pthalamy/Studies/CMU/benchmark/build/src-bobby/hw-block/hwDataLink.c ****                 port[p].rq.flags  |=  CHUNK_READY;
 1488               		.loc 1 298 0 discriminator 1
 1489 0648 4501      		movw r8,r10
 1490 064a 35E1      		ldi r19,21
 1491 064c 830E      		add r8,r19
 1492 064e 911C      		adc r9,__zero_reg__
 322:/Users/pthalamy/Studies/CMU/benchmark/build/src-bobby/hw-block/hwDataLink.c ****                 port[p].rq.curr = NULL;
 1493               		.loc 1 322 0 discriminator 1
 1494 0650 2501      		movw r4,r10
 1495 0652 E6E1      		ldi r30,22
 1496 0654 4E0E      		add r4,r30
 1497 0656 511C      		adc r5,__zero_reg__
 1498               	.LBE72:
 1499               	.LBB77:
 1500               	.LBB78:
  42:/Users/pthalamy/Studies/CMU/benchmark/build/src-bobby/hw-block/hwDataLink.c ****     byte currParity = sendParity(port[p].sq);
 1501               		.loc 1 42 0 discriminator 1
 1502 0658 9501      		movw r18,r10
 1503 065a 225F      		subi r18,-14
 1504 065c 3F4F      		sbci r19,-1
 1505 065e 2983      		std Y+1,r18
 1506 0660 3A83      		std Y+2,r19
  60:/Users/pthalamy/Studies/CMU/benchmark/build/src-bobby/hw-block/hwDataLink.c ****         port[p].sq.retry    = NUM_RETRIES;
 1507               		.loc 1 60 0 discriminator 1
 1508 0662 9501      		movw r18,r10
 1509 0664 235F      		subi r18,-13
 1510 0666 3F4F      		sbci r19,-1
 1511 0668 2B83      		std Y+3,r18
 1512 066a 3C83      		std Y+4,r19
  65:/Users/pthalamy/Studies/CMU/benchmark/build/src-bobby/hw-block/hwDataLink.c ****         deregisterTimeout(&(port[p].sq.qtout.tout));
 1513               		.loc 1 65 0 discriminator 1
 1514 066c 9C01      		movw r18,r24
 1515 066e 2050      		subi r18,lo8(-(port+1))
 1516 0670 3040      		sbci r19,hi8(-(port+1))
 1517 0672 2D83      		std Y+5,r18
 1518 0674 3E83      		std Y+6,r19
 1519               	.LVL169:
 1520               	.L228:
 1521               	.LBE78:
 1522               	.LBE77:
 209:/Users/pthalamy/Studies/CMU/benchmark/build/src-bobby/hw-block/hwDataLink.c ****     while( !isEmpty(&(port[p].rx)) )
 1523               		.loc 1 209 0 discriminator 1
 1524 0676 8F81      		ldd r24,Y+7
 1525 0678 9885      		ldd r25,Y+8
 1526 067a 0E94 0000 		call isEmpty
 1527               	.LVL170:
 1528 067e 8111      		cpse r24,__zero_reg__
 1529 0680 00C0      		rjmp .L229
 1530               	.L213:
 211:/Users/pthalamy/Studies/CMU/benchmark/build/src-bobby/hw-block/hwDataLink.c ****         currByte = (byte)pop(&(port[p].rx));
 1531               		.loc 1 211 0
 1532 0682 8F81      		ldd r24,Y+7
 1533 0684 9885      		ldd r25,Y+8
 1534 0686 0E94 0000 		call pop
 1535               	.LVL171:
 214:/Users/pthalamy/Studies/CMU/benchmark/build/src-bobby/hw-block/hwDataLink.c ****         if( (currByte & ACK_MASK) == ACK )
 1536               		.loc 1 214 0
 1537 068a 9C01      		movw r18,r24
 1538 068c 2E7F      		andi r18,254
 1539 068e 3327      		clr r19
 1540 0690 2830      		cpi r18,8
 1541 0692 3105      		cpc r19,__zero_reg__
 1542 0694 01F4      		brne .+2
 1543 0696 00C0      		rjmp .L230
 233:/Users/pthalamy/Studies/CMU/benchmark/build/src-bobby/hw-block/hwDataLink.c ****         if( (currByte & FD_MASK) == FD )
 1544               		.loc 1 233 0
 1545 0698 2231      		cpi r18,18
 1546 069a 3105      		cpc r19,__zero_reg__
 1547 069c 01F0      		breq .L231
 271:/Users/pthalamy/Studies/CMU/benchmark/build/src-bobby/hw-block/hwDataLink.c ****         if(currChunk == NULL)
 1548               		.loc 1 271 0
 1549 069e 0115      		cp r16,__zero_reg__
 1550 06a0 1105      		cpc r17,__zero_reg__
 1551 06a2 01F0      		breq .L228
 211:/Users/pthalamy/Studies/CMU/benchmark/build/src-bobby/hw-block/hwDataLink.c ****         currByte = (byte)pop(&(port[p].rx));
 1552               		.loc 1 211 0
 1553 06a4 282F      		mov r18,r24
 277:/Users/pthalamy/Studies/CMU/benchmark/build/src-bobby/hw-block/hwDataLink.c ****         if( currByte == ESCAPE )
 1554               		.loc 1 277 0
 1555 06a6 8D37      		cpi r24,lo8(125)
 1556 06a8 01F4      		brne .+2
 1557 06aa 00C0      		rjmp .L215
 285:/Users/pthalamy/Studies/CMU/benchmark/build/src-bobby/hw-block/hwDataLink.c ****         if( wasEscape )
 1558               		.loc 1 285 0
 1559 06ac 3320      		tst r3
 1560 06ae 01F0      		breq .L188
 287:/Users/pthalamy/Studies/CMU/benchmark/build/src-bobby/hw-block/hwDataLink.c ****             currByte ^= ESCAPE_CHAR;
 1561               		.loc 1 287 0
 1562 06b0 F0E2      		ldi r31,32
 1563 06b2 8F27      		eor r24,r31
 1564               	.LVL172:
 1565 06b4 282F      		mov r18,r24
 1566               	.LVL173:
 1567               	.L188:
 292:/Users/pthalamy/Studies/CMU/benchmark/build/src-bobby/hw-block/hwDataLink.c ****         if( port[p].rq.index >= (DATA_SIZE + POINTER_SIZE) )
 1568               		.loc 1 292 0
 1569 06b6 F701      		movw r30,r14
 1570 06b8 8081      		ld r24,Z
 1571 06ba 8331      		cpi r24,lo8(19)
 1572 06bc 00F4      		brsh .+2
 1573 06be 00C0      		rjmp .L189
 295:/Users/pthalamy/Studies/CMU/benchmark/build/src-bobby/hw-block/hwDataLink.c ****             if( currByte == port[p].rq.checksum )
 1574               		.loc 1 295 0
 1575 06c0 F601      		movw r30,r12
 1576 06c2 8081      		ld r24,Z
 1577 06c4 8217      		cp r24,r18
 1578 06c6 01F4      		brne .+2
 1579 06c8 00C0      		rjmp .L232
 1580               	.LVL174:
 1581               	.L190:
 326:/Users/pthalamy/Studies/CMU/benchmark/build/src-bobby/hw-block/hwDataLink.c ****             port[p].rq.index    = 0;
 1582               		.loc 1 326 0
 1583 06ca F701      		movw r30,r14
 1584 06cc 1082      		st Z,__zero_reg__
 327:/Users/pthalamy/Studies/CMU/benchmark/build/src-bobby/hw-block/hwDataLink.c ****             port[p].rq.checksum = 0;
 1585               		.loc 1 327 0
 1586 06ce F601      		movw r30,r12
 1587 06d0 1082      		st Z,__zero_reg__
 1588               	.LVL175:
 328:/Users/pthalamy/Studies/CMU/benchmark/build/src-bobby/hw-block/hwDataLink.c ****             wasEscape           = 0;
 1589               		.loc 1 328 0
 1590 06d2 312C      		mov r3,__zero_reg__
 329:/Users/pthalamy/Studies/CMU/benchmark/build/src-bobby/hw-block/hwDataLink.c ****             currChunk           = NULL;
 1591               		.loc 1 329 0
 1592 06d4 00E0      		ldi r16,0
 1593 06d6 10E0      		ldi r17,0
 1594               	.LVL176:
 209:/Users/pthalamy/Studies/CMU/benchmark/build/src-bobby/hw-block/hwDataLink.c ****     while( !isEmpty(&(port[p].rx)) )
 1595               		.loc 1 209 0
 1596 06d8 8F81      		ldd r24,Y+7
 1597 06da 9885      		ldd r25,Y+8
 1598 06dc 0E94 0000 		call isEmpty
 1599               	.LVL177:
 1600 06e0 8823      		tst r24
 1601 06e2 01F0      		breq .L213
 1602               	.L229:
 347:/Users/pthalamy/Studies/CMU/benchmark/build/src-bobby/hw-block/hwDataLink.c ****         port[p].rq.index++;
 348:/Users/pthalamy/Studies/CMU/benchmark/build/src-bobby/hw-block/hwDataLink.c ****     }
 349:/Users/pthalamy/Studies/CMU/benchmark/build/src-bobby/hw-block/hwDataLink.c ****     
 350:/Users/pthalamy/Studies/CMU/benchmark/build/src-bobby/hw-block/hwDataLink.c ****     // store wasEscape
 351:/Users/pthalamy/Studies/CMU/benchmark/build/src-bobby/hw-block/hwDataLink.c ****     wasEscapeStore[p] = wasEscape;
 1603               		.loc 1 351 0
 1604 06e4 F301      		movw r30,r6
 1605 06e6 3082      		st Z,r3
 1606               	.LVL178:
 1607               	.L178:
 1608               	/* epilogue start */
 352:/Users/pthalamy/Studies/CMU/benchmark/build/src-bobby/hw-block/hwDataLink.c **** }
 1609               		.loc 1 352 0
 1610 06e8 2896      		adiw r28,8
 1611 06ea CDBF      		out __SP_L__,r28
 1612 06ec DEBF      		out __SP_H__,r29
 1613 06ee DF91      		pop r29
 1614 06f0 CF91      		pop r28
 1615 06f2 1F91      		pop r17
 1616 06f4 0F91      		pop r16
 1617 06f6 FF90      		pop r15
 1618 06f8 EF90      		pop r14
 1619 06fa DF90      		pop r13
 1620 06fc CF90      		pop r12
 1621 06fe BF90      		pop r11
 1622 0700 AF90      		pop r10
 1623 0702 9F90      		pop r9
 1624 0704 8F90      		pop r8
 1625 0706 7F90      		pop r7
 1626 0708 6F90      		pop r6
 1627 070a 5F90      		pop r5
 1628 070c 4F90      		pop r4
 1629 070e 3F90      		pop r3
 1630               	.LVL179:
 1631 0710 2F90      		pop r2
 1632               	.LVL180:
 1633 0712 0895      		ret
 1634               	.LVL181:
 1635               	.L231:
 1636               	.LBB81:
 236:/Users/pthalamy/Studies/CMU/benchmark/build/src-bobby/hw-block/hwDataLink.c ****             byte parity = setParityFromByte(currByte);
 1637               		.loc 1 236 0
 1638 0714 8170      		andi r24,1
 1639 0716 9927      		clr r25
 1640               	.LVL182:
 1641 0718 382E      		mov r3,r24
 1642               	.LVL183:
 1643 071a 3294      		swap r3
 1644 071c 330C      		lsl r3
 1645 071e B0EE      		ldi r27,lo8(-32)
 1646 0720 3B22      		and r3,r27
 1647               	.LVL184:
 239:/Users/pthalamy/Studies/CMU/benchmark/build/src-bobby/hw-block/hwDataLink.c ****             port[p].rq.index    = 0;
 1648               		.loc 1 239 0
 1649 0722 F701      		movw r30,r14
 1650 0724 1082      		st Z,__zero_reg__
 240:/Users/pthalamy/Studies/CMU/benchmark/build/src-bobby/hw-block/hwDataLink.c ****             port[p].rq.checksum = 0;
 1651               		.loc 1 240 0
 1652 0726 F601      		movw r30,r12
 1653 0728 1082      		st Z,__zero_reg__
 1654               	.LVL185:
 244:/Users/pthalamy/Studies/CMU/benchmark/build/src-bobby/hw-block/hwDataLink.c ****             if(port[p].rq.curr != NULL)
 1655               		.loc 1 244 0
 1656 072a F201      		movw r30,r4
 1657 072c 0081      		ld r16,Z
 1658 072e 1181      		ldd r17,Z+1
 1659               	.LVL186:
 1660 0730 0115      		cp r16,__zero_reg__
 1661 0732 1105      		cpc r17,__zero_reg__
 1662 0734 01F4      		brne .+2
 1663 0736 00C0      		rjmp .L233
 1664               	.L187:
 1665               	.LVL187:
 265:/Users/pthalamy/Studies/CMU/benchmark/build/src-bobby/hw-block/hwDataLink.c ****             currChunk->status = CHUNK_USED | CHUNK_FILLING | parity | port[p].pnum;
 1666               		.loc 1 265 0
 1667 0738 F501      		movw r30,r10
 1668 073a 9081      		ld r25,Z
 1669 073c 906C      		ori r25,lo8(-64)
 1670 073e 9329      		or r25,r3
 1671 0740 F801      		movw r30,r16
 1672 0742 918B      		std Z+17,r25
 241:/Users/pthalamy/Studies/CMU/benchmark/build/src-bobby/hw-block/hwDataLink.c ****             wasEscape           = 0;
 1673               		.loc 1 241 0
 1674 0744 312C      		mov r3,__zero_reg__
 1675               	.LVL188:
 267:/Users/pthalamy/Studies/CMU/benchmark/build/src-bobby/hw-block/hwDataLink.c ****             continue;
 1676               		.loc 1 267 0
 1677 0746 00C0      		rjmp .L228
 1678               	.LVL189:
 1679               	.L189:
 1680               	.LBE81:
 338:/Users/pthalamy/Studies/CMU/benchmark/build/src-bobby/hw-block/hwDataLink.c ****             currChunk->handler[port[p].rq.index] = currByte;
 1681               		.loc 1 338 0
 1682 0748 F801      		movw r30,r16
 1683 074a E80F      		add r30,r24
 1684 074c F11D      		adc r31,__zero_reg__
 336:/Users/pthalamy/Studies/CMU/benchmark/build/src-bobby/hw-block/hwDataLink.c ****         if( port[p].rq.index < POINTER_SIZE )
 1685               		.loc 1 336 0
 1686 074e 8230      		cpi r24,lo8(2)
 1687 0750 00F4      		brsh .+2
 1688 0752 00C0      		rjmp .L234
 343:/Users/pthalamy/Studies/CMU/benchmark/build/src-bobby/hw-block/hwDataLink.c ****             currChunk->data[port[p].rq.index-POINTER_SIZE] = currByte;
 1689               		.loc 1 343 0
 1690 0754 3297      		sbiw r30,2
 1691 0756 2083      		st Z,r18
 1692               	.L196:
 1693               	.LVL190:
 1694               	.LBB82:
 1695               	.LBB83:
  23:/Users/pthalamy/Studies/CMU/benchmark/build/src-bobby/hw-block/hwDataLink.c **** 	crc ^= newVal;
 1696               		.loc 1 23 0
 1697 0758 F601      		movw r30,r12
 1698 075a 8081      		ld r24,Z
 1699 075c 8227      		eor r24,r18
 1700               	.LVL191:
  26:/Users/pthalamy/Studies/CMU/benchmark/build/src-bobby/hw-block/hwDataLink.c ****         if (0x80 & crc) {
 1701               		.loc 1 26 0
 1702 075e 87FD      		sbrc r24,7
 1703 0760 00C0      		rjmp .L197
  30:/Users/pthalamy/Studies/CMU/benchmark/build/src-bobby/hw-block/hwDataLink.c ****             crc = crc << 1;
 1704               		.loc 1 30 0
 1705 0762 880F      		lsl r24
 1706               	.LVL192:
  26:/Users/pthalamy/Studies/CMU/benchmark/build/src-bobby/hw-block/hwDataLink.c ****         if (0x80 & crc) {
 1707               		.loc 1 26 0
 1708 0764 87FD      		sbrc r24,7
 1709 0766 00C0      		rjmp .L199
 1710               	.L237:
  30:/Users/pthalamy/Studies/CMU/benchmark/build/src-bobby/hw-block/hwDataLink.c ****             crc = crc << 1;
 1711               		.loc 1 30 0
 1712 0768 880F      		lsl r24
 1713               	.LVL193:
  26:/Users/pthalamy/Studies/CMU/benchmark/build/src-bobby/hw-block/hwDataLink.c ****         if (0x80 & crc) {
 1714               		.loc 1 26 0
 1715 076a 87FD      		sbrc r24,7
 1716 076c 00C0      		rjmp .L201
 1717               	.LVL194:
 1718               	.L238:
  30:/Users/pthalamy/Studies/CMU/benchmark/build/src-bobby/hw-block/hwDataLink.c ****             crc = crc << 1;
 1719               		.loc 1 30 0
 1720 076e 880F      		lsl r24
 1721               	.LVL195:
  26:/Users/pthalamy/Studies/CMU/benchmark/build/src-bobby/hw-block/hwDataLink.c ****         if (0x80 & crc) {
 1722               		.loc 1 26 0
 1723 0770 87FD      		sbrc r24,7
 1724 0772 00C0      		rjmp .L203
 1725               	.L239:
  30:/Users/pthalamy/Studies/CMU/benchmark/build/src-bobby/hw-block/hwDataLink.c ****             crc = crc << 1;
 1726               		.loc 1 30 0
 1727 0774 880F      		lsl r24
 1728               	.LVL196:
  26:/Users/pthalamy/Studies/CMU/benchmark/build/src-bobby/hw-block/hwDataLink.c ****         if (0x80 & crc) {
 1729               		.loc 1 26 0
 1730 0776 87FD      		sbrc r24,7
 1731 0778 00C0      		rjmp .L205
 1732               	.L240:
  30:/Users/pthalamy/Studies/CMU/benchmark/build/src-bobby/hw-block/hwDataLink.c ****             crc = crc << 1;
 1733               		.loc 1 30 0
 1734 077a 880F      		lsl r24
 1735               	.LVL197:
 1736               	.L206:
  26:/Users/pthalamy/Studies/CMU/benchmark/build/src-bobby/hw-block/hwDataLink.c ****         if (0x80 & crc) {
 1737               		.loc 1 26 0
 1738 077c 87FD      		sbrc r24,7
 1739 077e 00C0      		rjmp .L207
  30:/Users/pthalamy/Studies/CMU/benchmark/build/src-bobby/hw-block/hwDataLink.c ****             crc = crc << 1;
 1740               		.loc 1 30 0
 1741 0780 880F      		lsl r24
 1742               	.LVL198:
 1743               	.L208:
  26:/Users/pthalamy/Studies/CMU/benchmark/build/src-bobby/hw-block/hwDataLink.c ****         if (0x80 & crc) {
 1744               		.loc 1 26 0
 1745 0782 87FD      		sbrc r24,7
 1746 0784 00C0      		rjmp .L209
  30:/Users/pthalamy/Studies/CMU/benchmark/build/src-bobby/hw-block/hwDataLink.c ****             crc = crc << 1;
 1747               		.loc 1 30 0
 1748 0786 880F      		lsl r24
 1749               	.LVL199:
  26:/Users/pthalamy/Studies/CMU/benchmark/build/src-bobby/hw-block/hwDataLink.c ****         if (0x80 & crc) {
 1750               		.loc 1 26 0
 1751 0788 87FD      		sbrc r24,7
 1752 078a 00C0      		rjmp .L211
 1753               	.L236:
  30:/Users/pthalamy/Studies/CMU/benchmark/build/src-bobby/hw-block/hwDataLink.c ****             crc = crc << 1;
 1754               		.loc 1 30 0
 1755 078c 880F      		lsl r24
 1756               	.LVL200:
 1757               	.L212:
 1758               	.LBE83:
 1759               	.LBE82:
 346:/Users/pthalamy/Studies/CMU/benchmark/build/src-bobby/hw-block/hwDataLink.c ****         port[p].rq.checksum = crcCalc(port[p].rq.checksum, currByte);
 1760               		.loc 1 346 0
 1761 078e F601      		movw r30,r12
 1762 0790 8083      		st Z,r24
 347:/Users/pthalamy/Studies/CMU/benchmark/build/src-bobby/hw-block/hwDataLink.c ****         port[p].rq.index++;
 1763               		.loc 1 347 0
 1764 0792 F701      		movw r30,r14
 1765 0794 8081      		ld r24,Z
 1766               	.LVL201:
 1767 0796 8F5F      		subi r24,lo8(-(1))
 1768 0798 8083      		st Z,r24
 1769 079a 312C      		mov r3,__zero_reg__
 1770 079c 00C0      		rjmp .L228
 1771               	.LVL202:
 1772               	.L215:
 279:/Users/pthalamy/Studies/CMU/benchmark/build/src-bobby/hw-block/hwDataLink.c ****             wasEscape = 1;   
 1773               		.loc 1 279 0
 1774 079e 3324      		clr r3
 1775 07a0 3394      		inc r3
 1776               	.LVL203:
 1777 07a2 00C0      		rjmp .L228
 1778               	.LVL204:
 1779               	.L230:
 217:/Users/pthalamy/Studies/CMU/benchmark/build/src-bobby/hw-block/hwDataLink.c ****             port[p].rq.flags |= (1 << (currByte & 0x01));
 1780               		.loc 1 217 0
 1781 07a4 8170      		andi r24,1
 1782 07a6 9927      		clr r25
 1783               	.LVL205:
 1784 07a8 21E0      		ldi r18,lo8(1)
 1785 07aa 30E0      		ldi r19,0
 1786 07ac 00C0      		rjmp 2f
 1787               		1:
 1788 07ae 220F      		lsl r18
 1789               		2:
 1790 07b0 8A95      		dec r24
 1791 07b2 02F4      		brpl 1b
 1792 07b4 F401      		movw r30,r8
 1793 07b6 8081      		ld r24,Z
 1794 07b8 822B      		or r24,r18
 1795 07ba 8083      		st Z,r24
 1796               	.LVL206:
 1797               	.LBB92:
 1798               	.LBB79:
  42:/Users/pthalamy/Studies/CMU/benchmark/build/src-bobby/hw-block/hwDataLink.c ****     byte currParity = sendParity(port[p].sq);
 1799               		.loc 1 42 0
 1800 07bc E981      		ldd r30,Y+1
 1801 07be FA81      		ldd r31,Y+2
 1802 07c0 3081      		ld r19,Z
 1803               	.LVL207:
  45:/Users/pthalamy/Studies/CMU/benchmark/build/src-bobby/hw-block/hwDataLink.c ****     if( !(gotOddAck(port[p].rq) ^ gotEvenAck(port[p].rq)) ) 
 1804               		.loc 1 45 0
 1805 07c2 982F      		mov r25,r24
 1806 07c4 9695      		lsr r25
 1807               	.LBE79:
 1808 07c6 292F      		mov r18,r25
 1809 07c8 2827      		eor r18,r24
 1810               	.LBB80:
  47:/Users/pthalamy/Studies/CMU/benchmark/build/src-bobby/hw-block/hwDataLink.c ****         clearReceivedAcks( port[p].rq );
 1811               		.loc 1 47 0
 1812 07ca 8C7F      		andi r24,lo8(-4)
 1813 07cc F401      		movw r30,r8
 1814 07ce 8083      		st Z,r24
  45:/Users/pthalamy/Studies/CMU/benchmark/build/src-bobby/hw-block/hwDataLink.c ****     if( !(gotOddAck(port[p].rq) ^ gotEvenAck(port[p].rq)) ) 
 1815               		.loc 1 45 0
 1816 07d0 20FF      		sbrs r18,0
 1817 07d2 00C0      		rjmp .L228
 1818               	.LVL208:
  42:/Users/pthalamy/Studies/CMU/benchmark/build/src-bobby/hw-block/hwDataLink.c ****     byte currParity = sendParity(port[p].sq);
 1819               		.loc 1 42 0
 1820 07d4 32FB      		bst r19,2
 1821 07d6 3327      		clr r19
 1822 07d8 30F9      		bld r19,0
 1823               	.LVL209:
  50:/Users/pthalamy/Studies/CMU/benchmark/build/src-bobby/hw-block/hwDataLink.c ****     byte recdParity = gotOddAck(port[p].rq);
 1824               		.loc 1 50 0
 1825 07da 9170      		andi r25,lo8(1)
 1826               	.LVL210:
  54:/Users/pthalamy/Studies/CMU/benchmark/build/src-bobby/hw-block/hwDataLink.c ****     if(currParity == recdParity)
 1827               		.loc 1 54 0
 1828 07dc 3913      		cpse r19,r25
 1829 07de 00C0      		rjmp .L228
  57:/Users/pthalamy/Studies/CMU/benchmark/build/src-bobby/hw-block/hwDataLink.c ****         removeFromSq(p, MSG_RESP_ACK);
 1830               		.loc 1 57 0
 1831 07e0 68E0      		ldi r22,lo8(8)
 1832 07e2 822D      		mov r24,r2
 1833 07e4 0E94 0000 		call removeFromSq
 1834               	.LVL211:
  60:/Users/pthalamy/Studies/CMU/benchmark/build/src-bobby/hw-block/hwDataLink.c ****         port[p].sq.retry    = NUM_RETRIES;
 1835               		.loc 1 60 0
 1836 07e8 94E0      		ldi r25,lo8(4)
 1837 07ea EB81      		ldd r30,Y+3
 1838 07ec FC81      		ldd r31,Y+4
 1839 07ee 9083      		st Z,r25
  61:/Users/pthalamy/Studies/CMU/benchmark/build/src-bobby/hw-block/hwDataLink.c ****         flipParity(port[p].sq);
 1840               		.loc 1 61 0
 1841 07f0 E981      		ldd r30,Y+1
 1842 07f2 FA81      		ldd r31,Y+2
 1843 07f4 8081      		ld r24,Z
 1844 07f6 8927      		eor r24,r25
  62:/Users/pthalamy/Studies/CMU/benchmark/build/src-bobby/hw-block/hwDataLink.c ****         port[p].sq.flags   |= CLEAR_TO_SEND;
 1845               		.loc 1 62 0
 1846 07f8 8064      		ori r24,lo8(64)
 1847 07fa 8083      		st Z,r24
  65:/Users/pthalamy/Studies/CMU/benchmark/build/src-bobby/hw-block/hwDataLink.c ****         deregisterTimeout(&(port[p].sq.qtout.tout));
 1848               		.loc 1 65 0
 1849 07fc 8D81      		ldd r24,Y+5
 1850 07fe 9E81      		ldd r25,Y+6
 1851 0800 0E94 0000 		call deregisterTimeout
 1852               	.LVL212:
 1853 0804 00C0      		rjmp .L228
 1854               	.LVL213:
 1855               	.L180:
 1856               	.LBE80:
 1857               	.LBE92:
 204:/Users/pthalamy/Studies/CMU/benchmark/build/src-bobby/hw-block/hwDataLink.c ****         port[p].rq.index    = 0;
 1858               		.loc 1 204 0
 1859 0806 88E5      		ldi r24,lo8(88)
 1860 0808 8E9D      		mul r24,r14
 1861 080a F001      		movw r30,r0
 1862 080c 8F9D      		mul r24,r15
 1863 080e F00D      		add r31,r0
 1864 0810 1124      		clr __zero_reg__
 1865 0812 E050      		subi r30,lo8(-(port))
 1866 0814 F040      		sbci r31,hi8(-(port))
 1867 0816 138A      		std Z+19,__zero_reg__
 205:/Users/pthalamy/Studies/CMU/benchmark/build/src-bobby/hw-block/hwDataLink.c ****         port[p].rq.checksum = 0;
 1868               		.loc 1 205 0
 1869 0818 148A      		std Z+20,__zero_reg__
 1870               	.LVL214:
 206:/Users/pthalamy/Studies/CMU/benchmark/build/src-bobby/hw-block/hwDataLink.c ****         wasEscape           = 0;
 1871               		.loc 1 206 0
 1872 081a 312C      		mov r3,__zero_reg__
 187:/Users/pthalamy/Studies/CMU/benchmark/build/src-bobby/hw-block/hwDataLink.c ****     Chunk* currChunk = NULL;
 1873               		.loc 1 187 0
 1874 081c 00E0      		ldi r16,0
 1875 081e 10E0      		ldi r17,0
 1876 0820 00C0      		rjmp .L223
 1877               	.LVL215:
 1878               	.L232:
 1879               	.LBB93:
 297:/Users/pthalamy/Studies/CMU/benchmark/build/src-bobby/hw-block/hwDataLink.c ****                 currChunk->status &= ~CHUNK_FILLING;
 1880               		.loc 1 297 0
 1881 0822 F801      		movw r30,r16
 1882 0824 8189      		ldd r24,Z+17
 1883 0826 8F7B      		andi r24,lo8(-65)
 1884 0828 818B      		std Z+17,r24
 298:/Users/pthalamy/Studies/CMU/benchmark/build/src-bobby/hw-block/hwDataLink.c ****                 port[p].rq.flags  |=  CHUNK_READY;
 1885               		.loc 1 298 0
 1886 082a F401      		movw r30,r8
 1887 082c 8081      		ld r24,Z
 1888 082e 8068      		ori r24,lo8(-128)
 1889 0830 8083      		st Z,r24
 1890               	.LVL216:
 301:/Users/pthalamy/Studies/CMU/benchmark/build/src-bobby/hw-block/hwDataLink.c ****                 byte parity = chunkParity(currChunk);
 1891               		.loc 1 301 0
 1892 0832 F801      		movw r30,r16
 1893 0834 9189      		ldd r25,Z+17
 1894 0836 95FB      		bst r25,5
 1895 0838 9927      		clr r25
 1896 083a 90F9      		bld r25,0
 302:/Users/pthalamy/Studies/CMU/benchmark/build/src-bobby/hw-block/hwDataLink.c ****                 byte last   = parityLastChunk(port[p].rq);
 1897               		.loc 1 302 0
 1898 083c 86FB      		bst r24,6
 1899 083e 8827      		clr r24
 1900 0840 80F9      		bld r24,0
 1901               	.LVL217:
 305:/Users/pthalamy/Studies/CMU/benchmark/build/src-bobby/hw-block/hwDataLink.c ****                 if(parity != last) {
 1902               		.loc 1 305 0
 1903 0842 9817      		cp r25,r24
 1904 0844 01F4      		brne .+2
 1905 0846 00C0      		rjmp .L191
 1906               	.LVL218:
 1907               	.LBB73:
 1908               	.LBB74:
  80:/Users/pthalamy/Studies/CMU/benchmark/build/src-bobby/hw-block/hwDataLink.c ****     c->next = NULL;
 1909               		.loc 1 80 0
 1910 0848 128A      		std Z+18,__zero_reg__
 1911 084a 138A      		std Z+19,__zero_reg__
  83:/Users/pthalamy/Studies/CMU/benchmark/build/src-bobby/hw-block/hwDataLink.c ****     if( globalRq.head == NULL ) 
 1912               		.loc 1 83 0
 1913 084c 8091 0000 		lds r24,globalRq
 1914 0850 9091 0000 		lds r25,globalRq+1
 1915 0854 892B      		or r24,r25
 1916 0856 01F4      		brne .+2
 1917 0858 00C0      		rjmp .L235
  89:/Users/pthalamy/Studies/CMU/benchmark/build/src-bobby/hw-block/hwDataLink.c ****         globalRq.tail->next = c;
 1918               		.loc 1 89 0
 1919 085a E091 0000 		lds r30,globalRq+2
 1920 085e F091 0000 		lds r31,globalRq+2+1
 1921 0862 028B      		std Z+18,r16
 1922 0864 138B      		std Z+19,r17
 1923               	.L193:
  93:/Users/pthalamy/Studies/CMU/benchmark/build/src-bobby/hw-block/hwDataLink.c ****     globalRq.tail  = c;
 1924               		.loc 1 93 0
 1925 0866 0093 0000 		sts globalRq+2,r16
 1926 086a 1093 0000 		sts globalRq+2+1,r17
  94:/Users/pthalamy/Studies/CMU/benchmark/build/src-bobby/hw-block/hwDataLink.c ****     globalRq.flags = PACKET_READY;
 1927               		.loc 1 94 0
 1928 086e F0E8      		ldi r31,lo8(-128)
 1929 0870 F093 0000 		sts globalRq+4,r31
 1930               	.LBE74:
 1931               	.LBE73:
 313:/Users/pthalamy/Studies/CMU/benchmark/build/src-bobby/hw-block/hwDataLink.c ****                     flipParityLast(port[p].rq);
 1932               		.loc 1 313 0
 1933 0874 F401      		movw r30,r8
 1934 0876 8081      		ld r24,Z
 1935 0878 F0E4      		ldi r31,lo8(64)
 1936 087a 8F27      		eor r24,r31
 1937 087c F401      		movw r30,r8
 1938 087e 8083      		st Z,r24
 1939               	.LVL219:
 1940               	.L194:
 322:/Users/pthalamy/Studies/CMU/benchmark/build/src-bobby/hw-block/hwDataLink.c ****                 port[p].rq.curr = NULL;
 1941               		.loc 1 322 0
 1942 0880 F201      		movw r30,r4
 1943 0882 1082      		st Z,__zero_reg__
 1944 0884 1182      		std Z+1,__zero_reg__
 1945 0886 00C0      		rjmp .L190
 1946               	.LVL220:
 1947               	.L209:
 1948               	.LBE93:
 1949               	.LBB94:
 1950               	.LBB84:
  27:/Users/pthalamy/Studies/CMU/benchmark/build/src-bobby/hw-block/hwDataLink.c ****             crc = (crc << 1) ^ CRC_POLY;
 1951               		.loc 1 27 0
 1952 0888 90E0      		ldi r25,0
 1953 088a 880F      		lsl r24
 1954 088c 991F      		rol r25
 1955               	.LVL221:
 1956               	.LBE84:
 1957 088e 36EA      		ldi r19,166
 1958 0890 8327      		eor r24,r19
 1959 0892 9095      		com r25
 1960               	.LVL222:
 1961               	.LBB85:
  26:/Users/pthalamy/Studies/CMU/benchmark/build/src-bobby/hw-block/hwDataLink.c ****         if (0x80 & crc) {
 1962               		.loc 1 26 0
 1963 0894 87FF      		sbrs r24,7
 1964 0896 00C0      		rjmp .L236
 1965               	.L211:
  27:/Users/pthalamy/Studies/CMU/benchmark/build/src-bobby/hw-block/hwDataLink.c ****             crc = (crc << 1) ^ CRC_POLY;
 1966               		.loc 1 27 0
 1967 0898 90E0      		ldi r25,0
 1968 089a 880F      		lsl r24
 1969 089c 991F      		rol r25
 1970               	.LVL223:
 1971               	.LBE85:
 1972 089e E6EA      		ldi r30,166
 1973 08a0 8E27      		eor r24,r30
 1974 08a2 9095      		com r25
 1975               	.LVL224:
 1976 08a4 00C0      		rjmp .L212
 1977               	.LVL225:
 1978               	.L207:
 1979               	.LBB86:
 1980 08a6 90E0      		ldi r25,0
 1981 08a8 880F      		lsl r24
 1982 08aa 991F      		rol r25
 1983               	.LVL226:
 1984               	.LBE86:
 1985 08ac 26EA      		ldi r18,166
 1986 08ae 8227      		eor r24,r18
 1987 08b0 9095      		com r25
 1988               	.LVL227:
 1989 08b2 00C0      		rjmp .L208
 1990               	.LVL228:
 1991               	.L197:
 1992               	.LBB87:
 1993 08b4 90E0      		ldi r25,0
 1994 08b6 880F      		lsl r24
 1995 08b8 991F      		rol r25
 1996               	.LVL229:
 1997               	.LBE87:
 1998 08ba F6EA      		ldi r31,166
 1999 08bc 8F27      		eor r24,r31
 2000 08be 9095      		com r25
 2001               	.LVL230:
 2002               	.LBB88:
  26:/Users/pthalamy/Studies/CMU/benchmark/build/src-bobby/hw-block/hwDataLink.c ****         if (0x80 & crc) {
 2003               		.loc 1 26 0
 2004 08c0 87FF      		sbrs r24,7
 2005 08c2 00C0      		rjmp .L237
 2006               	.L199:
  27:/Users/pthalamy/Studies/CMU/benchmark/build/src-bobby/hw-block/hwDataLink.c ****             crc = (crc << 1) ^ CRC_POLY;
 2007               		.loc 1 27 0
 2008 08c4 90E0      		ldi r25,0
 2009 08c6 880F      		lsl r24
 2010 08c8 991F      		rol r25
 2011               	.LVL231:
 2012               	.LBE88:
 2013 08ca 26EA      		ldi r18,166
 2014 08cc 8227      		eor r24,r18
 2015 08ce 9095      		com r25
 2016               	.LVL232:
 2017               	.LBB89:
  26:/Users/pthalamy/Studies/CMU/benchmark/build/src-bobby/hw-block/hwDataLink.c ****         if (0x80 & crc) {
 2018               		.loc 1 26 0
 2019 08d0 87FF      		sbrs r24,7
 2020 08d2 00C0      		rjmp .L238
 2021               	.L201:
  27:/Users/pthalamy/Studies/CMU/benchmark/build/src-bobby/hw-block/hwDataLink.c ****             crc = (crc << 1) ^ CRC_POLY;
 2022               		.loc 1 27 0
 2023 08d4 90E0      		ldi r25,0
 2024 08d6 880F      		lsl r24
 2025 08d8 991F      		rol r25
 2026               	.LVL233:
 2027               	.LBE89:
 2028 08da 36EA      		ldi r19,166
 2029 08dc 8327      		eor r24,r19
 2030 08de 9095      		com r25
 2031               	.LVL234:
 2032               	.LBB90:
  26:/Users/pthalamy/Studies/CMU/benchmark/build/src-bobby/hw-block/hwDataLink.c ****         if (0x80 & crc) {
 2033               		.loc 1 26 0
 2034 08e0 87FF      		sbrs r24,7
 2035 08e2 00C0      		rjmp .L239
 2036               	.L203:
  27:/Users/pthalamy/Studies/CMU/benchmark/build/src-bobby/hw-block/hwDataLink.c ****             crc = (crc << 1) ^ CRC_POLY;
 2037               		.loc 1 27 0
 2038 08e4 90E0      		ldi r25,0
 2039 08e6 880F      		lsl r24
 2040 08e8 991F      		rol r25
 2041               	.LVL235:
 2042               	.LBE90:
 2043 08ea E6EA      		ldi r30,166
 2044 08ec 8E27      		eor r24,r30
 2045 08ee 9095      		com r25
 2046               	.LVL236:
 2047               	.LBB91:
  26:/Users/pthalamy/Studies/CMU/benchmark/build/src-bobby/hw-block/hwDataLink.c ****         if (0x80 & crc) {
 2048               		.loc 1 26 0
 2049 08f0 87FF      		sbrs r24,7
 2050 08f2 00C0      		rjmp .L240
 2051               	.L205:
  27:/Users/pthalamy/Studies/CMU/benchmark/build/src-bobby/hw-block/hwDataLink.c ****             crc = (crc << 1) ^ CRC_POLY;
 2052               		.loc 1 27 0
 2053 08f4 90E0      		ldi r25,0
 2054 08f6 880F      		lsl r24
 2055 08f8 991F      		rol r25
 2056               	.LVL237:
 2057               	.LBE91:
 2058 08fa F6EA      		ldi r31,166
 2059 08fc 8F27      		eor r24,r31
 2060 08fe 9095      		com r25
 2061               	.LVL238:
 2062 0900 00C0      		rjmp .L206
 2063               	.LVL239:
 2064               	.L234:
 2065               	.LBE94:
 338:/Users/pthalamy/Studies/CMU/benchmark/build/src-bobby/hw-block/hwDataLink.c ****             currChunk->handler[port[p].rq.index] = currByte;
 2066               		.loc 1 338 0
 2067 0902 248B      		std Z+20,r18
 2068 0904 00C0      		rjmp .L196
 2069               	.LVL240:
 2070               	.L233:
 2071               	.LBB95:
 251:/Users/pthalamy/Studies/CMU/benchmark/build/src-bobby/hw-block/hwDataLink.c ****                 currChunk = getSystemRXChunk();
 2072               		.loc 1 251 0
 2073 0906 0E94 0000 		call getSystemRXChunk
 2074               	.LVL241:
 2075 090a 8C01      		movw r16,r24
 2076               	.LVL242:
 254:/Users/pthalamy/Studies/CMU/benchmark/build/src-bobby/hw-block/hwDataLink.c ****                 if( currChunk == NULL )
 2077               		.loc 1 254 0
 2078 090c 0097      		sbiw r24,0
 2079 090e 01F0      		breq .L214
 261:/Users/pthalamy/Studies/CMU/benchmark/build/src-bobby/hw-block/hwDataLink.c ****                 port[p].rq.curr = currChunk;
 2080               		.loc 1 261 0
 2081 0910 F201      		movw r30,r4
 2082 0912 8083      		st Z,r24
 2083 0914 9183      		std Z+1,r25
 2084 0916 00C0      		rjmp .L187
 2085               	.LVL243:
 2086               	.L191:
 2087               	.LBE95:
 2088               	.LBB96:
 318:/Users/pthalamy/Studies/CMU/benchmark/build/src-bobby/hw-block/hwDataLink.c ****                     freeChunk(currChunk);
 2089               		.loc 1 318 0
 2090 0918 C801      		movw r24,r16
 2091 091a 0E94 0000 		call freeChunk
 2092               	.LVL244:
 2093 091e 00C0      		rjmp .L194
 2094               	.LVL245:
 2095               	.L235:
 2096               	.LBB76:
 2097               	.LBB75:
  85:/Users/pthalamy/Studies/CMU/benchmark/build/src-bobby/hw-block/hwDataLink.c ****         globalRq.head = c;
 2098               		.loc 1 85 0
 2099 0920 0093 0000 		sts globalRq,r16
 2100 0924 1093 0000 		sts globalRq+1,r17
 2101 0928 00C0      		rjmp .L193
 2102               	.LVL246:
 2103               	.L214:
 2104               	.LBE75:
 2105               	.LBE76:
 2106               	.LBE96:
 2107               	.LBB97:
 241:/Users/pthalamy/Studies/CMU/benchmark/build/src-bobby/hw-block/hwDataLink.c ****             wasEscape           = 0;
 2108               		.loc 1 241 0
 2109 092a 312C      		mov r3,__zero_reg__
 2110               	.LVL247:
 2111 092c 00C0      		rjmp .L228
 2112               	.LBE97:
 2113               		.cfi_endproc
 2114               	.LFE11:
 2116               	.global	nextPacket
 2118               	nextPacket:
 2119               	.LFB12:
 353:/Users/pthalamy/Studies/CMU/benchmark/build/src-bobby/hw-block/hwDataLink.c **** 
 354:/Users/pthalamy/Studies/CMU/benchmark/build/src-bobby/hw-block/hwDataLink.c **** // gets data from the global receive queue
 355:/Users/pthalamy/Studies/CMU/benchmark/build/src-bobby/hw-block/hwDataLink.c **** Chunk* nextPacket(void)
 356:/Users/pthalamy/Studies/CMU/benchmark/build/src-bobby/hw-block/hwDataLink.c **** {
 2120               		.loc 1 356 0
 2121               		.cfi_startproc
 2122               	/* prologue: function */
 2123               	/* frame size = 0 */
 2124               	/* stack size = 0 */
 2125               	.L__stack_usage = 0
 2126               	.LVL248:
 357:/Users/pthalamy/Studies/CMU/benchmark/build/src-bobby/hw-block/hwDataLink.c ****     Chunk* c = NULL;
 358:/Users/pthalamy/Studies/CMU/benchmark/build/src-bobby/hw-block/hwDataLink.c **** 
 359:/Users/pthalamy/Studies/CMU/benchmark/build/src-bobby/hw-block/hwDataLink.c ****     // no packets
 360:/Users/pthalamy/Studies/CMU/benchmark/build/src-bobby/hw-block/hwDataLink.c ****     if( globalRq.head == NULL )
 2127               		.loc 1 360 0
 2128 092e E091 0000 		lds r30,globalRq
 2129 0932 F091 0000 		lds r31,globalRq+1
 2130 0936 3097      		sbiw r30,0
 2131 0938 01F0      		breq .L245
 2132               	.LVL249:
 361:/Users/pthalamy/Studies/CMU/benchmark/build/src-bobby/hw-block/hwDataLink.c ****     {
 362:/Users/pthalamy/Studies/CMU/benchmark/build/src-bobby/hw-block/hwDataLink.c ****         globalRq.tail = NULL;
 363:/Users/pthalamy/Studies/CMU/benchmark/build/src-bobby/hw-block/hwDataLink.c ****         globalRq.flags &= ~PACKET_READY;
 364:/Users/pthalamy/Studies/CMU/benchmark/build/src-bobby/hw-block/hwDataLink.c ****         return NULL;
 365:/Users/pthalamy/Studies/CMU/benchmark/build/src-bobby/hw-block/hwDataLink.c ****     }
 366:/Users/pthalamy/Studies/CMU/benchmark/build/src-bobby/hw-block/hwDataLink.c **** 
 367:/Users/pthalamy/Studies/CMU/benchmark/build/src-bobby/hw-block/hwDataLink.c ****     // update pointers
 368:/Users/pthalamy/Studies/CMU/benchmark/build/src-bobby/hw-block/hwDataLink.c ****     c = globalRq.head;
 369:/Users/pthalamy/Studies/CMU/benchmark/build/src-bobby/hw-block/hwDataLink.c ****     
 370:/Users/pthalamy/Studies/CMU/benchmark/build/src-bobby/hw-block/hwDataLink.c ****     globalRq.head = c->next;
 2133               		.loc 1 370 0
 2134 093a 8289      		ldd r24,Z+18
 2135 093c 9389      		ldd r25,Z+19
 2136 093e 8093 0000 		sts globalRq,r24
 2137 0942 9093 0000 		sts globalRq+1,r25
 371:/Users/pthalamy/Studies/CMU/benchmark/build/src-bobby/hw-block/hwDataLink.c ****     if( globalRq.head == NULL )
 2138               		.loc 1 371 0
 2139 0946 892B      		or r24,r25
 2140 0948 01F0      		breq .L246
 2141               	.L244:
 372:/Users/pthalamy/Studies/CMU/benchmark/build/src-bobby/hw-block/hwDataLink.c ****     {
 373:/Users/pthalamy/Studies/CMU/benchmark/build/src-bobby/hw-block/hwDataLink.c ****         globalRq.flags &= ~PACKET_READY;
 374:/Users/pthalamy/Studies/CMU/benchmark/build/src-bobby/hw-block/hwDataLink.c ****         globalRq.tail = NULL;
 375:/Users/pthalamy/Studies/CMU/benchmark/build/src-bobby/hw-block/hwDataLink.c ****     }
 376:/Users/pthalamy/Studies/CMU/benchmark/build/src-bobby/hw-block/hwDataLink.c ****     
 377:/Users/pthalamy/Studies/CMU/benchmark/build/src-bobby/hw-block/hwDataLink.c ****     // isolate and return
 378:/Users/pthalamy/Studies/CMU/benchmark/build/src-bobby/hw-block/hwDataLink.c ****     c->next = NULL;
 2142               		.loc 1 378 0
 2143 094a 128A      		std Z+18,__zero_reg__
 2144 094c 138A      		std Z+19,__zero_reg__
 2145               	.LVL250:
 2146               	.L243:
 379:/Users/pthalamy/Studies/CMU/benchmark/build/src-bobby/hw-block/hwDataLink.c ****     return c;
 380:/Users/pthalamy/Studies/CMU/benchmark/build/src-bobby/hw-block/hwDataLink.c **** }
 2147               		.loc 1 380 0
 2148 094e CF01      		movw r24,r30
 2149 0950 0895      		ret
 2150               	.LVL251:
 2151               	.L246:
 373:/Users/pthalamy/Studies/CMU/benchmark/build/src-bobby/hw-block/hwDataLink.c ****         globalRq.flags &= ~PACKET_READY;
 2152               		.loc 1 373 0
 2153 0952 8091 0000 		lds r24,globalRq+4
 2154 0956 8F77      		andi r24,lo8(127)
 2155 0958 8093 0000 		sts globalRq+4,r24
 374:/Users/pthalamy/Studies/CMU/benchmark/build/src-bobby/hw-block/hwDataLink.c ****         globalRq.tail = NULL;
 2156               		.loc 1 374 0
 2157 095c 1092 0000 		sts globalRq+2,__zero_reg__
 2158 0960 1092 0000 		sts globalRq+2+1,__zero_reg__
 2159 0964 00C0      		rjmp .L244
 2160               	.LVL252:
 2161               	.L245:
 362:/Users/pthalamy/Studies/CMU/benchmark/build/src-bobby/hw-block/hwDataLink.c ****         globalRq.tail = NULL;
 2162               		.loc 1 362 0
 2163 0966 1092 0000 		sts globalRq+2,__zero_reg__
 2164 096a 1092 0000 		sts globalRq+2+1,__zero_reg__
 363:/Users/pthalamy/Studies/CMU/benchmark/build/src-bobby/hw-block/hwDataLink.c ****         globalRq.flags &= ~PACKET_READY;
 2165               		.loc 1 363 0
 2166 096e 8091 0000 		lds r24,globalRq+4
 2167 0972 8F77      		andi r24,lo8(127)
 2168 0974 8093 0000 		sts globalRq+4,r24
 364:/Users/pthalamy/Studies/CMU/benchmark/build/src-bobby/hw-block/hwDataLink.c ****         return NULL;
 2169               		.loc 1 364 0
 2170 0978 00C0      		rjmp .L243
 2171               		.cfi_endproc
 2172               	.LFE12:
 2174               	.global	sendOnSerial
 2176               	sendOnSerial:
 2177               	.LFB13:
 381:/Users/pthalamy/Studies/CMU/benchmark/build/src-bobby/hw-block/hwDataLink.c **** 
 382:/Users/pthalamy/Studies/CMU/benchmark/build/src-bobby/hw-block/hwDataLink.c **** // try sending stuff if available and ready
 383:/Users/pthalamy/Studies/CMU/benchmark/build/src-bobby/hw-block/hwDataLink.c **** void sendOnSerial(PRef p)
 384:/Users/pthalamy/Studies/CMU/benchmark/build/src-bobby/hw-block/hwDataLink.c **** {
 2178               		.loc 1 384 0
 2179               		.cfi_startproc
 2180               	.LVL253:
 2181 097a DF92      		push r13
 2182               	.LCFI39:
 2183               		.cfi_def_cfa_offset 4
 2184               		.cfi_offset 13, -3
 2185 097c EF92      		push r14
 2186               	.LCFI40:
 2187               		.cfi_def_cfa_offset 5
 2188               		.cfi_offset 14, -4
 2189 097e FF92      		push r15
 2190               	.LCFI41:
 2191               		.cfi_def_cfa_offset 6
 2192               		.cfi_offset 15, -5
 2193 0980 0F93      		push r16
 2194               	.LCFI42:
 2195               		.cfi_def_cfa_offset 7
 2196               		.cfi_offset 16, -6
 2197 0982 1F93      		push r17
 2198               	.LCFI43:
 2199               		.cfi_def_cfa_offset 8
 2200               		.cfi_offset 17, -7
 2201 0984 CF93      		push r28
 2202               	.LCFI44:
 2203               		.cfi_def_cfa_offset 9
 2204               		.cfi_offset 28, -8
 2205 0986 DF93      		push r29
 2206               	.LCFI45:
 2207               		.cfi_def_cfa_offset 10
 2208               		.cfi_offset 29, -9
 2209               	/* prologue: function */
 2210               	/* frame size = 0 */
 2211               	/* stack size = 7 */
 2212               	.L__stack_usage = 7
 2213 0988 D82E      		mov r13,r24
 385:/Users/pthalamy/Studies/CMU/benchmark/build/src-bobby/hw-block/hwDataLink.c ****     // send acks
 386:/Users/pthalamy/Studies/CMU/benchmark/build/src-bobby/hw-block/hwDataLink.c ****     if( shouldSendOddAck(port[p].sq) )
 2214               		.loc 1 386 0
 2215 098a E82E      		mov r14,r24
 2216 098c F12C      		mov r15,__zero_reg__
 2217 098e 88E5      		ldi r24,lo8(88)
 2218               	.LVL254:
 2219 0990 D89E      		mul r13,r24
 2220 0992 B001      		movw r22,r0
 2221 0994 1124      		clr __zero_reg__
 2222 0996 EB01      		movw r28,r22
 2223 0998 C050      		subi r28,lo8(-(port))
 2224 099a D040      		sbci r29,hi8(-(port))
 2225 099c 4E85      		ldd r20,Y+14
 2226 099e 41FD      		sbrc r20,1
 2227 09a0 00C0      		rjmp .L266
 2228               	.L248:
 387:/Users/pthalamy/Studies/CMU/benchmark/build/src-bobby/hw-block/hwDataLink.c ****     {
 388:/Users/pthalamy/Studies/CMU/benchmark/build/src-bobby/hw-block/hwDataLink.c ****         if( isEmpty(&(port[p].tx)) ) {
 389:/Users/pthalamy/Studies/CMU/benchmark/build/src-bobby/hw-block/hwDataLink.c ****             pPutChar(ACK | ODD, port[p].pnum);
 390:/Users/pthalamy/Studies/CMU/benchmark/build/src-bobby/hw-block/hwDataLink.c ****         }
 391:/Users/pthalamy/Studies/CMU/benchmark/build/src-bobby/hw-block/hwDataLink.c ****         else {
 392:/Users/pthalamy/Studies/CMU/benchmark/build/src-bobby/hw-block/hwDataLink.c ****             push(ACK | ODD, &(port[p].tx));
 393:/Users/pthalamy/Studies/CMU/benchmark/build/src-bobby/hw-block/hwDataLink.c ****         }
 394:/Users/pthalamy/Studies/CMU/benchmark/build/src-bobby/hw-block/hwDataLink.c ****     }
 395:/Users/pthalamy/Studies/CMU/benchmark/build/src-bobby/hw-block/hwDataLink.c ****     if( shouldSendEvenAck(port[p].sq) )
 2229               		.loc 1 395 0
 2230 09a2 40FD      		sbrc r20,0
 2231 09a4 00C0      		rjmp .L267
 2232               	.L250:
 396:/Users/pthalamy/Studies/CMU/benchmark/build/src-bobby/hw-block/hwDataLink.c ****     {
 397:/Users/pthalamy/Studies/CMU/benchmark/build/src-bobby/hw-block/hwDataLink.c ****         if( isEmpty(&(port[p].tx)) ) {
 398:/Users/pthalamy/Studies/CMU/benchmark/build/src-bobby/hw-block/hwDataLink.c ****             pPutChar(ACK | EVEN, port[p].pnum);
 399:/Users/pthalamy/Studies/CMU/benchmark/build/src-bobby/hw-block/hwDataLink.c ****         }
 400:/Users/pthalamy/Studies/CMU/benchmark/build/src-bobby/hw-block/hwDataLink.c ****         else {
 401:/Users/pthalamy/Studies/CMU/benchmark/build/src-bobby/hw-block/hwDataLink.c ****             push(ACK | EVEN, &(port[p].tx));
 402:/Users/pthalamy/Studies/CMU/benchmark/build/src-bobby/hw-block/hwDataLink.c ****         }
 403:/Users/pthalamy/Studies/CMU/benchmark/build/src-bobby/hw-block/hwDataLink.c ****     }
 404:/Users/pthalamy/Studies/CMU/benchmark/build/src-bobby/hw-block/hwDataLink.c ****     clearSendAcks(port[p].sq);
 2233               		.loc 1 404 0
 2234 09a6 4C7F      		andi r20,lo8(-4)
 2235 09a8 88E5      		ldi r24,lo8(88)
 2236 09aa 8E9D      		mul r24,r14
 2237 09ac 8001      		movw r16,r0
 2238 09ae 8F9D      		mul r24,r15
 2239 09b0 100D      		add r17,r0
 2240 09b2 1124      		clr __zero_reg__
 2241 09b4 E801      		movw r28,r16
 2242 09b6 C050      		subi r28,lo8(-(port))
 2243 09b8 D040      		sbci r29,hi8(-(port))
 2244 09ba 4E87      		std Y+14,r20
 405:/Users/pthalamy/Studies/CMU/benchmark/build/src-bobby/hw-block/hwDataLink.c ****     
 406:/Users/pthalamy/Studies/CMU/benchmark/build/src-bobby/hw-block/hwDataLink.c ****     // send Chunk?
 407:/Users/pthalamy/Studies/CMU/benchmark/build/src-bobby/hw-block/hwDataLink.c ****     if( chunkReady(port[p].sq) )
 2245               		.loc 1 407 0
 2246 09bc 47FF      		sbrs r20,7
 2247 09be 00C0      		rjmp .L247
 408:/Users/pthalamy/Studies/CMU/benchmark/build/src-bobby/hw-block/hwDataLink.c ****     {
 409:/Users/pthalamy/Studies/CMU/benchmark/build/src-bobby/hw-block/hwDataLink.c ****         if( clearToSend(port[p].sq) )
 2248               		.loc 1 409 0
 2249 09c0 46FF      		sbrs r20,6
 2250 09c2 00C0      		rjmp .L247
 410:/Users/pthalamy/Studies/CMU/benchmark/build/src-bobby/hw-block/hwDataLink.c ****         {
 411:/Users/pthalamy/Studies/CMU/benchmark/build/src-bobby/hw-block/hwDataLink.c ****             // out of retries
 412:/Users/pthalamy/Studies/CMU/benchmark/build/src-bobby/hw-block/hwDataLink.c ****             if( (port[p].sq.retry <= 0) || (port[p].sq.retry > NUM_RETRIES))
 2251               		.loc 1 412 0
 2252 09c4 8D85      		ldd r24,Y+13
 2253 09c6 8150      		subi r24,lo8(-(-1))
 2254 09c8 8430      		cpi r24,lo8(4)
 2255 09ca 00F4      		brsh .L268
 413:/Users/pthalamy/Studies/CMU/benchmark/build/src-bobby/hw-block/hwDataLink.c ****             {
 414:/Users/pthalamy/Studies/CMU/benchmark/build/src-bobby/hw-block/hwDataLink.c ****                 // reset the timer
 415:/Users/pthalamy/Studies/CMU/benchmark/build/src-bobby/hw-block/hwDataLink.c ****                 deregisterTimeout(&(port[p].sq.qtout.tout));
 416:/Users/pthalamy/Studies/CMU/benchmark/build/src-bobby/hw-block/hwDataLink.c **** 
 417:/Users/pthalamy/Studies/CMU/benchmark/build/src-bobby/hw-block/hwDataLink.c ****                 // flush the queue
 418:/Users/pthalamy/Studies/CMU/benchmark/build/src-bobby/hw-block/hwDataLink.c ****                 flushSendQueue(p);
 419:/Users/pthalamy/Studies/CMU/benchmark/build/src-bobby/hw-block/hwDataLink.c ****                         
 420:/Users/pthalamy/Studies/CMU/benchmark/build/src-bobby/hw-block/hwDataLink.c ****                 // reset the flags
 421:/Users/pthalamy/Studies/CMU/benchmark/build/src-bobby/hw-block/hwDataLink.c ****                 port[p].sq.retry    = NUM_RETRIES;
 422:/Users/pthalamy/Studies/CMU/benchmark/build/src-bobby/hw-block/hwDataLink.c ****                 port[p].sq.flags   |= CLEAR_TO_SEND;
 423:/Users/pthalamy/Studies/CMU/benchmark/build/src-bobby/hw-block/hwDataLink.c ****                 flipParity(port[p].sq);
 424:/Users/pthalamy/Studies/CMU/benchmark/build/src-bobby/hw-block/hwDataLink.c **** 
 425:/Users/pthalamy/Studies/CMU/benchmark/build/src-bobby/hw-block/hwDataLink.c ****                 // ensemble level updates - remove neighbor, restart neighbor scanning
 426:/Users/pthalamy/Studies/CMU/benchmark/build/src-bobby/hw-block/hwDataLink.c ****                 //     These don't belong in data-link in my opinion
 427:/Users/pthalamy/Studies/CMU/benchmark/build/src-bobby/hw-block/hwDataLink.c ****                 //restartScan(p);
 428:/Users/pthalamy/Studies/CMU/benchmark/build/src-bobby/hw-block/hwDataLink.c **** 
 429:/Users/pthalamy/Studies/CMU/benchmark/build/src-bobby/hw-block/hwDataLink.c ****                 return;
 430:/Users/pthalamy/Studies/CMU/benchmark/build/src-bobby/hw-block/hwDataLink.c ****             }
 431:/Users/pthalamy/Studies/CMU/benchmark/build/src-bobby/hw-block/hwDataLink.c ****             port[p].sq.retry--;
 2256               		.loc 1 431 0
 2257 09cc 8D87      		std Y+13,r24
 432:/Users/pthalamy/Studies/CMU/benchmark/build/src-bobby/hw-block/hwDataLink.c **** 
 433:/Users/pthalamy/Studies/CMU/benchmark/build/src-bobby/hw-block/hwDataLink.c ****             sendToBuffer(p, port[p].sq.head, sendParity(port[p].sq) );
 2258               		.loc 1 433 0
 2259 09ce 42FB      		bst r20,2
 2260 09d0 4427      		clr r20
 2261 09d2 40F9      		bld r20,0
 2262 09d4 6F85      		ldd r22,Y+15
 2263 09d6 7889      		ldd r23,Y+16
 2264 09d8 8D2D      		mov r24,r13
 2265 09da 0E94 0000 		call sendToBuffer
 2266               	.LVL255:
 434:/Users/pthalamy/Studies/CMU/benchmark/build/src-bobby/hw-block/hwDataLink.c ****             port[p].sq.flags &= ~CLEAR_TO_SEND;
 2267               		.loc 1 434 0
 2268 09de 8E85      		ldd r24,Y+14
 2269 09e0 8F7B      		andi r24,lo8(-65)
 2270 09e2 8E87      		std Y+14,r24
 435:/Users/pthalamy/Studies/CMU/benchmark/build/src-bobby/hw-block/hwDataLink.c ****             
 436:/Users/pthalamy/Studies/CMU/benchmark/build/src-bobby/hw-block/hwDataLink.c ****             // start the timeout
 437:/Users/pthalamy/Studies/CMU/benchmark/build/src-bobby/hw-block/hwDataLink.c ****             port[p].sq.qtout.tout.calltime = getTime() + DEFAULT_TIMEOUT;
 2271               		.loc 1 437 0
 2272 09e4 0E94 0000 		call getTime
 2273               	.LVL256:
 2274 09e8 6E5C      		subi r22,-50
 2275 09ea 7F4F      		sbci r23,-1
 2276 09ec 8F4F      		sbci r24,-1
 2277 09ee 9F4F      		sbci r25,-1
 2278 09f0 6B83      		std Y+3,r22
 2279 09f2 7C83      		std Y+4,r23
 2280 09f4 8D83      		std Y+5,r24
 2281 09f6 9E83      		std Y+6,r25
 438:/Users/pthalamy/Studies/CMU/benchmark/build/src-bobby/hw-block/hwDataLink.c ****             registerTimeout(&(port[p].sq.qtout.tout));
 2282               		.loc 1 438 0
 2283 09f8 C801      		movw r24,r16
 2284 09fa 8050      		subi r24,lo8(-(port+1))
 2285 09fc 9040      		sbci r25,hi8(-(port+1))
 2286               	/* epilogue start */
 439:/Users/pthalamy/Studies/CMU/benchmark/build/src-bobby/hw-block/hwDataLink.c ****         }
 440:/Users/pthalamy/Studies/CMU/benchmark/build/src-bobby/hw-block/hwDataLink.c ****     }
 441:/Users/pthalamy/Studies/CMU/benchmark/build/src-bobby/hw-block/hwDataLink.c **** }
 2287               		.loc 1 441 0
 2288 09fe DF91      		pop r29
 2289 0a00 CF91      		pop r28
 2290 0a02 1F91      		pop r17
 2291 0a04 0F91      		pop r16
 2292 0a06 FF90      		pop r15
 2293 0a08 EF90      		pop r14
 2294 0a0a DF90      		pop r13
 2295               	.LVL257:
 438:/Users/pthalamy/Studies/CMU/benchmark/build/src-bobby/hw-block/hwDataLink.c ****             registerTimeout(&(port[p].sq.qtout.tout));
 2296               		.loc 1 438 0
 2297 0a0c 0C94 0000 		jmp registerTimeout
 2298               	.LVL258:
 2299               	.L268:
 415:/Users/pthalamy/Studies/CMU/benchmark/build/src-bobby/hw-block/hwDataLink.c ****                 deregisterTimeout(&(port[p].sq.qtout.tout));
 2300               		.loc 1 415 0
 2301 0a10 C801      		movw r24,r16
 2302 0a12 8050      		subi r24,lo8(-(port+1))
 2303 0a14 9040      		sbci r25,hi8(-(port+1))
 2304 0a16 0E94 0000 		call deregisterTimeout
 2305               	.LVL259:
 418:/Users/pthalamy/Studies/CMU/benchmark/build/src-bobby/hw-block/hwDataLink.c ****                 flushSendQueue(p);
 2306               		.loc 1 418 0
 2307 0a1a 8D2D      		mov r24,r13
 2308 0a1c 0E94 0000 		call flushSendQueue
 2309               	.LVL260:
 421:/Users/pthalamy/Studies/CMU/benchmark/build/src-bobby/hw-block/hwDataLink.c ****                 port[p].sq.retry    = NUM_RETRIES;
 2310               		.loc 1 421 0
 2311 0a20 94E0      		ldi r25,lo8(4)
 2312 0a22 9D87      		std Y+13,r25
 422:/Users/pthalamy/Studies/CMU/benchmark/build/src-bobby/hw-block/hwDataLink.c ****                 port[p].sq.flags   |= CLEAR_TO_SEND;
 2313               		.loc 1 422 0
 2314 0a24 8E85      		ldd r24,Y+14
 2315 0a26 8064      		ori r24,lo8(64)
 423:/Users/pthalamy/Studies/CMU/benchmark/build/src-bobby/hw-block/hwDataLink.c ****                 flipParity(port[p].sq);
 2316               		.loc 1 423 0
 2317 0a28 8927      		eor r24,r25
 2318 0a2a 8E87      		std Y+14,r24
 2319               	.L247:
 2320               	/* epilogue start */
 2321               		.loc 1 441 0
 2322 0a2c DF91      		pop r29
 2323 0a2e CF91      		pop r28
 2324 0a30 1F91      		pop r17
 2325 0a32 0F91      		pop r16
 2326 0a34 FF90      		pop r15
 2327 0a36 EF90      		pop r14
 2328 0a38 DF90      		pop r13
 2329               	.LVL261:
 2330 0a3a 0895      		ret
 2331               	.LVL262:
 2332               	.L267:
 397:/Users/pthalamy/Studies/CMU/benchmark/build/src-bobby/hw-block/hwDataLink.c ****         if( isEmpty(&(port[p].tx)) ) {
 2333               		.loc 1 397 0
 2334 0a3c 88E5      		ldi r24,lo8(88)
 2335 0a3e 8E9D      		mul r24,r14
 2336 0a40 E001      		movw r28,r0
 2337 0a42 8F9D      		mul r24,r15
 2338 0a44 D00D      		add r29,r0
 2339 0a46 1124      		clr __zero_reg__
 2340 0a48 8E01      		movw r16,r28
 2341 0a4a 0050      		subi r16,lo8(-(port+56))
 2342 0a4c 1040      		sbci r17,hi8(-(port+56))
 2343 0a4e C801      		movw r24,r16
 2344 0a50 0E94 0000 		call isEmpty
 2345               	.LVL263:
 2346 0a54 8823      		tst r24
 2347 0a56 01F0      		breq .L251
 398:/Users/pthalamy/Studies/CMU/benchmark/build/src-bobby/hw-block/hwDataLink.c ****             pPutChar(ACK | EVEN, port[p].pnum);
 2348               		.loc 1 398 0
 2349 0a58 C050      		subi r28,lo8(-(port))
 2350 0a5a D040      		sbci r29,hi8(-(port))
 2351 0a5c 6881      		ld r22,Y
 2352 0a5e 88E0      		ldi r24,lo8(8)
 2353 0a60 0E94 0000 		call pPutChar
 2354               	.LVL264:
 2355 0a64 4E85      		ldd r20,Y+14
 2356 0a66 00C0      		rjmp .L250
 2357               	.L266:
 388:/Users/pthalamy/Studies/CMU/benchmark/build/src-bobby/hw-block/hwDataLink.c ****         if( isEmpty(&(port[p].tx)) ) {
 2358               		.loc 1 388 0
 2359 0a68 8B01      		movw r16,r22
 2360 0a6a 0050      		subi r16,lo8(-(port+56))
 2361 0a6c 1040      		sbci r17,hi8(-(port+56))
 2362 0a6e C801      		movw r24,r16
 2363 0a70 0E94 0000 		call isEmpty
 2364               	.LVL265:
 2365 0a74 8823      		tst r24
 2366 0a76 01F0      		breq .L249
 389:/Users/pthalamy/Studies/CMU/benchmark/build/src-bobby/hw-block/hwDataLink.c ****             pPutChar(ACK | ODD, port[p].pnum);
 2367               		.loc 1 389 0
 2368 0a78 6881      		ld r22,Y
 2369 0a7a 89E0      		ldi r24,lo8(9)
 2370 0a7c 0E94 0000 		call pPutChar
 2371               	.LVL266:
 2372 0a80 4E85      		ldd r20,Y+14
 2373 0a82 00C0      		rjmp .L248
 2374               	.L249:
 392:/Users/pthalamy/Studies/CMU/benchmark/build/src-bobby/hw-block/hwDataLink.c ****             push(ACK | ODD, &(port[p].tx));
 2375               		.loc 1 392 0
 2376 0a84 B801      		movw r22,r16
 2377 0a86 89E0      		ldi r24,lo8(9)
 2378 0a88 0E94 0000 		call push
 2379               	.LVL267:
 2380 0a8c 4E85      		ldd r20,Y+14
 2381 0a8e 00C0      		rjmp .L248
 2382               	.L251:
 401:/Users/pthalamy/Studies/CMU/benchmark/build/src-bobby/hw-block/hwDataLink.c ****             push(ACK | EVEN, &(port[p].tx));
 2383               		.loc 1 401 0
 2384 0a90 B801      		movw r22,r16
 2385 0a92 88E0      		ldi r24,lo8(8)
 2386 0a94 0E94 0000 		call push
 2387               	.LVL268:
 2388 0a98 C050      		subi r28,lo8(-(port))
 2389 0a9a D040      		sbci r29,hi8(-(port))
 2390 0a9c 4E85      		ldd r20,Y+14
 2391 0a9e 00C0      		rjmp .L250
 2392               		.cfi_endproc
 2393               	.LFE13:
 2395               	.global	initHWDataLink
 2397               	initHWDataLink:
 2398               	.LFB14:
 442:/Users/pthalamy/Studies/CMU/benchmark/build/src-bobby/hw-block/hwDataLink.c **** 
 443:/Users/pthalamy/Studies/CMU/benchmark/build/src-bobby/hw-block/hwDataLink.c **** // initialize
 444:/Users/pthalamy/Studies/CMU/benchmark/build/src-bobby/hw-block/hwDataLink.c **** void initHWDataLink(){
 2399               		.loc 1 444 0
 2400               		.cfi_startproc
 2401               	/* prologue: function */
 2402               	/* frame size = 0 */
 2403               	/* stack size = 0 */
 2404               	.L__stack_usage = 0
 2405 0aa0 0895      		ret
 2406               		.cfi_endproc
 2407               	.LFE14:
 2409               		.comm	wasEscapeStore,6,1
 2410               	.Letext0:
 2411               		.file 2 "/usr/local/Cellar/avr-gcc/4.7.2/lib/gcc/avr/4.7.2/../../../../avr/include/stdint.h"
 2412               		.file 3 "/Users/pthalamy/Studies/CMU/benchmark/build/src-bobby/system/defs.bbh"
 2413               		.file 4 "/Users/pthalamy/Studies/CMU/benchmark/build/src-bobby/system/circ_buffer.bbh"
 2414               		.file 5 "/Users/pthalamy/Studies/CMU/benchmark/build/src-bobby/system/handler.bbh"
 2415               		.file 6 "/Users/pthalamy/Studies/CMU/benchmark/build/src-bobby/system/memory.bbh"
 2416               		.file 7 "/Users/pthalamy/Studies/CMU/benchmark/build/src-bobby/system/hardwaretime.bbh"
 2417               		.file 8 "/Users/pthalamy/Studies/CMU/benchmark/build/src-bobby/system/queues.bbh"
 2418               		.file 9 "/Users/pthalamy/Studies/CMU/benchmark/build/src-bobby/system/serial.bbh"
 2419               		.file 10 "/Users/pthalamy/Studies/CMU/benchmark/build/src-bobby/hw-block/../hw-api/hwDataLink.h"
 2420               		.file 11 "/Users/pthalamy/Studies/CMU/benchmark/build/src-bobby/hw-block/../hw-api/hwSerial.h"
DEFINED SYMBOLS
                            *ABS*:0000000000000000 hwDataLink.c
/var/folders/15/4vptxgpd5dld1xryx388y8700000gn/T//ccqiSQOz.s:2      *ABS*:000000000000003e __SP_H__
/var/folders/15/4vptxgpd5dld1xryx388y8700000gn/T//ccqiSQOz.s:3      *ABS*:000000000000003d __SP_L__
/var/folders/15/4vptxgpd5dld1xryx388y8700000gn/T//ccqiSQOz.s:4      *ABS*:000000000000003f __SREG__
/var/folders/15/4vptxgpd5dld1xryx388y8700000gn/T//ccqiSQOz.s:5      *ABS*:000000000000003b __RAMPZ__
/var/folders/15/4vptxgpd5dld1xryx388y8700000gn/T//ccqiSQOz.s:6      *ABS*:0000000000000034 __CCP__
/var/folders/15/4vptxgpd5dld1xryx388y8700000gn/T//ccqiSQOz.s:7      *ABS*:0000000000000000 __tmp_reg__
/var/folders/15/4vptxgpd5dld1xryx388y8700000gn/T//ccqiSQOz.s:8      *ABS*:0000000000000001 __zero_reg__
/var/folders/15/4vptxgpd5dld1xryx388y8700000gn/T//ccqiSQOz.s:14     .text:0000000000000000 crcCalc
/var/folders/15/4vptxgpd5dld1xryx388y8700000gn/T//ccqiSQOz.s:187    .text:00000000000000d4 ackHandler
/var/folders/15/4vptxgpd5dld1xryx388y8700000gn/T//ccqiSQOz.s:290    .text:0000000000000138 addToGlobalRq
/var/folders/15/4vptxgpd5dld1xryx388y8700000gn/T//ccqiSQOz.s:338    .text:0000000000000174 isSpecial
/var/folders/15/4vptxgpd5dld1xryx388y8700000gn/T//ccqiSQOz.s:380    .text:0000000000000196 sendToBuffer
/var/folders/15/4vptxgpd5dld1xryx388y8700000gn/T//ccqiSQOz.s:1326   .text:00000000000005a2 processBuffer
                            *COM*:0000000000000006 wasEscapeStore
/var/folders/15/4vptxgpd5dld1xryx388y8700000gn/T//ccqiSQOz.s:2118   .text:000000000000092e nextPacket
/var/folders/15/4vptxgpd5dld1xryx388y8700000gn/T//ccqiSQOz.s:2176   .text:000000000000097a sendOnSerial
/var/folders/15/4vptxgpd5dld1xryx388y8700000gn/T//ccqiSQOz.s:2397   .text:0000000000000aa0 initHWDataLink

UNDEFINED SYMBOLS
port
removeFromSq
deregisterTimeout
globalRq
push
pPutChar
isEmpty
pop
getSystemRXChunk
freeChunk
getTime
registerTimeout
flushSendQueue
__do_clear_bss
