   1               		.file	"hwSerial.c"
   2               	__SP_H__ = 0x3e
   3               	__SP_L__ = 0x3d
   4               	__SREG__ = 0x3f
   5               	__RAMPZ__ = 0x3b
   6               	__CCP__ = 0x34
   7               	__tmp_reg__ = 0
   8               	__zero_reg__ = 1
   9               		.text
  10               	.Ltext0:
  11               		.cfi_sections	.debug_frame
  12               	.global	u_putchar
  14               	u_putchar:
  15               	.LFB6:
  16               		.file 1 "/Users/pthalamy/Studies/CMU/benchmark/build/src-bobby/hw-block/hwSerial.c"
   1:/Users/pthalamy/Studies/CMU/benchmark/build/src-bobby/hw-block/hwSerial.c **** #include <avr/io.h>
   2:/Users/pthalamy/Studies/CMU/benchmark/build/src-bobby/hw-block/hwSerial.c **** #include <avr/interrupt.h>
   3:/Users/pthalamy/Studies/CMU/benchmark/build/src-bobby/hw-block/hwSerial.c **** #include "../system/circ_buffer.h"
   4:/Users/pthalamy/Studies/CMU/benchmark/build/src-bobby/hw-block/hwSerial.c **** #include "../hw-api/hwSerial.h"
   5:/Users/pthalamy/Studies/CMU/benchmark/build/src-bobby/hw-block/hwSerial.c **** #include "../system/serial.h"
   6:/Users/pthalamy/Studies/CMU/benchmark/build/src-bobby/hw-block/hwSerial.c **** 
   7:/Users/pthalamy/Studies/CMU/benchmark/build/src-bobby/hw-block/hwSerial.c **** //#include "soft_uart2.h"
   8:/Users/pthalamy/Studies/CMU/benchmark/build/src-bobby/hw-block/hwSerial.c **** 
   9:/Users/pthalamy/Studies/CMU/benchmark/build/src-bobby/hw-block/hwSerial.c **** #define HARDWARE_UART 0
  10:/Users/pthalamy/Studies/CMU/benchmark/build/src-bobby/hw-block/hwSerial.c **** #define SOFTWARE_UART 1
  11:/Users/pthalamy/Studies/CMU/benchmark/build/src-bobby/hw-block/hwSerial.c **** 
  12:/Users/pthalamy/Studies/CMU/benchmark/build/src-bobby/hw-block/hwSerial.c **** typedef union
  13:/Users/pthalamy/Studies/CMU/benchmark/build/src-bobby/hw-block/hwSerial.c **** {
  14:/Users/pthalamy/Studies/CMU/benchmark/build/src-bobby/hw-block/hwSerial.c **** 	USART_t* huart;
  15:/Users/pthalamy/Studies/CMU/benchmark/build/src-bobby/hw-block/hwSerial.c **** 	//soft_uart_t* suart;
  16:/Users/pthalamy/Studies/CMU/benchmark/build/src-bobby/hw-block/hwSerial.c **** } Uart;
  17:/Users/pthalamy/Studies/CMU/benchmark/build/src-bobby/hw-block/hwSerial.c **** 
  18:/Users/pthalamy/Studies/CMU/benchmark/build/src-bobby/hw-block/hwSerial.c **** typedef struct _uart
  19:/Users/pthalamy/Studies/CMU/benchmark/build/src-bobby/hw-block/hwSerial.c **** {
  20:/Users/pthalamy/Studies/CMU/benchmark/build/src-bobby/hw-block/hwSerial.c **** 	Uart uart;
  21:/Users/pthalamy/Studies/CMU/benchmark/build/src-bobby/hw-block/hwSerial.c **** 	byte ptype;
  22:/Users/pthalamy/Studies/CMU/benchmark/build/src-bobby/hw-block/hwSerial.c **** } HWPort;
  23:/Users/pthalamy/Studies/CMU/benchmark/build/src-bobby/hw-block/hwSerial.c **** 
  24:/Users/pthalamy/Studies/CMU/benchmark/build/src-bobby/hw-block/hwSerial.c **** HWPort hwPort[NUM_PORTS];
  25:/Users/pthalamy/Studies/CMU/benchmark/build/src-bobby/hw-block/hwSerial.c **** extern Port port[NUM_PORTS];
  26:/Users/pthalamy/Studies/CMU/benchmark/build/src-bobby/hw-block/hwSerial.c **** 
  27:/Users/pthalamy/Studies/CMU/benchmark/build/src-bobby/hw-block/hwSerial.c **** void initHWUart(USART_t * uart);
  28:/Users/pthalamy/Studies/CMU/benchmark/build/src-bobby/hw-block/hwSerial.c **** 
  29:/Users/pthalamy/Studies/CMU/benchmark/build/src-bobby/hw-block/hwSerial.c **** 
  30:/Users/pthalamy/Studies/CMU/benchmark/build/src-bobby/hw-block/hwSerial.c **** void u_putchar(char c, USART_t * uart)
  31:/Users/pthalamy/Studies/CMU/benchmark/build/src-bobby/hw-block/hwSerial.c **** {
  17               		.loc 1 31 0
  18               		.cfi_startproc
  19               	.LVL0:
  20               	/* prologue: function */
  21               	/* frame size = 0 */
  22               	/* stack size = 0 */
  23               	.L__stack_usage = 0
  24 0000 FB01      		movw r30,r22
  25               	.L2:
  32:/Users/pthalamy/Studies/CMU/benchmark/build/src-bobby/hw-block/hwSerial.c **** 	while(!(uart->STATUS & USART_DREIF_bm));
  26               		.loc 1 32 0 discriminator 1
  27 0002 9181      		ldd r25,Z+1
  28 0004 95FF      		sbrs r25,5
  29 0006 00C0      		rjmp .L2
  33:/Users/pthalamy/Studies/CMU/benchmark/build/src-bobby/hw-block/hwSerial.c ****     //loop_until_bit_is_set(UCSR0A, UDRE0);
  34:/Users/pthalamy/Studies/CMU/benchmark/build/src-bobby/hw-block/hwSerial.c **** 	// Load buffer with your character
  35:/Users/pthalamy/Studies/CMU/benchmark/build/src-bobby/hw-block/hwSerial.c ****     uart->DATA = c;
  30               		.loc 1 35 0
  31 0008 8083      		st Z,r24
  32 000a 0895      		ret
  33               		.cfi_endproc
  34               	.LFE6:
  36               	.global	u_getchar
  38               	u_getchar:
  39               	.LFB7:
  36:/Users/pthalamy/Studies/CMU/benchmark/build/src-bobby/hw-block/hwSerial.c **** }
  37:/Users/pthalamy/Studies/CMU/benchmark/build/src-bobby/hw-block/hwSerial.c **** 
  38:/Users/pthalamy/Studies/CMU/benchmark/build/src-bobby/hw-block/hwSerial.c **** int	u_getchar(USART_t * uart)
  39:/Users/pthalamy/Studies/CMU/benchmark/build/src-bobby/hw-block/hwSerial.c **** {
  40               		.loc 1 39 0
  41               		.cfi_startproc
  42               	.LVL1:
  43               	/* prologue: function */
  44               	/* frame size = 0 */
  45               	/* stack size = 0 */
  46               	.L__stack_usage = 0
  40:/Users/pthalamy/Studies/CMU/benchmark/build/src-bobby/hw-block/hwSerial.c **** 	//char c;
  41:/Users/pthalamy/Studies/CMU/benchmark/build/src-bobby/hw-block/hwSerial.c **** 	// Wait for the receive buffer to be filled
  42:/Users/pthalamy/Studies/CMU/benchmark/build/src-bobby/hw-block/hwSerial.c ****     //loop_until_bit_is_set(UCSR0A, RXC0);
  43:/Users/pthalamy/Studies/CMU/benchmark/build/src-bobby/hw-block/hwSerial.c **** 	if((uart->STATUS & USART_RXCIF_bm))
  47               		.loc 1 43 0
  48 000c FC01      		movw r30,r24
  49 000e 2181      		ldd r18,Z+1
  50 0010 27FF      		sbrs r18,7
  51 0012 00C0      		rjmp .L10
  44:/Users/pthalamy/Studies/CMU/benchmark/build/src-bobby/hw-block/hwSerial.c **** 	{
  45:/Users/pthalamy/Studies/CMU/benchmark/build/src-bobby/hw-block/hwSerial.c **** 		// Read the receive buffer
  46:/Users/pthalamy/Studies/CMU/benchmark/build/src-bobby/hw-block/hwSerial.c **** 		//c = uart->DATA;
  47:/Users/pthalamy/Studies/CMU/benchmark/build/src-bobby/hw-block/hwSerial.c **** 		return uart->DATA;
  52               		.loc 1 47 0
  53 0014 2081      		ld r18,Z
  54 0016 30E0      		ldi r19,0
  48:/Users/pthalamy/Studies/CMU/benchmark/build/src-bobby/hw-block/hwSerial.c **** 	}
  49:/Users/pthalamy/Studies/CMU/benchmark/build/src-bobby/hw-block/hwSerial.c **** 	else
  50:/Users/pthalamy/Studies/CMU/benchmark/build/src-bobby/hw-block/hwSerial.c **** 	{
  51:/Users/pthalamy/Studies/CMU/benchmark/build/src-bobby/hw-block/hwSerial.c **** 		return -1;
  52:/Users/pthalamy/Studies/CMU/benchmark/build/src-bobby/hw-block/hwSerial.c **** 	}
  53:/Users/pthalamy/Studies/CMU/benchmark/build/src-bobby/hw-block/hwSerial.c **** }
  55               		.loc 1 53 0
  56 0018 C901      		movw r24,r18
  57               	.LVL2:
  58 001a 0895      		ret
  59               	.LVL3:
  60               	.L10:
  51:/Users/pthalamy/Studies/CMU/benchmark/build/src-bobby/hw-block/hwSerial.c **** 		return -1;
  61               		.loc 1 51 0
  62 001c 2FEF      		ldi r18,lo8(-1)
  63 001e 3FEF      		ldi r19,lo8(-1)
  64               		.loc 1 53 0
  65 0020 C901      		movw r24,r18
  66               	.LVL4:
  67 0022 0895      		ret
  68               		.cfi_endproc
  69               	.LFE7:
  71               	.global	pPutChar
  73               	pPutChar:
  74               	.LFB8:
  54:/Users/pthalamy/Studies/CMU/benchmark/build/src-bobby/hw-block/hwSerial.c **** 
  55:/Users/pthalamy/Studies/CMU/benchmark/build/src-bobby/hw-block/hwSerial.c **** void pPutChar(char c, PRef p)
  56:/Users/pthalamy/Studies/CMU/benchmark/build/src-bobby/hw-block/hwSerial.c **** {
  75               		.loc 1 56 0
  76               		.cfi_startproc
  77               	.LVL5:
  78               	/* prologue: function */
  79               	/* frame size = 0 */
  80               	/* stack size = 0 */
  81               	.L__stack_usage = 0
  57:/Users/pthalamy/Studies/CMU/benchmark/build/src-bobby/hw-block/hwSerial.c **** 	if(p >= 0 && p < NUM_PORTS)
  82               		.loc 1 57 0
  83 0024 6630      		cpi r22,lo8(6)
  84 0026 00F4      		brsh .L11
  58:/Users/pthalamy/Studies/CMU/benchmark/build/src-bobby/hw-block/hwSerial.c **** 	{
  59:/Users/pthalamy/Studies/CMU/benchmark/build/src-bobby/hw-block/hwSerial.c **** 		if(hwPort[p].ptype == HARDWARE_UART)
  85               		.loc 1 59 0
  86 0028 70E0      		ldi r23,0
  87 002a FB01      		movw r30,r22
  88 002c EE0F      		lsl r30
  89 002e FF1F      		rol r31
  90 0030 E60F      		add r30,r22
  91 0032 F71F      		adc r31,r23
  92 0034 E050      		subi r30,lo8(-(hwPort))
  93 0036 F040      		sbci r31,hi8(-(hwPort))
  94 0038 9281      		ldd r25,Z+2
  95 003a 9111      		cpse r25,__zero_reg__
  96 003c 00C0      		rjmp .L11
  60:/Users/pthalamy/Studies/CMU/benchmark/build/src-bobby/hw-block/hwSerial.c **** 		{
  61:/Users/pthalamy/Studies/CMU/benchmark/build/src-bobby/hw-block/hwSerial.c **** 			u_putchar(c, hwPort[p].uart.huart);
  97               		.loc 1 61 0
  98 003e 0190      		ld __tmp_reg__,Z+
  99 0040 F081      		ld r31,Z
 100 0042 E02D      		mov r30,__tmp_reg__
 101               	.LVL6:
 102               	.L13:
 103               	.LBB32:
 104               	.LBB33:
  32:/Users/pthalamy/Studies/CMU/benchmark/build/src-bobby/hw-block/hwSerial.c **** 	while(!(uart->STATUS & USART_DREIF_bm));
 105               		.loc 1 32 0
 106 0044 9181      		ldd r25,Z+1
 107 0046 95FF      		sbrs r25,5
 108 0048 00C0      		rjmp .L13
  35:/Users/pthalamy/Studies/CMU/benchmark/build/src-bobby/hw-block/hwSerial.c ****     uart->DATA = c;
 109               		.loc 1 35 0
 110 004a 8083      		st Z,r24
 111               	.LVL7:
 112               	.L11:
 113 004c 0895      		ret
 114               	.LBE33:
 115               	.LBE32:
 116               		.cfi_endproc
 117               	.LFE8:
 119               	.global	pGetChar
 121               	pGetChar:
 122               	.LFB9:
  62:/Users/pthalamy/Studies/CMU/benchmark/build/src-bobby/hw-block/hwSerial.c **** 		}
  63:/Users/pthalamy/Studies/CMU/benchmark/build/src-bobby/hw-block/hwSerial.c **** 		else
  64:/Users/pthalamy/Studies/CMU/benchmark/build/src-bobby/hw-block/hwSerial.c **** 		{
  65:/Users/pthalamy/Studies/CMU/benchmark/build/src-bobby/hw-block/hwSerial.c **** 			//su_putchar(c, hwPort[p].uart.suart);
  66:/Users/pthalamy/Studies/CMU/benchmark/build/src-bobby/hw-block/hwSerial.c **** 		}
  67:/Users/pthalamy/Studies/CMU/benchmark/build/src-bobby/hw-block/hwSerial.c **** 	}
  68:/Users/pthalamy/Studies/CMU/benchmark/build/src-bobby/hw-block/hwSerial.c **** }
  69:/Users/pthalamy/Studies/CMU/benchmark/build/src-bobby/hw-block/hwSerial.c **** 
  70:/Users/pthalamy/Studies/CMU/benchmark/build/src-bobby/hw-block/hwSerial.c **** int pGetChar(PRef p)
  71:/Users/pthalamy/Studies/CMU/benchmark/build/src-bobby/hw-block/hwSerial.c **** {
 123               		.loc 1 71 0
 124               		.cfi_startproc
 125               	.LVL8:
 126               	/* prologue: function */
 127               	/* frame size = 0 */
 128               	/* stack size = 0 */
 129               	.L__stack_usage = 0
  72:/Users/pthalamy/Studies/CMU/benchmark/build/src-bobby/hw-block/hwSerial.c **** 	if(p >= 0 && p < NUM_PORTS)
 130               		.loc 1 72 0
 131 004e 8630      		cpi r24,lo8(6)
 132 0050 00F4      		brsh .L22
  73:/Users/pthalamy/Studies/CMU/benchmark/build/src-bobby/hw-block/hwSerial.c **** 	{
  74:/Users/pthalamy/Studies/CMU/benchmark/build/src-bobby/hw-block/hwSerial.c **** 		if(hwPort[p].ptype == HARDWARE_UART)
 133               		.loc 1 74 0
 134 0052 90E0      		ldi r25,0
 135 0054 FC01      		movw r30,r24
 136 0056 EE0F      		lsl r30
 137 0058 FF1F      		rol r31
 138 005a E80F      		add r30,r24
 139 005c F91F      		adc r31,r25
 140 005e E050      		subi r30,lo8(-(hwPort))
 141 0060 F040      		sbci r31,hi8(-(hwPort))
 142 0062 8281      		ldd r24,Z+2
 143               	.LVL9:
 144 0064 8111      		cpse r24,__zero_reg__
 145 0066 00C0      		rjmp .L22
  75:/Users/pthalamy/Studies/CMU/benchmark/build/src-bobby/hw-block/hwSerial.c **** 		{
  76:/Users/pthalamy/Studies/CMU/benchmark/build/src-bobby/hw-block/hwSerial.c **** 			return u_getchar(hwPort[p].uart.huart);
 146               		.loc 1 76 0
 147 0068 0190      		ld __tmp_reg__,Z+
 148 006a F081      		ld r31,Z
 149 006c E02D      		mov r30,__tmp_reg__
 150               	.LVL10:
 151               	.LBB34:
 152               	.LBB35:
  43:/Users/pthalamy/Studies/CMU/benchmark/build/src-bobby/hw-block/hwSerial.c **** 	if((uart->STATUS & USART_RXCIF_bm))
 153               		.loc 1 43 0
 154 006e 8181      		ldd r24,Z+1
 155 0070 87FD      		sbrc r24,7
 156 0072 00C0      		rjmp .L23
 157               	.LVL11:
 158               	.L22:
  77:/Users/pthalamy/Studies/CMU/benchmark/build/src-bobby/hw-block/hwSerial.c **** 		}
  78:/Users/pthalamy/Studies/CMU/benchmark/build/src-bobby/hw-block/hwSerial.c **** 		else
  79:/Users/pthalamy/Studies/CMU/benchmark/build/src-bobby/hw-block/hwSerial.c **** 		{
  80:/Users/pthalamy/Studies/CMU/benchmark/build/src-bobby/hw-block/hwSerial.c **** 			//return su_getchar(hwPort[p].uart.suart);
  81:/Users/pthalamy/Studies/CMU/benchmark/build/src-bobby/hw-block/hwSerial.c **** 		}
  82:/Users/pthalamy/Studies/CMU/benchmark/build/src-bobby/hw-block/hwSerial.c **** 	}
  83:/Users/pthalamy/Studies/CMU/benchmark/build/src-bobby/hw-block/hwSerial.c **** 
  84:/Users/pthalamy/Studies/CMU/benchmark/build/src-bobby/hw-block/hwSerial.c **** 	return -1;
 159               		.loc 1 84 0
 160 0074 2FEF      		ldi r18,lo8(-1)
 161 0076 3FEF      		ldi r19,lo8(-1)
 162               	.LBE35:
 163               	.LBE34:
  85:/Users/pthalamy/Studies/CMU/benchmark/build/src-bobby/hw-block/hwSerial.c **** }
 164               		.loc 1 85 0
 165 0078 C901      		movw r24,r18
 166 007a 0895      		ret
 167               	.LVL12:
 168               	.L23:
 169               	.LBB37:
 170               	.LBB36:
  47:/Users/pthalamy/Studies/CMU/benchmark/build/src-bobby/hw-block/hwSerial.c **** 		return uart->DATA;
 171               		.loc 1 47 0
 172 007c 2081      		ld r18,Z
 173 007e 30E0      		ldi r19,0
 174               	.LBE36:
 175               	.LBE37:
 176               		.loc 1 85 0
 177 0080 C901      		movw r24,r18
 178 0082 0895      		ret
 179               		.cfi_endproc
 180               	.LFE9:
 182               	.global	initializeHWPort
 184               	initializeHWPort:
 185               	.LFB10:
  86:/Users/pthalamy/Studies/CMU/benchmark/build/src-bobby/hw-block/hwSerial.c **** 
  87:/Users/pthalamy/Studies/CMU/benchmark/build/src-bobby/hw-block/hwSerial.c **** void initializeHWPort(HWPort *p, USART_t *huart)
  88:/Users/pthalamy/Studies/CMU/benchmark/build/src-bobby/hw-block/hwSerial.c **** {
 186               		.loc 1 88 0
 187               		.cfi_startproc
 188               	.LVL13:
 189               	/* prologue: function */
 190               	/* frame size = 0 */
 191               	/* stack size = 0 */
 192               	.L__stack_usage = 0
 193 0084 FB01      		movw r30,r22
  89:/Users/pthalamy/Studies/CMU/benchmark/build/src-bobby/hw-block/hwSerial.c **** 	if(huart != NULL)
 194               		.loc 1 89 0
 195 0086 3097      		sbiw r30,0
 196 0088 01F0      		breq .L24
  90:/Users/pthalamy/Studies/CMU/benchmark/build/src-bobby/hw-block/hwSerial.c **** 	{
  91:/Users/pthalamy/Studies/CMU/benchmark/build/src-bobby/hw-block/hwSerial.c **** 		(p->uart).huart = huart;
 197               		.loc 1 91 0
 198 008a DC01      		movw r26,r24
 199 008c 6D93      		st X+,r22
 200 008e 7C93      		st X,r23
 201 0090 1197      		sbiw r26,1
  92:/Users/pthalamy/Studies/CMU/benchmark/build/src-bobby/hw-block/hwSerial.c **** 		p->ptype = HARDWARE_UART;
 202               		.loc 1 92 0
 203 0092 1296      		adiw r26,2
 204 0094 1C92      		st X,__zero_reg__
 205               	.LVL14:
 206               	.LBB38:
 207               	.LBB39:
  93:/Users/pthalamy/Studies/CMU/benchmark/build/src-bobby/hw-block/hwSerial.c **** 
  94:/Users/pthalamy/Studies/CMU/benchmark/build/src-bobby/hw-block/hwSerial.c **** 		initHWUart(huart);
  95:/Users/pthalamy/Studies/CMU/benchmark/build/src-bobby/hw-block/hwSerial.c **** 	}
  96:/Users/pthalamy/Studies/CMU/benchmark/build/src-bobby/hw-block/hwSerial.c **** }
  97:/Users/pthalamy/Studies/CMU/benchmark/build/src-bobby/hw-block/hwSerial.c **** 
  98:/Users/pthalamy/Studies/CMU/benchmark/build/src-bobby/hw-block/hwSerial.c **** void initHWPorts()
  99:/Users/pthalamy/Studies/CMU/benchmark/build/src-bobby/hw-block/hwSerial.c **** {
 100:/Users/pthalamy/Studies/CMU/benchmark/build/src-bobby/hw-block/hwSerial.c **** 	// male headers
 101:/Users/pthalamy/Studies/CMU/benchmark/build/src-bobby/hw-block/hwSerial.c **** 	PORTD.DIRSET = PIN7_bm;
 102:/Users/pthalamy/Studies/CMU/benchmark/build/src-bobby/hw-block/hwSerial.c **** 	initializeHWPort(&(hwPort[UP]), &USARTD1);
 103:/Users/pthalamy/Studies/CMU/benchmark/build/src-bobby/hw-block/hwSerial.c **** 
 104:/Users/pthalamy/Studies/CMU/benchmark/build/src-bobby/hw-block/hwSerial.c **** 	// near the double TVS diodes
 105:/Users/pthalamy/Studies/CMU/benchmark/build/src-bobby/hw-block/hwSerial.c **** 	PORTC.DIRSET = PIN7_bm;
 106:/Users/pthalamy/Studies/CMU/benchmark/build/src-bobby/hw-block/hwSerial.c **** 	initializeHWPort(&(hwPort[NORTH]), &USARTC1);
 107:/Users/pthalamy/Studies/CMU/benchmark/build/src-bobby/hw-block/hwSerial.c **** 	
 108:/Users/pthalamy/Studies/CMU/benchmark/build/src-bobby/hw-block/hwSerial.c **** 	// closest to audio amp
 109:/Users/pthalamy/Studies/CMU/benchmark/build/src-bobby/hw-block/hwSerial.c **** 	PORTE.DIRSET = PIN3_bm;
 110:/Users/pthalamy/Studies/CMU/benchmark/build/src-bobby/hw-block/hwSerial.c **** 	initializeHWPort(&(hwPort[SOUTH]), &USARTE0);
 111:/Users/pthalamy/Studies/CMU/benchmark/build/src-bobby/hw-block/hwSerial.c **** 	
 112:/Users/pthalamy/Studies/CMU/benchmark/build/src-bobby/hw-block/hwSerial.c **** 	// closest to LEDs
 113:/Users/pthalamy/Studies/CMU/benchmark/build/src-bobby/hw-block/hwSerial.c **** 	PORTF.DIRSET = PIN3_bm;	
 114:/Users/pthalamy/Studies/CMU/benchmark/build/src-bobby/hw-block/hwSerial.c **** 	initializeHWPort(&(hwPort[EAST]), &USARTF0);
 115:/Users/pthalamy/Studies/CMU/benchmark/build/src-bobby/hw-block/hwSerial.c **** 	
 116:/Users/pthalamy/Studies/CMU/benchmark/build/src-bobby/hw-block/hwSerial.c **** 	// closest to analog input dividers
 117:/Users/pthalamy/Studies/CMU/benchmark/build/src-bobby/hw-block/hwSerial.c **** 	PORTC.DIRSET = PIN3_bm;	
 118:/Users/pthalamy/Studies/CMU/benchmark/build/src-bobby/hw-block/hwSerial.c **** 	initializeHWPort(&(hwPort[WEST]), &USARTC0);
 119:/Users/pthalamy/Studies/CMU/benchmark/build/src-bobby/hw-block/hwSerial.c **** 	
 120:/Users/pthalamy/Studies/CMU/benchmark/build/src-bobby/hw-block/hwSerial.c **** 	PORTD.DIRSET = PIN3_bm;	
 121:/Users/pthalamy/Studies/CMU/benchmark/build/src-bobby/hw-block/hwSerial.c **** 	initializeHWPort(&(hwPort[DOWN]), &USARTD0);
 122:/Users/pthalamy/Studies/CMU/benchmark/build/src-bobby/hw-block/hwSerial.c **** }
 123:/Users/pthalamy/Studies/CMU/benchmark/build/src-bobby/hw-block/hwSerial.c **** 
 124:/Users/pthalamy/Studies/CMU/benchmark/build/src-bobby/hw-block/hwSerial.c **** void initHWUart(USART_t * huart)
 125:/Users/pthalamy/Studies/CMU/benchmark/build/src-bobby/hw-block/hwSerial.c **** {
 126:/Users/pthalamy/Studies/CMU/benchmark/build/src-bobby/hw-block/hwSerial.c **** 	huart->CTRLB = USART_RXEN_bm | USART_TXEN_bm;		// turn on RX/TX, somewhat helpful!
 208               		.loc 1 126 0
 209 0096 88E1      		ldi r24,lo8(24)
 210               	.LVL15:
 211 0098 8483      		std Z+4,r24
 127:/Users/pthalamy/Studies/CMU/benchmark/build/src-bobby/hw-block/hwSerial.c **** 	huart->CTRLC = USART_CHSIZE_8BIT_gc;				// use 8-bit data
 212               		.loc 1 127 0
 213 009a 83E0      		ldi r24,lo8(3)
 214 009c 8583      		std Z+5,r24
 128:/Users/pthalamy/Studies/CMU/benchmark/build/src-bobby/hw-block/hwSerial.c **** 
 129:/Users/pthalamy/Studies/CMU/benchmark/build/src-bobby/hw-block/hwSerial.c **** 	huart->CTRLA = USART_RXCINTLVL_HI_gc | USART_TXCINTLVL_HI_gc;	// enable RX/TX interrupt support
 215               		.loc 1 129 0
 216 009e 8CE3      		ldi r24,lo8(60)
 217 00a0 8383      		std Z+3,r24
 130:/Users/pthalamy/Studies/CMU/benchmark/build/src-bobby/hw-block/hwSerial.c **** 	huart->BAUDCTRLA = 51;  // 38400 		// 57600   			//103;	//19200 	16; // 115200
 218               		.loc 1 130 0
 219 00a2 83E3      		ldi r24,lo8(51)
 220 00a4 8683      		std Z+6,r24
 131:/Users/pthalamy/Studies/CMU/benchmark/build/src-bobby/hw-block/hwSerial.c **** 	huart->BAUDCTRLB = 0;				//0xB4;  // 57600, set to 0 for others
 221               		.loc 1 131 0
 222 00a6 1782      		std Z+7,__zero_reg__
 223               	.LVL16:
 224               	.L24:
 225 00a8 0895      		ret
 226               	.LBE39:
 227               	.LBE38:
 228               		.cfi_endproc
 229               	.LFE10:
 231               	.global	initHWPorts
 233               	initHWPorts:
 234               	.LFB11:
  99:/Users/pthalamy/Studies/CMU/benchmark/build/src-bobby/hw-block/hwSerial.c **** {
 235               		.loc 1 99 0
 236               		.cfi_startproc
 237 00aa CF93      		push r28
 238               	.LCFI0:
 239               		.cfi_def_cfa_offset 4
 240               		.cfi_offset 28, -3
 241 00ac DF93      		push r29
 242               	.LCFI1:
 243               		.cfi_def_cfa_offset 5
 244               		.cfi_offset 29, -4
 245               	/* prologue: function */
 246               	/* frame size = 0 */
 247               	/* stack size = 2 */
 248               	.L__stack_usage = 2
 101:/Users/pthalamy/Studies/CMU/benchmark/build/src-bobby/hw-block/hwSerial.c **** 	PORTD.DIRSET = PIN7_bm;
 249               		.loc 1 101 0
 250 00ae A0E6      		ldi r26,lo8(96)
 251 00b0 B6E0      		ldi r27,lo8(6)
 252 00b2 40E8      		ldi r20,lo8(-128)
 253 00b4 1196      		adiw r26,1
 254 00b6 4C93      		st X,r20
 255 00b8 1197      		sbiw r26,1
 256               	.LVL17:
 257               	.LBB40:
 258               	.LBB41:
  91:/Users/pthalamy/Studies/CMU/benchmark/build/src-bobby/hw-block/hwSerial.c **** 		(p->uart).huart = huart;
 259               		.loc 1 91 0
 260 00ba E0EB      		ldi r30,lo8(-80)
 261 00bc F9E0      		ldi r31,lo8(9)
 262 00be E093 0000 		sts hwPort+15,r30
 263 00c2 F093 0000 		sts hwPort+15+1,r31
  92:/Users/pthalamy/Studies/CMU/benchmark/build/src-bobby/hw-block/hwSerial.c **** 		p->ptype = HARDWARE_UART;
 264               		.loc 1 92 0
 265 00c6 1092 0000 		sts hwPort+17,__zero_reg__
 266               	.LVL18:
 267               	.LBB42:
 268               	.LBB43:
 126:/Users/pthalamy/Studies/CMU/benchmark/build/src-bobby/hw-block/hwSerial.c **** 	huart->CTRLB = USART_RXEN_bm | USART_TXEN_bm;		// turn on RX/TX, somewhat helpful!
 269               		.loc 1 126 0
 270 00ca 38E1      		ldi r19,lo8(24)
 271 00cc 3483      		std Z+4,r19
 127:/Users/pthalamy/Studies/CMU/benchmark/build/src-bobby/hw-block/hwSerial.c **** 	huart->CTRLC = USART_CHSIZE_8BIT_gc;				// use 8-bit data
 272               		.loc 1 127 0
 273 00ce 23E0      		ldi r18,lo8(3)
 274 00d0 2583      		std Z+5,r18
 129:/Users/pthalamy/Studies/CMU/benchmark/build/src-bobby/hw-block/hwSerial.c **** 	huart->CTRLA = USART_RXCINTLVL_HI_gc | USART_TXCINTLVL_HI_gc;	// enable RX/TX interrupt support
 275               		.loc 1 129 0
 276 00d2 9CE3      		ldi r25,lo8(60)
 277 00d4 9383      		std Z+3,r25
 130:/Users/pthalamy/Studies/CMU/benchmark/build/src-bobby/hw-block/hwSerial.c **** 	huart->BAUDCTRLA = 51;  // 38400 		// 57600   			//103;	//19200 	16; // 115200
 278               		.loc 1 130 0
 279 00d6 83E3      		ldi r24,lo8(51)
 280 00d8 8683      		std Z+6,r24
 281               		.loc 1 131 0
 282 00da 1782      		std Z+7,__zero_reg__
 283               	.LBE43:
 284               	.LBE42:
 285               	.LBE41:
 286               	.LBE40:
 105:/Users/pthalamy/Studies/CMU/benchmark/build/src-bobby/hw-block/hwSerial.c **** 	PORTC.DIRSET = PIN7_bm;
 287               		.loc 1 105 0
 288 00dc C0E4      		ldi r28,lo8(64)
 289 00de D6E0      		ldi r29,lo8(6)
 290 00e0 4983      		std Y+1,r20
 291               	.LVL19:
 292               	.LBB44:
 293               	.LBB45:
  91:/Users/pthalamy/Studies/CMU/benchmark/build/src-bobby/hw-block/hwSerial.c **** 		(p->uart).huart = huart;
 294               		.loc 1 91 0
 295 00e2 E0EB      		ldi r30,lo8(-80)
 296 00e4 F8E0      		ldi r31,lo8(8)
 297 00e6 E093 0000 		sts hwPort+3,r30
 298 00ea F093 0000 		sts hwPort+3+1,r31
  92:/Users/pthalamy/Studies/CMU/benchmark/build/src-bobby/hw-block/hwSerial.c **** 		p->ptype = HARDWARE_UART;
 299               		.loc 1 92 0
 300 00ee 1092 0000 		sts hwPort+5,__zero_reg__
 301               	.LVL20:
 302               	.LBB46:
 303               	.LBB47:
 126:/Users/pthalamy/Studies/CMU/benchmark/build/src-bobby/hw-block/hwSerial.c **** 	huart->CTRLB = USART_RXEN_bm | USART_TXEN_bm;		// turn on RX/TX, somewhat helpful!
 304               		.loc 1 126 0
 305 00f2 3483      		std Z+4,r19
 127:/Users/pthalamy/Studies/CMU/benchmark/build/src-bobby/hw-block/hwSerial.c **** 	huart->CTRLC = USART_CHSIZE_8BIT_gc;				// use 8-bit data
 306               		.loc 1 127 0
 307 00f4 2583      		std Z+5,r18
 129:/Users/pthalamy/Studies/CMU/benchmark/build/src-bobby/hw-block/hwSerial.c **** 	huart->CTRLA = USART_RXCINTLVL_HI_gc | USART_TXCINTLVL_HI_gc;	// enable RX/TX interrupt support
 308               		.loc 1 129 0
 309 00f6 9383      		std Z+3,r25
 130:/Users/pthalamy/Studies/CMU/benchmark/build/src-bobby/hw-block/hwSerial.c **** 	huart->BAUDCTRLA = 51;  // 38400 		// 57600   			//103;	//19200 	16; // 115200
 310               		.loc 1 130 0
 311 00f8 8683      		std Z+6,r24
 312               		.loc 1 131 0
 313 00fa 1782      		std Z+7,__zero_reg__
 314               	.LBE47:
 315               	.LBE46:
 316               	.LBE45:
 317               	.LBE44:
 109:/Users/pthalamy/Studies/CMU/benchmark/build/src-bobby/hw-block/hwSerial.c **** 	PORTE.DIRSET = PIN3_bm;
 318               		.loc 1 109 0
 319 00fc 48E0      		ldi r20,lo8(8)
 320 00fe E0E8      		ldi r30,lo8(-128)
 321 0100 F6E0      		ldi r31,lo8(6)
 322 0102 4183      		std Z+1,r20
 323               	.LVL21:
 324               	.LBB48:
 325               	.LBB49:
  91:/Users/pthalamy/Studies/CMU/benchmark/build/src-bobby/hw-block/hwSerial.c **** 		(p->uart).huart = huart;
 326               		.loc 1 91 0
 327 0104 E0EA      		ldi r30,lo8(-96)
 328 0106 FAE0      		ldi r31,lo8(10)
 329 0108 E093 0000 		sts hwPort+12,r30
 330 010c F093 0000 		sts hwPort+12+1,r31
  92:/Users/pthalamy/Studies/CMU/benchmark/build/src-bobby/hw-block/hwSerial.c **** 		p->ptype = HARDWARE_UART;
 331               		.loc 1 92 0
 332 0110 1092 0000 		sts hwPort+14,__zero_reg__
 333               	.LVL22:
 334               	.LBB50:
 335               	.LBB51:
 126:/Users/pthalamy/Studies/CMU/benchmark/build/src-bobby/hw-block/hwSerial.c **** 	huart->CTRLB = USART_RXEN_bm | USART_TXEN_bm;		// turn on RX/TX, somewhat helpful!
 336               		.loc 1 126 0
 337 0114 3483      		std Z+4,r19
 127:/Users/pthalamy/Studies/CMU/benchmark/build/src-bobby/hw-block/hwSerial.c **** 	huart->CTRLC = USART_CHSIZE_8BIT_gc;				// use 8-bit data
 338               		.loc 1 127 0
 339 0116 2583      		std Z+5,r18
 129:/Users/pthalamy/Studies/CMU/benchmark/build/src-bobby/hw-block/hwSerial.c **** 	huart->CTRLA = USART_RXCINTLVL_HI_gc | USART_TXCINTLVL_HI_gc;	// enable RX/TX interrupt support
 340               		.loc 1 129 0
 341 0118 9383      		std Z+3,r25
 130:/Users/pthalamy/Studies/CMU/benchmark/build/src-bobby/hw-block/hwSerial.c **** 	huart->BAUDCTRLA = 51;  // 38400 		// 57600   			//103;	//19200 	16; // 115200
 342               		.loc 1 130 0
 343 011a 8683      		std Z+6,r24
 344               		.loc 1 131 0
 345 011c 1782      		std Z+7,__zero_reg__
 346               	.LBE51:
 347               	.LBE50:
 348               	.LBE49:
 349               	.LBE48:
 113:/Users/pthalamy/Studies/CMU/benchmark/build/src-bobby/hw-block/hwSerial.c **** 	PORTF.DIRSET = PIN3_bm;	
 350               		.loc 1 113 0
 351 011e E0EA      		ldi r30,lo8(-96)
 352 0120 F6E0      		ldi r31,lo8(6)
 353 0122 4183      		std Z+1,r20
 354               	.LVL23:
 355               	.LBB52:
 356               	.LBB53:
  91:/Users/pthalamy/Studies/CMU/benchmark/build/src-bobby/hw-block/hwSerial.c **** 		(p->uart).huart = huart;
 357               		.loc 1 91 0
 358 0124 E0EA      		ldi r30,lo8(-96)
 359 0126 FBE0      		ldi r31,lo8(11)
 360 0128 E093 0000 		sts hwPort+6,r30
 361 012c F093 0000 		sts hwPort+6+1,r31
  92:/Users/pthalamy/Studies/CMU/benchmark/build/src-bobby/hw-block/hwSerial.c **** 		p->ptype = HARDWARE_UART;
 362               		.loc 1 92 0
 363 0130 1092 0000 		sts hwPort+8,__zero_reg__
 364               	.LVL24:
 365               	.LBB54:
 366               	.LBB55:
 126:/Users/pthalamy/Studies/CMU/benchmark/build/src-bobby/hw-block/hwSerial.c **** 	huart->CTRLB = USART_RXEN_bm | USART_TXEN_bm;		// turn on RX/TX, somewhat helpful!
 367               		.loc 1 126 0
 368 0134 3483      		std Z+4,r19
 127:/Users/pthalamy/Studies/CMU/benchmark/build/src-bobby/hw-block/hwSerial.c **** 	huart->CTRLC = USART_CHSIZE_8BIT_gc;				// use 8-bit data
 369               		.loc 1 127 0
 370 0136 2583      		std Z+5,r18
 129:/Users/pthalamy/Studies/CMU/benchmark/build/src-bobby/hw-block/hwSerial.c **** 	huart->CTRLA = USART_RXCINTLVL_HI_gc | USART_TXCINTLVL_HI_gc;	// enable RX/TX interrupt support
 371               		.loc 1 129 0
 372 0138 9383      		std Z+3,r25
 130:/Users/pthalamy/Studies/CMU/benchmark/build/src-bobby/hw-block/hwSerial.c **** 	huart->BAUDCTRLA = 51;  // 38400 		// 57600   			//103;	//19200 	16; // 115200
 373               		.loc 1 130 0
 374 013a 8683      		std Z+6,r24
 375               		.loc 1 131 0
 376 013c 1782      		std Z+7,__zero_reg__
 377               	.LBE55:
 378               	.LBE54:
 379               	.LBE53:
 380               	.LBE52:
 117:/Users/pthalamy/Studies/CMU/benchmark/build/src-bobby/hw-block/hwSerial.c **** 	PORTC.DIRSET = PIN3_bm;	
 381               		.loc 1 117 0
 382 013e 4983      		std Y+1,r20
 383               	.LVL25:
 384               	.LBB56:
 385               	.LBB57:
  91:/Users/pthalamy/Studies/CMU/benchmark/build/src-bobby/hw-block/hwSerial.c **** 		(p->uart).huart = huart;
 386               		.loc 1 91 0
 387 0140 E0EA      		ldi r30,lo8(-96)
 388 0142 F8E0      		ldi r31,lo8(8)
 389 0144 E093 0000 		sts hwPort+9,r30
 390 0148 F093 0000 		sts hwPort+9+1,r31
  92:/Users/pthalamy/Studies/CMU/benchmark/build/src-bobby/hw-block/hwSerial.c **** 		p->ptype = HARDWARE_UART;
 391               		.loc 1 92 0
 392 014c 1092 0000 		sts hwPort+11,__zero_reg__
 393               	.LVL26:
 394               	.LBB58:
 395               	.LBB59:
 126:/Users/pthalamy/Studies/CMU/benchmark/build/src-bobby/hw-block/hwSerial.c **** 	huart->CTRLB = USART_RXEN_bm | USART_TXEN_bm;		// turn on RX/TX, somewhat helpful!
 396               		.loc 1 126 0
 397 0150 3483      		std Z+4,r19
 127:/Users/pthalamy/Studies/CMU/benchmark/build/src-bobby/hw-block/hwSerial.c **** 	huart->CTRLC = USART_CHSIZE_8BIT_gc;				// use 8-bit data
 398               		.loc 1 127 0
 399 0152 2583      		std Z+5,r18
 129:/Users/pthalamy/Studies/CMU/benchmark/build/src-bobby/hw-block/hwSerial.c **** 	huart->CTRLA = USART_RXCINTLVL_HI_gc | USART_TXCINTLVL_HI_gc;	// enable RX/TX interrupt support
 400               		.loc 1 129 0
 401 0154 9383      		std Z+3,r25
 130:/Users/pthalamy/Studies/CMU/benchmark/build/src-bobby/hw-block/hwSerial.c **** 	huart->BAUDCTRLA = 51;  // 38400 		// 57600   			//103;	//19200 	16; // 115200
 402               		.loc 1 130 0
 403 0156 8683      		std Z+6,r24
 404               		.loc 1 131 0
 405 0158 1782      		std Z+7,__zero_reg__
 406               	.LBE59:
 407               	.LBE58:
 408               	.LBE57:
 409               	.LBE56:
 120:/Users/pthalamy/Studies/CMU/benchmark/build/src-bobby/hw-block/hwSerial.c **** 	PORTD.DIRSET = PIN3_bm;	
 410               		.loc 1 120 0
 411 015a 1196      		adiw r26,1
 412 015c 4C93      		st X,r20
 413               	.LVL27:
 414               	.LBB60:
 415               	.LBB61:
  91:/Users/pthalamy/Studies/CMU/benchmark/build/src-bobby/hw-block/hwSerial.c **** 		(p->uart).huart = huart;
 416               		.loc 1 91 0
 417 015e E0EA      		ldi r30,lo8(-96)
 418 0160 F9E0      		ldi r31,lo8(9)
 419 0162 E093 0000 		sts hwPort,r30
 420 0166 F093 0000 		sts hwPort+1,r31
  92:/Users/pthalamy/Studies/CMU/benchmark/build/src-bobby/hw-block/hwSerial.c **** 		p->ptype = HARDWARE_UART;
 421               		.loc 1 92 0
 422 016a 1092 0000 		sts hwPort+2,__zero_reg__
 423               	.LVL28:
 424               	.LBB62:
 425               	.LBB63:
 126:/Users/pthalamy/Studies/CMU/benchmark/build/src-bobby/hw-block/hwSerial.c **** 	huart->CTRLB = USART_RXEN_bm | USART_TXEN_bm;		// turn on RX/TX, somewhat helpful!
 426               		.loc 1 126 0
 427 016e 3483      		std Z+4,r19
 127:/Users/pthalamy/Studies/CMU/benchmark/build/src-bobby/hw-block/hwSerial.c **** 	huart->CTRLC = USART_CHSIZE_8BIT_gc;				// use 8-bit data
 428               		.loc 1 127 0
 429 0170 2583      		std Z+5,r18
 129:/Users/pthalamy/Studies/CMU/benchmark/build/src-bobby/hw-block/hwSerial.c **** 	huart->CTRLA = USART_RXCINTLVL_HI_gc | USART_TXCINTLVL_HI_gc;	// enable RX/TX interrupt support
 430               		.loc 1 129 0
 431 0172 9383      		std Z+3,r25
 130:/Users/pthalamy/Studies/CMU/benchmark/build/src-bobby/hw-block/hwSerial.c **** 	huart->BAUDCTRLA = 51;  // 38400 		// 57600   			//103;	//19200 	16; // 115200
 432               		.loc 1 130 0
 433 0174 8683      		std Z+6,r24
 434               		.loc 1 131 0
 435 0176 1782      		std Z+7,__zero_reg__
 436               	/* epilogue start */
 437               	.LBE63:
 438               	.LBE62:
 439               	.LBE61:
 440               	.LBE60:
 122:/Users/pthalamy/Studies/CMU/benchmark/build/src-bobby/hw-block/hwSerial.c **** }
 441               		.loc 1 122 0
 442 0178 DF91      		pop r29
 443 017a CF91      		pop r28
 444 017c 0895      		ret
 445               		.cfi_endproc
 446               	.LFE11:
 448               	.global	initHWUart
 450               	initHWUart:
 451               	.LFB12:
 125:/Users/pthalamy/Studies/CMU/benchmark/build/src-bobby/hw-block/hwSerial.c **** {
 452               		.loc 1 125 0
 453               		.cfi_startproc
 454               	.LVL29:
 455               	/* prologue: function */
 456               	/* frame size = 0 */
 457               	/* stack size = 0 */
 458               	.L__stack_usage = 0
 459 017e FC01      		movw r30,r24
 126:/Users/pthalamy/Studies/CMU/benchmark/build/src-bobby/hw-block/hwSerial.c **** 	huart->CTRLB = USART_RXEN_bm | USART_TXEN_bm;		// turn on RX/TX, somewhat helpful!
 460               		.loc 1 126 0
 461 0180 88E1      		ldi r24,lo8(24)
 462               	.LVL30:
 463 0182 8483      		std Z+4,r24
 127:/Users/pthalamy/Studies/CMU/benchmark/build/src-bobby/hw-block/hwSerial.c **** 	huart->CTRLC = USART_CHSIZE_8BIT_gc;				// use 8-bit data
 464               		.loc 1 127 0
 465 0184 83E0      		ldi r24,lo8(3)
 466 0186 8583      		std Z+5,r24
 129:/Users/pthalamy/Studies/CMU/benchmark/build/src-bobby/hw-block/hwSerial.c **** 	huart->CTRLA = USART_RXCINTLVL_HI_gc | USART_TXCINTLVL_HI_gc;	// enable RX/TX interrupt support
 467               		.loc 1 129 0
 468 0188 8CE3      		ldi r24,lo8(60)
 469 018a 8383      		std Z+3,r24
 130:/Users/pthalamy/Studies/CMU/benchmark/build/src-bobby/hw-block/hwSerial.c **** 	huart->BAUDCTRLA = 51;  // 38400 		// 57600   			//103;	//19200 	16; // 115200
 470               		.loc 1 130 0
 471 018c 83E3      		ldi r24,lo8(51)
 472 018e 8683      		std Z+6,r24
 473               		.loc 1 131 0
 474 0190 1782      		std Z+7,__zero_reg__
 475 0192 0895      		ret
 476               		.cfi_endproc
 477               	.LFE12:
 479               	.global	__vector_91
 481               	__vector_91:
 482               	.LFB13:
 132:/Users/pthalamy/Studies/CMU/benchmark/build/src-bobby/hw-block/hwSerial.c **** }
 133:/Users/pthalamy/Studies/CMU/benchmark/build/src-bobby/hw-block/hwSerial.c **** 
 134:/Users/pthalamy/Studies/CMU/benchmark/build/src-bobby/hw-block/hwSerial.c **** 
 135:/Users/pthalamy/Studies/CMU/benchmark/build/src-bobby/hw-block/hwSerial.c **** ISR(USARTD1_RXC_vect)
 136:/Users/pthalamy/Studies/CMU/benchmark/build/src-bobby/hw-block/hwSerial.c **** {
 483               		.loc 1 136 0
 484               		.cfi_startproc
 485 0194 1F92      		push r1
 486               	.LCFI2:
 487               		.cfi_def_cfa_offset 4
 488               		.cfi_offset 1, -3
 489 0196 0F92      		push r0
 490               	.LCFI3:
 491               		.cfi_def_cfa_offset 5
 492               		.cfi_offset 0, -4
 493 0198 0FB6      		in r0,__SREG__
 494 019a 0F92      		push r0
 495 019c 1124      		clr __zero_reg__
 496 019e 0BB6      		in r0,__RAMPZ__
 497 01a0 0F92      		push r0
 498 01a2 2F93      		push r18
 499               	.LCFI4:
 500               		.cfi_def_cfa_offset 6
 501               		.cfi_offset 18, -5
 502 01a4 3F93      		push r19
 503               	.LCFI5:
 504               		.cfi_def_cfa_offset 7
 505               		.cfi_offset 19, -6
 506 01a6 4F93      		push r20
 507               	.LCFI6:
 508               		.cfi_def_cfa_offset 8
 509               		.cfi_offset 20, -7
 510 01a8 5F93      		push r21
 511               	.LCFI7:
 512               		.cfi_def_cfa_offset 9
 513               		.cfi_offset 21, -8
 514 01aa 6F93      		push r22
 515               	.LCFI8:
 516               		.cfi_def_cfa_offset 10
 517               		.cfi_offset 22, -9
 518 01ac 7F93      		push r23
 519               	.LCFI9:
 520               		.cfi_def_cfa_offset 11
 521               		.cfi_offset 23, -10
 522 01ae 8F93      		push r24
 523               	.LCFI10:
 524               		.cfi_def_cfa_offset 12
 525               		.cfi_offset 24, -11
 526 01b0 9F93      		push r25
 527               	.LCFI11:
 528               		.cfi_def_cfa_offset 13
 529               		.cfi_offset 25, -12
 530 01b2 AF93      		push r26
 531               	.LCFI12:
 532               		.cfi_def_cfa_offset 14
 533               		.cfi_offset 26, -13
 534 01b4 BF93      		push r27
 535               	.LCFI13:
 536               		.cfi_def_cfa_offset 15
 537               		.cfi_offset 27, -14
 538 01b6 EF93      		push r30
 539               	.LCFI14:
 540               		.cfi_def_cfa_offset 16
 541               		.cfi_offset 30, -15
 542 01b8 FF93      		push r31
 543               	.LCFI15:
 544               		.cfi_def_cfa_offset 17
 545               		.cfi_offset 31, -16
 546               	/* prologue: Signal */
 547               	/* frame size = 0 */
 548               	/* stack size = 16 */
 549               	.L__stack_usage = 16
 137:/Users/pthalamy/Studies/CMU/benchmark/build/src-bobby/hw-block/hwSerial.c **** 	uint8_t c;
 138:/Users/pthalamy/Studies/CMU/benchmark/build/src-bobby/hw-block/hwSerial.c **** 	
 139:/Users/pthalamy/Studies/CMU/benchmark/build/src-bobby/hw-block/hwSerial.c **** 	c = USARTD1.DATA;
 550               		.loc 1 139 0
 551 01ba 8091 B009 		lds r24,2480
 552               	.LVL31:
 140:/Users/pthalamy/Studies/CMU/benchmark/build/src-bobby/hw-block/hwSerial.c **** 	//printf("R:%x",c);	
 141:/Users/pthalamy/Studies/CMU/benchmark/build/src-bobby/hw-block/hwSerial.c **** 	push(c, &(port[UP].rx));
 553               		.loc 1 141 0
 554 01be 60E0      		ldi r22,lo8(port+464)
 555 01c0 70E0      		ldi r23,hi8(port+464)
 556 01c2 0E94 0000 		call push
 557               	.LVL32:
 558               	/* epilogue start */
 142:/Users/pthalamy/Studies/CMU/benchmark/build/src-bobby/hw-block/hwSerial.c **** }
 559               		.loc 1 142 0
 560 01c6 FF91      		pop r31
 561 01c8 EF91      		pop r30
 562 01ca BF91      		pop r27
 563 01cc AF91      		pop r26
 564 01ce 9F91      		pop r25
 565 01d0 8F91      		pop r24
 566 01d2 7F91      		pop r23
 567 01d4 6F91      		pop r22
 568 01d6 5F91      		pop r21
 569 01d8 4F91      		pop r20
 570 01da 3F91      		pop r19
 571 01dc 2F91      		pop r18
 572 01de 0F90      		pop r0
 573 01e0 0BBE      		out __RAMPZ__,r0
 574 01e2 0F90      		pop r0
 575 01e4 0FBE      		out __SREG__,r0
 576 01e6 0F90      		pop r0
 577 01e8 1F90      		pop r1
 578 01ea 1895      		reti
 579               		.cfi_endproc
 580               	.LFE13:
 582               	.global	__vector_93
 584               	__vector_93:
 585               	.LFB14:
 143:/Users/pthalamy/Studies/CMU/benchmark/build/src-bobby/hw-block/hwSerial.c **** 
 144:/Users/pthalamy/Studies/CMU/benchmark/build/src-bobby/hw-block/hwSerial.c **** ISR(USARTD1_TXC_vect)
 145:/Users/pthalamy/Studies/CMU/benchmark/build/src-bobby/hw-block/hwSerial.c **** {
 586               		.loc 1 145 0
 587               		.cfi_startproc
 588 01ec 1F92      		push r1
 589               	.LCFI16:
 590               		.cfi_def_cfa_offset 4
 591               		.cfi_offset 1, -3
 592 01ee 0F92      		push r0
 593               	.LCFI17:
 594               		.cfi_def_cfa_offset 5
 595               		.cfi_offset 0, -4
 596 01f0 0FB6      		in r0,__SREG__
 597 01f2 0F92      		push r0
 598 01f4 1124      		clr __zero_reg__
 599 01f6 0BB6      		in r0,__RAMPZ__
 600 01f8 0F92      		push r0
 601 01fa 2F93      		push r18
 602               	.LCFI18:
 603               		.cfi_def_cfa_offset 6
 604               		.cfi_offset 18, -5
 605 01fc 3F93      		push r19
 606               	.LCFI19:
 607               		.cfi_def_cfa_offset 7
 608               		.cfi_offset 19, -6
 609 01fe 4F93      		push r20
 610               	.LCFI20:
 611               		.cfi_def_cfa_offset 8
 612               		.cfi_offset 20, -7
 613 0200 5F93      		push r21
 614               	.LCFI21:
 615               		.cfi_def_cfa_offset 9
 616               		.cfi_offset 21, -8
 617 0202 6F93      		push r22
 618               	.LCFI22:
 619               		.cfi_def_cfa_offset 10
 620               		.cfi_offset 22, -9
 621 0204 7F93      		push r23
 622               	.LCFI23:
 623               		.cfi_def_cfa_offset 11
 624               		.cfi_offset 23, -10
 625 0206 8F93      		push r24
 626               	.LCFI24:
 627               		.cfi_def_cfa_offset 12
 628               		.cfi_offset 24, -11
 629 0208 9F93      		push r25
 630               	.LCFI25:
 631               		.cfi_def_cfa_offset 13
 632               		.cfi_offset 25, -12
 633 020a AF93      		push r26
 634               	.LCFI26:
 635               		.cfi_def_cfa_offset 14
 636               		.cfi_offset 26, -13
 637 020c BF93      		push r27
 638               	.LCFI27:
 639               		.cfi_def_cfa_offset 15
 640               		.cfi_offset 27, -14
 641 020e EF93      		push r30
 642               	.LCFI28:
 643               		.cfi_def_cfa_offset 16
 644               		.cfi_offset 30, -15
 645 0210 FF93      		push r31
 646               	.LCFI29:
 647               		.cfi_def_cfa_offset 17
 648               		.cfi_offset 31, -16
 649               	/* prologue: Signal */
 650               	/* frame size = 0 */
 651               	/* stack size = 16 */
 652               	.L__stack_usage = 16
 146:/Users/pthalamy/Studies/CMU/benchmark/build/src-bobby/hw-block/hwSerial.c **** 	int16_t c;
 147:/Users/pthalamy/Studies/CMU/benchmark/build/src-bobby/hw-block/hwSerial.c **** 	
 148:/Users/pthalamy/Studies/CMU/benchmark/build/src-bobby/hw-block/hwSerial.c **** 	c  = pop(&(port[UP].tx));
 653               		.loc 1 148 0
 654 0212 80E0      		ldi r24,lo8(port+496)
 655 0214 90E0      		ldi r25,hi8(port+496)
 656 0216 0E94 0000 		call pop
 657               	.LVL33:
 149:/Users/pthalamy/Studies/CMU/benchmark/build/src-bobby/hw-block/hwSerial.c **** 	
 150:/Users/pthalamy/Studies/CMU/benchmark/build/src-bobby/hw-block/hwSerial.c **** 	if(c != -1)
 658               		.loc 1 150 0
 659 021a 8F3F      		cpi r24,-1
 660 021c 2FEF      		ldi r18,-1
 661 021e 9207      		cpc r25,r18
 662 0220 01F0      		breq .L32
 151:/Users/pthalamy/Studies/CMU/benchmark/build/src-bobby/hw-block/hwSerial.c **** 	{
 152:/Users/pthalamy/Studies/CMU/benchmark/build/src-bobby/hw-block/hwSerial.c **** 		USARTD1.DATA = c;
 663               		.loc 1 152 0
 664 0222 8093 B009 		sts 2480,r24
 665               	.L32:
 666               	/* epilogue start */
 153:/Users/pthalamy/Studies/CMU/benchmark/build/src-bobby/hw-block/hwSerial.c **** 	}
 154:/Users/pthalamy/Studies/CMU/benchmark/build/src-bobby/hw-block/hwSerial.c **** 	else
 155:/Users/pthalamy/Studies/CMU/benchmark/build/src-bobby/hw-block/hwSerial.c **** 	{
 156:/Users/pthalamy/Studies/CMU/benchmark/build/src-bobby/hw-block/hwSerial.c **** 		// should flag that we're waiting for an ACK now
 157:/Users/pthalamy/Studies/CMU/benchmark/build/src-bobby/hw-block/hwSerial.c **** 	}
 158:/Users/pthalamy/Studies/CMU/benchmark/build/src-bobby/hw-block/hwSerial.c **** }
 667               		.loc 1 158 0
 668 0226 FF91      		pop r31
 669 0228 EF91      		pop r30
 670 022a BF91      		pop r27
 671 022c AF91      		pop r26
 672 022e 9F91      		pop r25
 673 0230 8F91      		pop r24
 674               	.LVL34:
 675 0232 7F91      		pop r23
 676 0234 6F91      		pop r22
 677 0236 5F91      		pop r21
 678 0238 4F91      		pop r20
 679 023a 3F91      		pop r19
 680 023c 2F91      		pop r18
 681 023e 0F90      		pop r0
 682 0240 0BBE      		out __RAMPZ__,r0
 683 0242 0F90      		pop r0
 684 0244 0FBE      		out __SREG__,r0
 685 0246 0F90      		pop r0
 686 0248 1F90      		pop r1
 687 024a 1895      		reti
 688               		.cfi_endproc
 689               	.LFE14:
 691               	.global	__vector_28
 693               	__vector_28:
 694               	.LFB15:
 159:/Users/pthalamy/Studies/CMU/benchmark/build/src-bobby/hw-block/hwSerial.c **** 
 160:/Users/pthalamy/Studies/CMU/benchmark/build/src-bobby/hw-block/hwSerial.c **** ISR(USARTC1_RXC_vect)
 161:/Users/pthalamy/Studies/CMU/benchmark/build/src-bobby/hw-block/hwSerial.c **** {
 695               		.loc 1 161 0
 696               		.cfi_startproc
 697 024c 1F92      		push r1
 698               	.LCFI30:
 699               		.cfi_def_cfa_offset 4
 700               		.cfi_offset 1, -3
 701 024e 0F92      		push r0
 702               	.LCFI31:
 703               		.cfi_def_cfa_offset 5
 704               		.cfi_offset 0, -4
 705 0250 0FB6      		in r0,__SREG__
 706 0252 0F92      		push r0
 707 0254 1124      		clr __zero_reg__
 708 0256 0BB6      		in r0,__RAMPZ__
 709 0258 0F92      		push r0
 710 025a 2F93      		push r18
 711               	.LCFI32:
 712               		.cfi_def_cfa_offset 6
 713               		.cfi_offset 18, -5
 714 025c 3F93      		push r19
 715               	.LCFI33:
 716               		.cfi_def_cfa_offset 7
 717               		.cfi_offset 19, -6
 718 025e 4F93      		push r20
 719               	.LCFI34:
 720               		.cfi_def_cfa_offset 8
 721               		.cfi_offset 20, -7
 722 0260 5F93      		push r21
 723               	.LCFI35:
 724               		.cfi_def_cfa_offset 9
 725               		.cfi_offset 21, -8
 726 0262 6F93      		push r22
 727               	.LCFI36:
 728               		.cfi_def_cfa_offset 10
 729               		.cfi_offset 22, -9
 730 0264 7F93      		push r23
 731               	.LCFI37:
 732               		.cfi_def_cfa_offset 11
 733               		.cfi_offset 23, -10
 734 0266 8F93      		push r24
 735               	.LCFI38:
 736               		.cfi_def_cfa_offset 12
 737               		.cfi_offset 24, -11
 738 0268 9F93      		push r25
 739               	.LCFI39:
 740               		.cfi_def_cfa_offset 13
 741               		.cfi_offset 25, -12
 742 026a AF93      		push r26
 743               	.LCFI40:
 744               		.cfi_def_cfa_offset 14
 745               		.cfi_offset 26, -13
 746 026c BF93      		push r27
 747               	.LCFI41:
 748               		.cfi_def_cfa_offset 15
 749               		.cfi_offset 27, -14
 750 026e EF93      		push r30
 751               	.LCFI42:
 752               		.cfi_def_cfa_offset 16
 753               		.cfi_offset 30, -15
 754 0270 FF93      		push r31
 755               	.LCFI43:
 756               		.cfi_def_cfa_offset 17
 757               		.cfi_offset 31, -16
 758               	/* prologue: Signal */
 759               	/* frame size = 0 */
 760               	/* stack size = 16 */
 761               	.L__stack_usage = 16
 162:/Users/pthalamy/Studies/CMU/benchmark/build/src-bobby/hw-block/hwSerial.c **** 	uint8_t c;
 163:/Users/pthalamy/Studies/CMU/benchmark/build/src-bobby/hw-block/hwSerial.c **** 	
 164:/Users/pthalamy/Studies/CMU/benchmark/build/src-bobby/hw-block/hwSerial.c **** 	c = USARTC1.DATA;
 762               		.loc 1 164 0
 763 0272 8091 B008 		lds r24,2224
 764               	.LVL35:
 165:/Users/pthalamy/Studies/CMU/benchmark/build/src-bobby/hw-block/hwSerial.c **** 	//printf("R:%x",c);	
 166:/Users/pthalamy/Studies/CMU/benchmark/build/src-bobby/hw-block/hwSerial.c **** 	push(c, &(port[NORTH].rx));
 765               		.loc 1 166 0
 766 0276 60E0      		ldi r22,lo8(port+112)
 767 0278 70E0      		ldi r23,hi8(port+112)
 768 027a 0E94 0000 		call push
 769               	.LVL36:
 770               	/* epilogue start */
 167:/Users/pthalamy/Studies/CMU/benchmark/build/src-bobby/hw-block/hwSerial.c **** }
 771               		.loc 1 167 0
 772 027e FF91      		pop r31
 773 0280 EF91      		pop r30
 774 0282 BF91      		pop r27
 775 0284 AF91      		pop r26
 776 0286 9F91      		pop r25
 777 0288 8F91      		pop r24
 778 028a 7F91      		pop r23
 779 028c 6F91      		pop r22
 780 028e 5F91      		pop r21
 781 0290 4F91      		pop r20
 782 0292 3F91      		pop r19
 783 0294 2F91      		pop r18
 784 0296 0F90      		pop r0
 785 0298 0BBE      		out __RAMPZ__,r0
 786 029a 0F90      		pop r0
 787 029c 0FBE      		out __SREG__,r0
 788 029e 0F90      		pop r0
 789 02a0 1F90      		pop r1
 790 02a2 1895      		reti
 791               		.cfi_endproc
 792               	.LFE15:
 794               	.global	__vector_30
 796               	__vector_30:
 797               	.LFB16:
 168:/Users/pthalamy/Studies/CMU/benchmark/build/src-bobby/hw-block/hwSerial.c **** ISR(USARTC1_TXC_vect)
 169:/Users/pthalamy/Studies/CMU/benchmark/build/src-bobby/hw-block/hwSerial.c **** {
 798               		.loc 1 169 0
 799               		.cfi_startproc
 800 02a4 1F92      		push r1
 801               	.LCFI44:
 802               		.cfi_def_cfa_offset 4
 803               		.cfi_offset 1, -3
 804 02a6 0F92      		push r0
 805               	.LCFI45:
 806               		.cfi_def_cfa_offset 5
 807               		.cfi_offset 0, -4
 808 02a8 0FB6      		in r0,__SREG__
 809 02aa 0F92      		push r0
 810 02ac 1124      		clr __zero_reg__
 811 02ae 0BB6      		in r0,__RAMPZ__
 812 02b0 0F92      		push r0
 813 02b2 2F93      		push r18
 814               	.LCFI46:
 815               		.cfi_def_cfa_offset 6
 816               		.cfi_offset 18, -5
 817 02b4 3F93      		push r19
 818               	.LCFI47:
 819               		.cfi_def_cfa_offset 7
 820               		.cfi_offset 19, -6
 821 02b6 4F93      		push r20
 822               	.LCFI48:
 823               		.cfi_def_cfa_offset 8
 824               		.cfi_offset 20, -7
 825 02b8 5F93      		push r21
 826               	.LCFI49:
 827               		.cfi_def_cfa_offset 9
 828               		.cfi_offset 21, -8
 829 02ba 6F93      		push r22
 830               	.LCFI50:
 831               		.cfi_def_cfa_offset 10
 832               		.cfi_offset 22, -9
 833 02bc 7F93      		push r23
 834               	.LCFI51:
 835               		.cfi_def_cfa_offset 11
 836               		.cfi_offset 23, -10
 837 02be 8F93      		push r24
 838               	.LCFI52:
 839               		.cfi_def_cfa_offset 12
 840               		.cfi_offset 24, -11
 841 02c0 9F93      		push r25
 842               	.LCFI53:
 843               		.cfi_def_cfa_offset 13
 844               		.cfi_offset 25, -12
 845 02c2 AF93      		push r26
 846               	.LCFI54:
 847               		.cfi_def_cfa_offset 14
 848               		.cfi_offset 26, -13
 849 02c4 BF93      		push r27
 850               	.LCFI55:
 851               		.cfi_def_cfa_offset 15
 852               		.cfi_offset 27, -14
 853 02c6 EF93      		push r30
 854               	.LCFI56:
 855               		.cfi_def_cfa_offset 16
 856               		.cfi_offset 30, -15
 857 02c8 FF93      		push r31
 858               	.LCFI57:
 859               		.cfi_def_cfa_offset 17
 860               		.cfi_offset 31, -16
 861               	/* prologue: Signal */
 862               	/* frame size = 0 */
 863               	/* stack size = 16 */
 864               	.L__stack_usage = 16
 170:/Users/pthalamy/Studies/CMU/benchmark/build/src-bobby/hw-block/hwSerial.c **** 	int16_t c;
 171:/Users/pthalamy/Studies/CMU/benchmark/build/src-bobby/hw-block/hwSerial.c **** 	
 172:/Users/pthalamy/Studies/CMU/benchmark/build/src-bobby/hw-block/hwSerial.c **** 	c  = pop(&(port[NORTH].tx));
 865               		.loc 1 172 0
 866 02ca 80E0      		ldi r24,lo8(port+144)
 867 02cc 90E0      		ldi r25,hi8(port+144)
 868 02ce 0E94 0000 		call pop
 869               	.LVL37:
 173:/Users/pthalamy/Studies/CMU/benchmark/build/src-bobby/hw-block/hwSerial.c **** 	
 174:/Users/pthalamy/Studies/CMU/benchmark/build/src-bobby/hw-block/hwSerial.c **** 	if(c != -1)
 870               		.loc 1 174 0
 871 02d2 8F3F      		cpi r24,-1
 872 02d4 2FEF      		ldi r18,-1
 873 02d6 9207      		cpc r25,r18
 874 02d8 01F0      		breq .L38
 175:/Users/pthalamy/Studies/CMU/benchmark/build/src-bobby/hw-block/hwSerial.c **** 	{
 176:/Users/pthalamy/Studies/CMU/benchmark/build/src-bobby/hw-block/hwSerial.c **** 		USARTC1.DATA = c;
 875               		.loc 1 176 0
 876 02da 8093 B008 		sts 2224,r24
 877               	.L38:
 878               	/* epilogue start */
 177:/Users/pthalamy/Studies/CMU/benchmark/build/src-bobby/hw-block/hwSerial.c **** 	}
 178:/Users/pthalamy/Studies/CMU/benchmark/build/src-bobby/hw-block/hwSerial.c **** }
 879               		.loc 1 178 0
 880 02de FF91      		pop r31
 881 02e0 EF91      		pop r30
 882 02e2 BF91      		pop r27
 883 02e4 AF91      		pop r26
 884 02e6 9F91      		pop r25
 885 02e8 8F91      		pop r24
 886               	.LVL38:
 887 02ea 7F91      		pop r23
 888 02ec 6F91      		pop r22
 889 02ee 5F91      		pop r21
 890 02f0 4F91      		pop r20
 891 02f2 3F91      		pop r19
 892 02f4 2F91      		pop r18
 893 02f6 0F90      		pop r0
 894 02f8 0BBE      		out __RAMPZ__,r0
 895 02fa 0F90      		pop r0
 896 02fc 0FBE      		out __SREG__,r0
 897 02fe 0F90      		pop r0
 898 0300 1F90      		pop r1
 899 0302 1895      		reti
 900               		.cfi_endproc
 901               	.LFE16:
 903               	.global	__vector_119
 905               	__vector_119:
 906               	.LFB17:
 179:/Users/pthalamy/Studies/CMU/benchmark/build/src-bobby/hw-block/hwSerial.c **** 
 180:/Users/pthalamy/Studies/CMU/benchmark/build/src-bobby/hw-block/hwSerial.c **** ISR(USARTF0_RXC_vect)
 181:/Users/pthalamy/Studies/CMU/benchmark/build/src-bobby/hw-block/hwSerial.c **** {
 907               		.loc 1 181 0
 908               		.cfi_startproc
 909 0304 1F92      		push r1
 910               	.LCFI58:
 911               		.cfi_def_cfa_offset 4
 912               		.cfi_offset 1, -3
 913 0306 0F92      		push r0
 914               	.LCFI59:
 915               		.cfi_def_cfa_offset 5
 916               		.cfi_offset 0, -4
 917 0308 0FB6      		in r0,__SREG__
 918 030a 0F92      		push r0
 919 030c 1124      		clr __zero_reg__
 920 030e 0BB6      		in r0,__RAMPZ__
 921 0310 0F92      		push r0
 922 0312 2F93      		push r18
 923               	.LCFI60:
 924               		.cfi_def_cfa_offset 6
 925               		.cfi_offset 18, -5
 926 0314 3F93      		push r19
 927               	.LCFI61:
 928               		.cfi_def_cfa_offset 7
 929               		.cfi_offset 19, -6
 930 0316 4F93      		push r20
 931               	.LCFI62:
 932               		.cfi_def_cfa_offset 8
 933               		.cfi_offset 20, -7
 934 0318 5F93      		push r21
 935               	.LCFI63:
 936               		.cfi_def_cfa_offset 9
 937               		.cfi_offset 21, -8
 938 031a 6F93      		push r22
 939               	.LCFI64:
 940               		.cfi_def_cfa_offset 10
 941               		.cfi_offset 22, -9
 942 031c 7F93      		push r23
 943               	.LCFI65:
 944               		.cfi_def_cfa_offset 11
 945               		.cfi_offset 23, -10
 946 031e 8F93      		push r24
 947               	.LCFI66:
 948               		.cfi_def_cfa_offset 12
 949               		.cfi_offset 24, -11
 950 0320 9F93      		push r25
 951               	.LCFI67:
 952               		.cfi_def_cfa_offset 13
 953               		.cfi_offset 25, -12
 954 0322 AF93      		push r26
 955               	.LCFI68:
 956               		.cfi_def_cfa_offset 14
 957               		.cfi_offset 26, -13
 958 0324 BF93      		push r27
 959               	.LCFI69:
 960               		.cfi_def_cfa_offset 15
 961               		.cfi_offset 27, -14
 962 0326 EF93      		push r30
 963               	.LCFI70:
 964               		.cfi_def_cfa_offset 16
 965               		.cfi_offset 30, -15
 966 0328 FF93      		push r31
 967               	.LCFI71:
 968               		.cfi_def_cfa_offset 17
 969               		.cfi_offset 31, -16
 970               	/* prologue: Signal */
 971               	/* frame size = 0 */
 972               	/* stack size = 16 */
 973               	.L__stack_usage = 16
 182:/Users/pthalamy/Studies/CMU/benchmark/build/src-bobby/hw-block/hwSerial.c **** 	uint8_t c;
 183:/Users/pthalamy/Studies/CMU/benchmark/build/src-bobby/hw-block/hwSerial.c **** 	
 184:/Users/pthalamy/Studies/CMU/benchmark/build/src-bobby/hw-block/hwSerial.c **** 	c = USARTF0.DATA;
 974               		.loc 1 184 0
 975 032a 8091 A00B 		lds r24,2976
 976               	.LVL39:
 185:/Users/pthalamy/Studies/CMU/benchmark/build/src-bobby/hw-block/hwSerial.c **** 	//printf("R:%x",c);	
 186:/Users/pthalamy/Studies/CMU/benchmark/build/src-bobby/hw-block/hwSerial.c **** 	push(c, &(port[EAST].rx));
 977               		.loc 1 186 0
 978 032e 60E0      		ldi r22,lo8(port+200)
 979 0330 70E0      		ldi r23,hi8(port+200)
 980 0332 0E94 0000 		call push
 981               	.LVL40:
 982               	/* epilogue start */
 187:/Users/pthalamy/Studies/CMU/benchmark/build/src-bobby/hw-block/hwSerial.c **** }
 983               		.loc 1 187 0
 984 0336 FF91      		pop r31
 985 0338 EF91      		pop r30
 986 033a BF91      		pop r27
 987 033c AF91      		pop r26
 988 033e 9F91      		pop r25
 989 0340 8F91      		pop r24
 990 0342 7F91      		pop r23
 991 0344 6F91      		pop r22
 992 0346 5F91      		pop r21
 993 0348 4F91      		pop r20
 994 034a 3F91      		pop r19
 995 034c 2F91      		pop r18
 996 034e 0F90      		pop r0
 997 0350 0BBE      		out __RAMPZ__,r0
 998 0352 0F90      		pop r0
 999 0354 0FBE      		out __SREG__,r0
 1000 0356 0F90      		pop r0
 1001 0358 1F90      		pop r1
 1002 035a 1895      		reti
 1003               		.cfi_endproc
 1004               	.LFE17:
 1006               	.global	__vector_121
 1008               	__vector_121:
 1009               	.LFB18:
 188:/Users/pthalamy/Studies/CMU/benchmark/build/src-bobby/hw-block/hwSerial.c **** ISR(USARTF0_TXC_vect)
 189:/Users/pthalamy/Studies/CMU/benchmark/build/src-bobby/hw-block/hwSerial.c **** {
 1010               		.loc 1 189 0
 1011               		.cfi_startproc
 1012 035c 1F92      		push r1
 1013               	.LCFI72:
 1014               		.cfi_def_cfa_offset 4
 1015               		.cfi_offset 1, -3
 1016 035e 0F92      		push r0
 1017               	.LCFI73:
 1018               		.cfi_def_cfa_offset 5
 1019               		.cfi_offset 0, -4
 1020 0360 0FB6      		in r0,__SREG__
 1021 0362 0F92      		push r0
 1022 0364 1124      		clr __zero_reg__
 1023 0366 0BB6      		in r0,__RAMPZ__
 1024 0368 0F92      		push r0
 1025 036a 2F93      		push r18
 1026               	.LCFI74:
 1027               		.cfi_def_cfa_offset 6
 1028               		.cfi_offset 18, -5
 1029 036c 3F93      		push r19
 1030               	.LCFI75:
 1031               		.cfi_def_cfa_offset 7
 1032               		.cfi_offset 19, -6
 1033 036e 4F93      		push r20
 1034               	.LCFI76:
 1035               		.cfi_def_cfa_offset 8
 1036               		.cfi_offset 20, -7
 1037 0370 5F93      		push r21
 1038               	.LCFI77:
 1039               		.cfi_def_cfa_offset 9
 1040               		.cfi_offset 21, -8
 1041 0372 6F93      		push r22
 1042               	.LCFI78:
 1043               		.cfi_def_cfa_offset 10
 1044               		.cfi_offset 22, -9
 1045 0374 7F93      		push r23
 1046               	.LCFI79:
 1047               		.cfi_def_cfa_offset 11
 1048               		.cfi_offset 23, -10
 1049 0376 8F93      		push r24
 1050               	.LCFI80:
 1051               		.cfi_def_cfa_offset 12
 1052               		.cfi_offset 24, -11
 1053 0378 9F93      		push r25
 1054               	.LCFI81:
 1055               		.cfi_def_cfa_offset 13
 1056               		.cfi_offset 25, -12
 1057 037a AF93      		push r26
 1058               	.LCFI82:
 1059               		.cfi_def_cfa_offset 14
 1060               		.cfi_offset 26, -13
 1061 037c BF93      		push r27
 1062               	.LCFI83:
 1063               		.cfi_def_cfa_offset 15
 1064               		.cfi_offset 27, -14
 1065 037e EF93      		push r30
 1066               	.LCFI84:
 1067               		.cfi_def_cfa_offset 16
 1068               		.cfi_offset 30, -15
 1069 0380 FF93      		push r31
 1070               	.LCFI85:
 1071               		.cfi_def_cfa_offset 17
 1072               		.cfi_offset 31, -16
 1073               	/* prologue: Signal */
 1074               	/* frame size = 0 */
 1075               	/* stack size = 16 */
 1076               	.L__stack_usage = 16
 190:/Users/pthalamy/Studies/CMU/benchmark/build/src-bobby/hw-block/hwSerial.c **** 	int16_t c;
 191:/Users/pthalamy/Studies/CMU/benchmark/build/src-bobby/hw-block/hwSerial.c **** 	
 192:/Users/pthalamy/Studies/CMU/benchmark/build/src-bobby/hw-block/hwSerial.c **** 	c  = pop(&(port[EAST].tx));
 1077               		.loc 1 192 0
 1078 0382 80E0      		ldi r24,lo8(port+232)
 1079 0384 90E0      		ldi r25,hi8(port+232)
 1080 0386 0E94 0000 		call pop
 1081               	.LVL41:
 193:/Users/pthalamy/Studies/CMU/benchmark/build/src-bobby/hw-block/hwSerial.c **** 	
 194:/Users/pthalamy/Studies/CMU/benchmark/build/src-bobby/hw-block/hwSerial.c **** 	if(c != -1)
 1082               		.loc 1 194 0
 1083 038a 8F3F      		cpi r24,-1
 1084 038c 2FEF      		ldi r18,-1
 1085 038e 9207      		cpc r25,r18
 1086 0390 01F0      		breq .L44
 195:/Users/pthalamy/Studies/CMU/benchmark/build/src-bobby/hw-block/hwSerial.c **** 	{
 196:/Users/pthalamy/Studies/CMU/benchmark/build/src-bobby/hw-block/hwSerial.c **** 		USARTF0.DATA = c;
 1087               		.loc 1 196 0
 1088 0392 8093 A00B 		sts 2976,r24
 1089               	.L44:
 1090               	/* epilogue start */
 197:/Users/pthalamy/Studies/CMU/benchmark/build/src-bobby/hw-block/hwSerial.c **** 	}
 198:/Users/pthalamy/Studies/CMU/benchmark/build/src-bobby/hw-block/hwSerial.c **** }
 1091               		.loc 1 198 0
 1092 0396 FF91      		pop r31
 1093 0398 EF91      		pop r30
 1094 039a BF91      		pop r27
 1095 039c AF91      		pop r26
 1096 039e 9F91      		pop r25
 1097 03a0 8F91      		pop r24
 1098               	.LVL42:
 1099 03a2 7F91      		pop r23
 1100 03a4 6F91      		pop r22
 1101 03a6 5F91      		pop r21
 1102 03a8 4F91      		pop r20
 1103 03aa 3F91      		pop r19
 1104 03ac 2F91      		pop r18
 1105 03ae 0F90      		pop r0
 1106 03b0 0BBE      		out __RAMPZ__,r0
 1107 03b2 0F90      		pop r0
 1108 03b4 0FBE      		out __SREG__,r0
 1109 03b6 0F90      		pop r0
 1110 03b8 1F90      		pop r1
 1111 03ba 1895      		reti
 1112               		.cfi_endproc
 1113               	.LFE18:
 1115               	.global	__vector_58
 1117               	__vector_58:
 1118               	.LFB19:
 199:/Users/pthalamy/Studies/CMU/benchmark/build/src-bobby/hw-block/hwSerial.c **** 
 200:/Users/pthalamy/Studies/CMU/benchmark/build/src-bobby/hw-block/hwSerial.c **** ISR(USARTE0_RXC_vect)
 201:/Users/pthalamy/Studies/CMU/benchmark/build/src-bobby/hw-block/hwSerial.c **** {
 1119               		.loc 1 201 0
 1120               		.cfi_startproc
 1121 03bc 1F92      		push r1
 1122               	.LCFI86:
 1123               		.cfi_def_cfa_offset 4
 1124               		.cfi_offset 1, -3
 1125 03be 0F92      		push r0
 1126               	.LCFI87:
 1127               		.cfi_def_cfa_offset 5
 1128               		.cfi_offset 0, -4
 1129 03c0 0FB6      		in r0,__SREG__
 1130 03c2 0F92      		push r0
 1131 03c4 1124      		clr __zero_reg__
 1132 03c6 0BB6      		in r0,__RAMPZ__
 1133 03c8 0F92      		push r0
 1134 03ca 2F93      		push r18
 1135               	.LCFI88:
 1136               		.cfi_def_cfa_offset 6
 1137               		.cfi_offset 18, -5
 1138 03cc 3F93      		push r19
 1139               	.LCFI89:
 1140               		.cfi_def_cfa_offset 7
 1141               		.cfi_offset 19, -6
 1142 03ce 4F93      		push r20
 1143               	.LCFI90:
 1144               		.cfi_def_cfa_offset 8
 1145               		.cfi_offset 20, -7
 1146 03d0 5F93      		push r21
 1147               	.LCFI91:
 1148               		.cfi_def_cfa_offset 9
 1149               		.cfi_offset 21, -8
 1150 03d2 6F93      		push r22
 1151               	.LCFI92:
 1152               		.cfi_def_cfa_offset 10
 1153               		.cfi_offset 22, -9
 1154 03d4 7F93      		push r23
 1155               	.LCFI93:
 1156               		.cfi_def_cfa_offset 11
 1157               		.cfi_offset 23, -10
 1158 03d6 8F93      		push r24
 1159               	.LCFI94:
 1160               		.cfi_def_cfa_offset 12
 1161               		.cfi_offset 24, -11
 1162 03d8 9F93      		push r25
 1163               	.LCFI95:
 1164               		.cfi_def_cfa_offset 13
 1165               		.cfi_offset 25, -12
 1166 03da AF93      		push r26
 1167               	.LCFI96:
 1168               		.cfi_def_cfa_offset 14
 1169               		.cfi_offset 26, -13
 1170 03dc BF93      		push r27
 1171               	.LCFI97:
 1172               		.cfi_def_cfa_offset 15
 1173               		.cfi_offset 27, -14
 1174 03de EF93      		push r30
 1175               	.LCFI98:
 1176               		.cfi_def_cfa_offset 16
 1177               		.cfi_offset 30, -15
 1178 03e0 FF93      		push r31
 1179               	.LCFI99:
 1180               		.cfi_def_cfa_offset 17
 1181               		.cfi_offset 31, -16
 1182               	/* prologue: Signal */
 1183               	/* frame size = 0 */
 1184               	/* stack size = 16 */
 1185               	.L__stack_usage = 16
 202:/Users/pthalamy/Studies/CMU/benchmark/build/src-bobby/hw-block/hwSerial.c **** 	uint8_t c;
 203:/Users/pthalamy/Studies/CMU/benchmark/build/src-bobby/hw-block/hwSerial.c **** 	
 204:/Users/pthalamy/Studies/CMU/benchmark/build/src-bobby/hw-block/hwSerial.c **** 	c = USARTE0.DATA;
 1186               		.loc 1 204 0
 1187 03e2 8091 A00A 		lds r24,2720
 1188               	.LVL43:
 205:/Users/pthalamy/Studies/CMU/benchmark/build/src-bobby/hw-block/hwSerial.c **** 	//printf("R:%x",c);	
 206:/Users/pthalamy/Studies/CMU/benchmark/build/src-bobby/hw-block/hwSerial.c **** 	push(c, &(port[SOUTH].rx));
 1189               		.loc 1 206 0
 1190 03e6 60E0      		ldi r22,lo8(port+376)
 1191 03e8 70E0      		ldi r23,hi8(port+376)
 1192 03ea 0E94 0000 		call push
 1193               	.LVL44:
 1194               	/* epilogue start */
 207:/Users/pthalamy/Studies/CMU/benchmark/build/src-bobby/hw-block/hwSerial.c **** }
 1195               		.loc 1 207 0
 1196 03ee FF91      		pop r31
 1197 03f0 EF91      		pop r30
 1198 03f2 BF91      		pop r27
 1199 03f4 AF91      		pop r26
 1200 03f6 9F91      		pop r25
 1201 03f8 8F91      		pop r24
 1202 03fa 7F91      		pop r23
 1203 03fc 6F91      		pop r22
 1204 03fe 5F91      		pop r21
 1205 0400 4F91      		pop r20
 1206 0402 3F91      		pop r19
 1207 0404 2F91      		pop r18
 1208 0406 0F90      		pop r0
 1209 0408 0BBE      		out __RAMPZ__,r0
 1210 040a 0F90      		pop r0
 1211 040c 0FBE      		out __SREG__,r0
 1212 040e 0F90      		pop r0
 1213 0410 1F90      		pop r1
 1214 0412 1895      		reti
 1215               		.cfi_endproc
 1216               	.LFE19:
 1218               	.global	__vector_60
 1220               	__vector_60:
 1221               	.LFB20:
 208:/Users/pthalamy/Studies/CMU/benchmark/build/src-bobby/hw-block/hwSerial.c **** ISR(USARTE0_TXC_vect)
 209:/Users/pthalamy/Studies/CMU/benchmark/build/src-bobby/hw-block/hwSerial.c **** {
 1222               		.loc 1 209 0
 1223               		.cfi_startproc
 1224 0414 1F92      		push r1
 1225               	.LCFI100:
 1226               		.cfi_def_cfa_offset 4
 1227               		.cfi_offset 1, -3
 1228 0416 0F92      		push r0
 1229               	.LCFI101:
 1230               		.cfi_def_cfa_offset 5
 1231               		.cfi_offset 0, -4
 1232 0418 0FB6      		in r0,__SREG__
 1233 041a 0F92      		push r0
 1234 041c 1124      		clr __zero_reg__
 1235 041e 0BB6      		in r0,__RAMPZ__
 1236 0420 0F92      		push r0
 1237 0422 2F93      		push r18
 1238               	.LCFI102:
 1239               		.cfi_def_cfa_offset 6
 1240               		.cfi_offset 18, -5
 1241 0424 3F93      		push r19
 1242               	.LCFI103:
 1243               		.cfi_def_cfa_offset 7
 1244               		.cfi_offset 19, -6
 1245 0426 4F93      		push r20
 1246               	.LCFI104:
 1247               		.cfi_def_cfa_offset 8
 1248               		.cfi_offset 20, -7
 1249 0428 5F93      		push r21
 1250               	.LCFI105:
 1251               		.cfi_def_cfa_offset 9
 1252               		.cfi_offset 21, -8
 1253 042a 6F93      		push r22
 1254               	.LCFI106:
 1255               		.cfi_def_cfa_offset 10
 1256               		.cfi_offset 22, -9
 1257 042c 7F93      		push r23
 1258               	.LCFI107:
 1259               		.cfi_def_cfa_offset 11
 1260               		.cfi_offset 23, -10
 1261 042e 8F93      		push r24
 1262               	.LCFI108:
 1263               		.cfi_def_cfa_offset 12
 1264               		.cfi_offset 24, -11
 1265 0430 9F93      		push r25
 1266               	.LCFI109:
 1267               		.cfi_def_cfa_offset 13
 1268               		.cfi_offset 25, -12
 1269 0432 AF93      		push r26
 1270               	.LCFI110:
 1271               		.cfi_def_cfa_offset 14
 1272               		.cfi_offset 26, -13
 1273 0434 BF93      		push r27
 1274               	.LCFI111:
 1275               		.cfi_def_cfa_offset 15
 1276               		.cfi_offset 27, -14
 1277 0436 EF93      		push r30
 1278               	.LCFI112:
 1279               		.cfi_def_cfa_offset 16
 1280               		.cfi_offset 30, -15
 1281 0438 FF93      		push r31
 1282               	.LCFI113:
 1283               		.cfi_def_cfa_offset 17
 1284               		.cfi_offset 31, -16
 1285               	/* prologue: Signal */
 1286               	/* frame size = 0 */
 1287               	/* stack size = 16 */
 1288               	.L__stack_usage = 16
 210:/Users/pthalamy/Studies/CMU/benchmark/build/src-bobby/hw-block/hwSerial.c **** 	int16_t c;
 211:/Users/pthalamy/Studies/CMU/benchmark/build/src-bobby/hw-block/hwSerial.c **** 	
 212:/Users/pthalamy/Studies/CMU/benchmark/build/src-bobby/hw-block/hwSerial.c **** 	c  = pop(&(port[SOUTH].tx));
 1289               		.loc 1 212 0
 1290 043a 80E0      		ldi r24,lo8(port+408)
 1291 043c 90E0      		ldi r25,hi8(port+408)
 1292 043e 0E94 0000 		call pop
 1293               	.LVL45:
 213:/Users/pthalamy/Studies/CMU/benchmark/build/src-bobby/hw-block/hwSerial.c **** 	
 214:/Users/pthalamy/Studies/CMU/benchmark/build/src-bobby/hw-block/hwSerial.c **** 	if(c != -1)
 1294               		.loc 1 214 0
 1295 0442 8F3F      		cpi r24,-1
 1296 0444 2FEF      		ldi r18,-1
 1297 0446 9207      		cpc r25,r18
 1298 0448 01F0      		breq .L50
 215:/Users/pthalamy/Studies/CMU/benchmark/build/src-bobby/hw-block/hwSerial.c **** 	{
 216:/Users/pthalamy/Studies/CMU/benchmark/build/src-bobby/hw-block/hwSerial.c **** 		USARTE0.DATA = c;
 1299               		.loc 1 216 0
 1300 044a 8093 A00A 		sts 2720,r24
 1301               	.L50:
 1302               	/* epilogue start */
 217:/Users/pthalamy/Studies/CMU/benchmark/build/src-bobby/hw-block/hwSerial.c **** 	}
 218:/Users/pthalamy/Studies/CMU/benchmark/build/src-bobby/hw-block/hwSerial.c **** }
 1303               		.loc 1 218 0
 1304 044e FF91      		pop r31
 1305 0450 EF91      		pop r30
 1306 0452 BF91      		pop r27
 1307 0454 AF91      		pop r26
 1308 0456 9F91      		pop r25
 1309 0458 8F91      		pop r24
 1310               	.LVL46:
 1311 045a 7F91      		pop r23
 1312 045c 6F91      		pop r22
 1313 045e 5F91      		pop r21
 1314 0460 4F91      		pop r20
 1315 0462 3F91      		pop r19
 1316 0464 2F91      		pop r18
 1317 0466 0F90      		pop r0
 1318 0468 0BBE      		out __RAMPZ__,r0
 1319 046a 0F90      		pop r0
 1320 046c 0FBE      		out __SREG__,r0
 1321 046e 0F90      		pop r0
 1322 0470 1F90      		pop r1
 1323 0472 1895      		reti
 1324               		.cfi_endproc
 1325               	.LFE20:
 1327               	.global	__vector_25
 1329               	__vector_25:
 1330               	.LFB21:
 219:/Users/pthalamy/Studies/CMU/benchmark/build/src-bobby/hw-block/hwSerial.c **** 
 220:/Users/pthalamy/Studies/CMU/benchmark/build/src-bobby/hw-block/hwSerial.c **** ISR(USARTC0_RXC_vect)
 221:/Users/pthalamy/Studies/CMU/benchmark/build/src-bobby/hw-block/hwSerial.c **** {
 1331               		.loc 1 221 0
 1332               		.cfi_startproc
 1333 0474 1F92      		push r1
 1334               	.LCFI114:
 1335               		.cfi_def_cfa_offset 4
 1336               		.cfi_offset 1, -3
 1337 0476 0F92      		push r0
 1338               	.LCFI115:
 1339               		.cfi_def_cfa_offset 5
 1340               		.cfi_offset 0, -4
 1341 0478 0FB6      		in r0,__SREG__
 1342 047a 0F92      		push r0
 1343 047c 1124      		clr __zero_reg__
 1344 047e 0BB6      		in r0,__RAMPZ__
 1345 0480 0F92      		push r0
 1346 0482 2F93      		push r18
 1347               	.LCFI116:
 1348               		.cfi_def_cfa_offset 6
 1349               		.cfi_offset 18, -5
 1350 0484 3F93      		push r19
 1351               	.LCFI117:
 1352               		.cfi_def_cfa_offset 7
 1353               		.cfi_offset 19, -6
 1354 0486 4F93      		push r20
 1355               	.LCFI118:
 1356               		.cfi_def_cfa_offset 8
 1357               		.cfi_offset 20, -7
 1358 0488 5F93      		push r21
 1359               	.LCFI119:
 1360               		.cfi_def_cfa_offset 9
 1361               		.cfi_offset 21, -8
 1362 048a 6F93      		push r22
 1363               	.LCFI120:
 1364               		.cfi_def_cfa_offset 10
 1365               		.cfi_offset 22, -9
 1366 048c 7F93      		push r23
 1367               	.LCFI121:
 1368               		.cfi_def_cfa_offset 11
 1369               		.cfi_offset 23, -10
 1370 048e 8F93      		push r24
 1371               	.LCFI122:
 1372               		.cfi_def_cfa_offset 12
 1373               		.cfi_offset 24, -11
 1374 0490 9F93      		push r25
 1375               	.LCFI123:
 1376               		.cfi_def_cfa_offset 13
 1377               		.cfi_offset 25, -12
 1378 0492 AF93      		push r26
 1379               	.LCFI124:
 1380               		.cfi_def_cfa_offset 14
 1381               		.cfi_offset 26, -13
 1382 0494 BF93      		push r27
 1383               	.LCFI125:
 1384               		.cfi_def_cfa_offset 15
 1385               		.cfi_offset 27, -14
 1386 0496 EF93      		push r30
 1387               	.LCFI126:
 1388               		.cfi_def_cfa_offset 16
 1389               		.cfi_offset 30, -15
 1390 0498 FF93      		push r31
 1391               	.LCFI127:
 1392               		.cfi_def_cfa_offset 17
 1393               		.cfi_offset 31, -16
 1394               	/* prologue: Signal */
 1395               	/* frame size = 0 */
 1396               	/* stack size = 16 */
 1397               	.L__stack_usage = 16
 222:/Users/pthalamy/Studies/CMU/benchmark/build/src-bobby/hw-block/hwSerial.c **** 	uint8_t c;
 223:/Users/pthalamy/Studies/CMU/benchmark/build/src-bobby/hw-block/hwSerial.c **** 	
 224:/Users/pthalamy/Studies/CMU/benchmark/build/src-bobby/hw-block/hwSerial.c **** 	c = USARTC0.DATA;
 1398               		.loc 1 224 0
 1399 049a 8091 A008 		lds r24,2208
 1400               	.LVL47:
 225:/Users/pthalamy/Studies/CMU/benchmark/build/src-bobby/hw-block/hwSerial.c **** 	//printf("R:%x",c);	
 226:/Users/pthalamy/Studies/CMU/benchmark/build/src-bobby/hw-block/hwSerial.c **** 	push(c, &(port[WEST].rx));
 1401               		.loc 1 226 0
 1402 049e 60E0      		ldi r22,lo8(port+288)
 1403 04a0 70E0      		ldi r23,hi8(port+288)
 1404 04a2 0E94 0000 		call push
 1405               	.LVL48:
 1406               	/* epilogue start */
 227:/Users/pthalamy/Studies/CMU/benchmark/build/src-bobby/hw-block/hwSerial.c **** }
 1407               		.loc 1 227 0
 1408 04a6 FF91      		pop r31
 1409 04a8 EF91      		pop r30
 1410 04aa BF91      		pop r27
 1411 04ac AF91      		pop r26
 1412 04ae 9F91      		pop r25
 1413 04b0 8F91      		pop r24
 1414 04b2 7F91      		pop r23
 1415 04b4 6F91      		pop r22
 1416 04b6 5F91      		pop r21
 1417 04b8 4F91      		pop r20
 1418 04ba 3F91      		pop r19
 1419 04bc 2F91      		pop r18
 1420 04be 0F90      		pop r0
 1421 04c0 0BBE      		out __RAMPZ__,r0
 1422 04c2 0F90      		pop r0
 1423 04c4 0FBE      		out __SREG__,r0
 1424 04c6 0F90      		pop r0
 1425 04c8 1F90      		pop r1
 1426 04ca 1895      		reti
 1427               		.cfi_endproc
 1428               	.LFE21:
 1430               	.global	__vector_27
 1432               	__vector_27:
 1433               	.LFB22:
 228:/Users/pthalamy/Studies/CMU/benchmark/build/src-bobby/hw-block/hwSerial.c **** ISR(USARTC0_TXC_vect)
 229:/Users/pthalamy/Studies/CMU/benchmark/build/src-bobby/hw-block/hwSerial.c **** {
 1434               		.loc 1 229 0
 1435               		.cfi_startproc
 1436 04cc 1F92      		push r1
 1437               	.LCFI128:
 1438               		.cfi_def_cfa_offset 4
 1439               		.cfi_offset 1, -3
 1440 04ce 0F92      		push r0
 1441               	.LCFI129:
 1442               		.cfi_def_cfa_offset 5
 1443               		.cfi_offset 0, -4
 1444 04d0 0FB6      		in r0,__SREG__
 1445 04d2 0F92      		push r0
 1446 04d4 1124      		clr __zero_reg__
 1447 04d6 0BB6      		in r0,__RAMPZ__
 1448 04d8 0F92      		push r0
 1449 04da 2F93      		push r18
 1450               	.LCFI130:
 1451               		.cfi_def_cfa_offset 6
 1452               		.cfi_offset 18, -5
 1453 04dc 3F93      		push r19
 1454               	.LCFI131:
 1455               		.cfi_def_cfa_offset 7
 1456               		.cfi_offset 19, -6
 1457 04de 4F93      		push r20
 1458               	.LCFI132:
 1459               		.cfi_def_cfa_offset 8
 1460               		.cfi_offset 20, -7
 1461 04e0 5F93      		push r21
 1462               	.LCFI133:
 1463               		.cfi_def_cfa_offset 9
 1464               		.cfi_offset 21, -8
 1465 04e2 6F93      		push r22
 1466               	.LCFI134:
 1467               		.cfi_def_cfa_offset 10
 1468               		.cfi_offset 22, -9
 1469 04e4 7F93      		push r23
 1470               	.LCFI135:
 1471               		.cfi_def_cfa_offset 11
 1472               		.cfi_offset 23, -10
 1473 04e6 8F93      		push r24
 1474               	.LCFI136:
 1475               		.cfi_def_cfa_offset 12
 1476               		.cfi_offset 24, -11
 1477 04e8 9F93      		push r25
 1478               	.LCFI137:
 1479               		.cfi_def_cfa_offset 13
 1480               		.cfi_offset 25, -12
 1481 04ea AF93      		push r26
 1482               	.LCFI138:
 1483               		.cfi_def_cfa_offset 14
 1484               		.cfi_offset 26, -13
 1485 04ec BF93      		push r27
 1486               	.LCFI139:
 1487               		.cfi_def_cfa_offset 15
 1488               		.cfi_offset 27, -14
 1489 04ee EF93      		push r30
 1490               	.LCFI140:
 1491               		.cfi_def_cfa_offset 16
 1492               		.cfi_offset 30, -15
 1493 04f0 FF93      		push r31
 1494               	.LCFI141:
 1495               		.cfi_def_cfa_offset 17
 1496               		.cfi_offset 31, -16
 1497               	/* prologue: Signal */
 1498               	/* frame size = 0 */
 1499               	/* stack size = 16 */
 1500               	.L__stack_usage = 16
 230:/Users/pthalamy/Studies/CMU/benchmark/build/src-bobby/hw-block/hwSerial.c **** 	int16_t c;
 231:/Users/pthalamy/Studies/CMU/benchmark/build/src-bobby/hw-block/hwSerial.c **** 	
 232:/Users/pthalamy/Studies/CMU/benchmark/build/src-bobby/hw-block/hwSerial.c **** 	c  = pop(&(port[WEST].tx));
 1501               		.loc 1 232 0
 1502 04f2 80E0      		ldi r24,lo8(port+320)
 1503 04f4 90E0      		ldi r25,hi8(port+320)
 1504 04f6 0E94 0000 		call pop
 1505               	.LVL49:
 233:/Users/pthalamy/Studies/CMU/benchmark/build/src-bobby/hw-block/hwSerial.c **** 	
 234:/Users/pthalamy/Studies/CMU/benchmark/build/src-bobby/hw-block/hwSerial.c **** 	if(c != -1)
 1506               		.loc 1 234 0
 1507 04fa 8F3F      		cpi r24,-1
 1508 04fc 2FEF      		ldi r18,-1
 1509 04fe 9207      		cpc r25,r18
 1510 0500 01F0      		breq .L56
 235:/Users/pthalamy/Studies/CMU/benchmark/build/src-bobby/hw-block/hwSerial.c **** 	{
 236:/Users/pthalamy/Studies/CMU/benchmark/build/src-bobby/hw-block/hwSerial.c **** 		USARTC0.DATA = c;
 1511               		.loc 1 236 0
 1512 0502 8093 A008 		sts 2208,r24
 1513               	.L56:
 1514               	/* epilogue start */
 237:/Users/pthalamy/Studies/CMU/benchmark/build/src-bobby/hw-block/hwSerial.c **** 	}
 238:/Users/pthalamy/Studies/CMU/benchmark/build/src-bobby/hw-block/hwSerial.c **** }
 1515               		.loc 1 238 0
 1516 0506 FF91      		pop r31
 1517 0508 EF91      		pop r30
 1518 050a BF91      		pop r27
 1519 050c AF91      		pop r26
 1520 050e 9F91      		pop r25
 1521 0510 8F91      		pop r24
 1522               	.LVL50:
 1523 0512 7F91      		pop r23
 1524 0514 6F91      		pop r22
 1525 0516 5F91      		pop r21
 1526 0518 4F91      		pop r20
 1527 051a 3F91      		pop r19
 1528 051c 2F91      		pop r18
 1529 051e 0F90      		pop r0
 1530 0520 0BBE      		out __RAMPZ__,r0
 1531 0522 0F90      		pop r0
 1532 0524 0FBE      		out __SREG__,r0
 1533 0526 0F90      		pop r0
 1534 0528 1F90      		pop r1
 1535 052a 1895      		reti
 1536               		.cfi_endproc
 1537               	.LFE22:
 1539               	.global	__vector_88
 1541               	__vector_88:
 1542               	.LFB23:
 239:/Users/pthalamy/Studies/CMU/benchmark/build/src-bobby/hw-block/hwSerial.c **** 
 240:/Users/pthalamy/Studies/CMU/benchmark/build/src-bobby/hw-block/hwSerial.c **** ISR(USARTD0_RXC_vect)
 241:/Users/pthalamy/Studies/CMU/benchmark/build/src-bobby/hw-block/hwSerial.c **** {
 1543               		.loc 1 241 0
 1544               		.cfi_startproc
 1545 052c 1F92      		push r1
 1546               	.LCFI142:
 1547               		.cfi_def_cfa_offset 4
 1548               		.cfi_offset 1, -3
 1549 052e 0F92      		push r0
 1550               	.LCFI143:
 1551               		.cfi_def_cfa_offset 5
 1552               		.cfi_offset 0, -4
 1553 0530 0FB6      		in r0,__SREG__
 1554 0532 0F92      		push r0
 1555 0534 1124      		clr __zero_reg__
 1556 0536 0BB6      		in r0,__RAMPZ__
 1557 0538 0F92      		push r0
 1558 053a 2F93      		push r18
 1559               	.LCFI144:
 1560               		.cfi_def_cfa_offset 6
 1561               		.cfi_offset 18, -5
 1562 053c 3F93      		push r19
 1563               	.LCFI145:
 1564               		.cfi_def_cfa_offset 7
 1565               		.cfi_offset 19, -6
 1566 053e 4F93      		push r20
 1567               	.LCFI146:
 1568               		.cfi_def_cfa_offset 8
 1569               		.cfi_offset 20, -7
 1570 0540 5F93      		push r21
 1571               	.LCFI147:
 1572               		.cfi_def_cfa_offset 9
 1573               		.cfi_offset 21, -8
 1574 0542 6F93      		push r22
 1575               	.LCFI148:
 1576               		.cfi_def_cfa_offset 10
 1577               		.cfi_offset 22, -9
 1578 0544 7F93      		push r23
 1579               	.LCFI149:
 1580               		.cfi_def_cfa_offset 11
 1581               		.cfi_offset 23, -10
 1582 0546 8F93      		push r24
 1583               	.LCFI150:
 1584               		.cfi_def_cfa_offset 12
 1585               		.cfi_offset 24, -11
 1586 0548 9F93      		push r25
 1587               	.LCFI151:
 1588               		.cfi_def_cfa_offset 13
 1589               		.cfi_offset 25, -12
 1590 054a AF93      		push r26
 1591               	.LCFI152:
 1592               		.cfi_def_cfa_offset 14
 1593               		.cfi_offset 26, -13
 1594 054c BF93      		push r27
 1595               	.LCFI153:
 1596               		.cfi_def_cfa_offset 15
 1597               		.cfi_offset 27, -14
 1598 054e EF93      		push r30
 1599               	.LCFI154:
 1600               		.cfi_def_cfa_offset 16
 1601               		.cfi_offset 30, -15
 1602 0550 FF93      		push r31
 1603               	.LCFI155:
 1604               		.cfi_def_cfa_offset 17
 1605               		.cfi_offset 31, -16
 1606               	/* prologue: Signal */
 1607               	/* frame size = 0 */
 1608               	/* stack size = 16 */
 1609               	.L__stack_usage = 16
 242:/Users/pthalamy/Studies/CMU/benchmark/build/src-bobby/hw-block/hwSerial.c **** 	uint8_t c;
 243:/Users/pthalamy/Studies/CMU/benchmark/build/src-bobby/hw-block/hwSerial.c **** 	
 244:/Users/pthalamy/Studies/CMU/benchmark/build/src-bobby/hw-block/hwSerial.c **** 	c = USARTD0.DATA;
 1610               		.loc 1 244 0
 1611 0552 8091 A009 		lds r24,2464
 1612               	.LVL51:
 245:/Users/pthalamy/Studies/CMU/benchmark/build/src-bobby/hw-block/hwSerial.c **** 	//printf("R:%x",c);
 246:/Users/pthalamy/Studies/CMU/benchmark/build/src-bobby/hw-block/hwSerial.c **** 	push(c, &(port[DOWN].rx));
 1613               		.loc 1 246 0
 1614 0556 60E0      		ldi r22,lo8(port+24)
 1615 0558 70E0      		ldi r23,hi8(port+24)
 1616 055a 0E94 0000 		call push
 1617               	.LVL52:
 1618               	/* epilogue start */
 247:/Users/pthalamy/Studies/CMU/benchmark/build/src-bobby/hw-block/hwSerial.c **** }
 1619               		.loc 1 247 0
 1620 055e FF91      		pop r31
 1621 0560 EF91      		pop r30
 1622 0562 BF91      		pop r27
 1623 0564 AF91      		pop r26
 1624 0566 9F91      		pop r25
 1625 0568 8F91      		pop r24
 1626 056a 7F91      		pop r23
 1627 056c 6F91      		pop r22
 1628 056e 5F91      		pop r21
 1629 0570 4F91      		pop r20
 1630 0572 3F91      		pop r19
 1631 0574 2F91      		pop r18
 1632 0576 0F90      		pop r0
 1633 0578 0BBE      		out __RAMPZ__,r0
 1634 057a 0F90      		pop r0
 1635 057c 0FBE      		out __SREG__,r0
 1636 057e 0F90      		pop r0
 1637 0580 1F90      		pop r1
 1638 0582 1895      		reti
 1639               		.cfi_endproc
 1640               	.LFE23:
 1642               	.global	__vector_90
 1644               	__vector_90:
 1645               	.LFB24:
 248:/Users/pthalamy/Studies/CMU/benchmark/build/src-bobby/hw-block/hwSerial.c **** ISR(USARTD0_TXC_vect)
 249:/Users/pthalamy/Studies/CMU/benchmark/build/src-bobby/hw-block/hwSerial.c **** {
 1646               		.loc 1 249 0
 1647               		.cfi_startproc
 1648 0584 1F92      		push r1
 1649               	.LCFI156:
 1650               		.cfi_def_cfa_offset 4
 1651               		.cfi_offset 1, -3
 1652 0586 0F92      		push r0
 1653               	.LCFI157:
 1654               		.cfi_def_cfa_offset 5
 1655               		.cfi_offset 0, -4
 1656 0588 0FB6      		in r0,__SREG__
 1657 058a 0F92      		push r0
 1658 058c 1124      		clr __zero_reg__
 1659 058e 0BB6      		in r0,__RAMPZ__
 1660 0590 0F92      		push r0
 1661 0592 2F93      		push r18
 1662               	.LCFI158:
 1663               		.cfi_def_cfa_offset 6
 1664               		.cfi_offset 18, -5
 1665 0594 3F93      		push r19
 1666               	.LCFI159:
 1667               		.cfi_def_cfa_offset 7
 1668               		.cfi_offset 19, -6
 1669 0596 4F93      		push r20
 1670               	.LCFI160:
 1671               		.cfi_def_cfa_offset 8
 1672               		.cfi_offset 20, -7
 1673 0598 5F93      		push r21
 1674               	.LCFI161:
 1675               		.cfi_def_cfa_offset 9
 1676               		.cfi_offset 21, -8
 1677 059a 6F93      		push r22
 1678               	.LCFI162:
 1679               		.cfi_def_cfa_offset 10
 1680               		.cfi_offset 22, -9
 1681 059c 7F93      		push r23
 1682               	.LCFI163:
 1683               		.cfi_def_cfa_offset 11
 1684               		.cfi_offset 23, -10
 1685 059e 8F93      		push r24
 1686               	.LCFI164:
 1687               		.cfi_def_cfa_offset 12
 1688               		.cfi_offset 24, -11
 1689 05a0 9F93      		push r25
 1690               	.LCFI165:
 1691               		.cfi_def_cfa_offset 13
 1692               		.cfi_offset 25, -12
 1693 05a2 AF93      		push r26
 1694               	.LCFI166:
 1695               		.cfi_def_cfa_offset 14
 1696               		.cfi_offset 26, -13
 1697 05a4 BF93      		push r27
 1698               	.LCFI167:
 1699               		.cfi_def_cfa_offset 15
 1700               		.cfi_offset 27, -14
 1701 05a6 EF93      		push r30
 1702               	.LCFI168:
 1703               		.cfi_def_cfa_offset 16
 1704               		.cfi_offset 30, -15
 1705 05a8 FF93      		push r31
 1706               	.LCFI169:
 1707               		.cfi_def_cfa_offset 17
 1708               		.cfi_offset 31, -16
 1709               	/* prologue: Signal */
 1710               	/* frame size = 0 */
 1711               	/* stack size = 16 */
 1712               	.L__stack_usage = 16
 250:/Users/pthalamy/Studies/CMU/benchmark/build/src-bobby/hw-block/hwSerial.c **** 	int16_t c;
 251:/Users/pthalamy/Studies/CMU/benchmark/build/src-bobby/hw-block/hwSerial.c **** 	
 252:/Users/pthalamy/Studies/CMU/benchmark/build/src-bobby/hw-block/hwSerial.c **** 	c  = pop(&(port[DOWN].tx));
 1713               		.loc 1 252 0
 1714 05aa 80E0      		ldi r24,lo8(port+56)
 1715 05ac 90E0      		ldi r25,hi8(port+56)
 1716 05ae 0E94 0000 		call pop
 1717               	.LVL53:
 253:/Users/pthalamy/Studies/CMU/benchmark/build/src-bobby/hw-block/hwSerial.c **** 	
 254:/Users/pthalamy/Studies/CMU/benchmark/build/src-bobby/hw-block/hwSerial.c **** 	if(c != -1)
 1718               		.loc 1 254 0
 1719 05b2 8F3F      		cpi r24,-1
 1720 05b4 2FEF      		ldi r18,-1
 1721 05b6 9207      		cpc r25,r18
 1722 05b8 01F0      		breq .L62
 255:/Users/pthalamy/Studies/CMU/benchmark/build/src-bobby/hw-block/hwSerial.c **** 	{
 256:/Users/pthalamy/Studies/CMU/benchmark/build/src-bobby/hw-block/hwSerial.c **** 		USARTD0.DATA = c;
 1723               		.loc 1 256 0
 1724 05ba 8093 A009 		sts 2464,r24
 1725               	.L62:
 1726               	/* epilogue start */
 257:/Users/pthalamy/Studies/CMU/benchmark/build/src-bobby/hw-block/hwSerial.c **** 	}
 258:/Users/pthalamy/Studies/CMU/benchmark/build/src-bobby/hw-block/hwSerial.c **** }
 1727               		.loc 1 258 0
 1728 05be FF91      		pop r31
 1729 05c0 EF91      		pop r30
 1730 05c2 BF91      		pop r27
 1731 05c4 AF91      		pop r26
 1732 05c6 9F91      		pop r25
 1733 05c8 8F91      		pop r24
 1734               	.LVL54:
 1735 05ca 7F91      		pop r23
 1736 05cc 6F91      		pop r22
 1737 05ce 5F91      		pop r21
 1738 05d0 4F91      		pop r20
 1739 05d2 3F91      		pop r19
 1740 05d4 2F91      		pop r18
 1741 05d6 0F90      		pop r0
 1742 05d8 0BBE      		out __RAMPZ__,r0
 1743 05da 0F90      		pop r0
 1744 05dc 0FBE      		out __SREG__,r0
 1745 05de 0F90      		pop r0
 1746 05e0 1F90      		pop r1
 1747 05e2 1895      		reti
 1748               		.cfi_endproc
 1749               	.LFE24:
 1751               		.comm	hwPort,18,1
 1752               	.Letext0:
 1753               		.file 2 "/usr/local/Cellar/avr-gcc/4.7.2/lib/gcc/avr/4.7.2/../../../../avr/include/stdint.h"
 1754               		.file 3 "/usr/local/Cellar/avr-gcc/4.7.2/lib/gcc/avr/4.7.2/../../../../avr/include/avr/iox256a3.h"
 1755               		.file 4 "/Users/pthalamy/Studies/CMU/benchmark/build/src-bobby/system/defs.bbh"
 1756               		.file 5 "/Users/pthalamy/Studies/CMU/benchmark/build/src-bobby/system/circ_buffer.bbh"
 1757               		.file 6 "/Users/pthalamy/Studies/CMU/benchmark/build/src-bobby/system/handler.bbh"
 1758               		.file 7 "/Users/pthalamy/Studies/CMU/benchmark/build/src-bobby/system/memory.bbh"
 1759               		.file 8 "/Users/pthalamy/Studies/CMU/benchmark/build/src-bobby/system/hardwaretime.bbh"
 1760               		.file 9 "/Users/pthalamy/Studies/CMU/benchmark/build/src-bobby/system/queues.bbh"
 1761               		.file 10 "/Users/pthalamy/Studies/CMU/benchmark/build/src-bobby/system/serial.bbh"