   1               		.file	"soft_uart2.c"
   2               	__SP_H__ = 0x3e
   3               	__SP_L__ = 0x3d
   4               	__SREG__ = 0x3f
   5               	__RAMPZ__ = 0x3b
   6               	__CCP__ = 0x34
   7               	__tmp_reg__ = 0
   8               	__zero_reg__ = 1
   9               		.text
  10               	.Ltext0:
  11               		.cfi_sections	.debug_frame
  12               	.global	timer_set
  14               	timer_set:
  15               	.LFB12:
  16               		.file 1 "/Users/pthalamy/Studies/CMU/benchmark/build/src-bobby/hw-block/soft_uart2.c"
   1:/Users/pthalamy/Studies/CMU/benchmark/build/src-bobby/hw-block/soft_uart2.c **** #include "soft_uart2.h"
   2:/Users/pthalamy/Studies/CMU/benchmark/build/src-bobby/hw-block/soft_uart2.c **** 
   3:/Users/pthalamy/Studies/CMU/benchmark/build/src-bobby/hw-block/soft_uart2.c **** #include "../system/handler.h"
   4:/Users/pthalamy/Studies/CMU/benchmark/build/src-bobby/hw-block/soft_uart2.c **** 
   5:/Users/pthalamy/Studies/CMU/benchmark/build/src-bobby/hw-block/soft_uart2.c **** soft_uart_t soft_uart[NUM_SOFTWARE_UARTS];
   6:/Users/pthalamy/Studies/CMU/benchmark/build/src-bobby/hw-block/soft_uart2.c **** 
   7:/Users/pthalamy/Studies/CMU/benchmark/build/src-bobby/hw-block/soft_uart2.c **** /*
   8:/Users/pthalamy/Studies/CMU/benchmark/build/src-bobby/hw-block/soft_uart2.c **** void timer_isr(soft_uart_t * uart)
   9:/Users/pthalamy/Studies/CMU/benchmark/build/src-bobby/hw-block/soft_uart2.c **** {
  10:/Users/pthalamy/Studies/CMU/benchmark/build/src-bobby/hw-block/soft_uart2.c **** 	char			start_bit, flag_in;
  11:/Users/pthalamy/Studies/CMU/benchmark/build/src-bobby/hw-block/soft_uart2.c **** 	
  12:/Users/pthalamy/Studies/CMU/benchmark/build/src-bobby/hw-block/soft_uart2.c **** //	uart->timer1->PER = 93;
  13:/Users/pthalamy/Studies/CMU/benchmark/build/src-bobby/hw-block/soft_uart2.c **** 
  14:/Users/pthalamy/Studies/CMU/benchmark/build/src-bobby/hw-block/soft_uart2.c **** // Transmitter Section
  15:/Users/pthalamy/Studies/CMU/benchmark/build/src-bobby/hw-block/soft_uart2.c **** 	if ( uart->flag_tx_ready )
  16:/Users/pthalamy/Studies/CMU/benchmark/build/src-bobby/hw-block/soft_uart2.c **** 		{
  17:/Users/pthalamy/Studies/CMU/benchmark/build/src-bobby/hw-block/soft_uart2.c **** 		if ( --(uart->timer_tx_ctr) <= 0 )
  18:/Users/pthalamy/Studies/CMU/benchmark/build/src-bobby/hw-block/soft_uart2.c **** 			{
  19:/Users/pthalamy/Studies/CMU/benchmark/build/src-bobby/hw-block/soft_uart2.c **** 			//mask = (uart->internal_tx_buffer) & 0x01;
  20:/Users/pthalamy/Studies/CMU/benchmark/build/src-bobby/hw-block/soft_uart2.c **** 			//(uart->internal_tx_buffer) >>= 1;
  21:/Users/pthalamy/Studies/CMU/benchmark/build/src-bobby/hw-block/soft_uart2.c **** 			if ( ((uart->internal_tx_buffer) & 0x0001) == 0x01)
  22:/Users/pthalamy/Studies/CMU/benchmark/build/src-bobby/hw-block/soft_uart2.c **** 				{
  23:/Users/pthalamy/Studies/CMU/benchmark/build/src-bobby/hw-block/soft_uart2.c **** 				SET_TX_PIN_HIGH(uart);
  24:/Users/pthalamy/Studies/CMU/benchmark/build/src-bobby/hw-block/soft_uart2.c **** 				}
  25:/Users/pthalamy/Studies/CMU/benchmark/build/src-bobby/hw-block/soft_uart2.c **** 			else
  26:/Users/pthalamy/Studies/CMU/benchmark/build/src-bobby/hw-block/soft_uart2.c **** 				{
  27:/Users/pthalamy/Studies/CMU/benchmark/build/src-bobby/hw-block/soft_uart2.c **** 				SET_TX_PIN_LOW(uart);
  28:/Users/pthalamy/Studies/CMU/benchmark/build/src-bobby/hw-block/soft_uart2.c **** 				}
  29:/Users/pthalamy/Studies/CMU/benchmark/build/src-bobby/hw-block/soft_uart2.c **** 				
  30:/Users/pthalamy/Studies/CMU/benchmark/build/src-bobby/hw-block/soft_uart2.c **** 			uart->internal_tx_buffer >>= 1;
  31:/Users/pthalamy/Studies/CMU/benchmark/build/src-bobby/hw-block/soft_uart2.c **** 			uart->timer_tx_ctr = 3;
  32:/Users/pthalamy/Studies/CMU/benchmark/build/src-bobby/hw-block/soft_uart2.c **** 			if ( --(uart->bits_left_in_tx) <= 0 )
  33:/Users/pthalamy/Studies/CMU/benchmark/build/src-bobby/hw-block/soft_uart2.c **** 				{
  34:/Users/pthalamy/Studies/CMU/benchmark/build/src-bobby/hw-block/soft_uart2.c **** 					uart->flag_tx_ready = FALSE;
  35:/Users/pthalamy/Studies/CMU/benchmark/build/src-bobby/hw-block/soft_uart2.c **** 					SET_TX_PIN_HIGH(uart);	
  36:/Users/pthalamy/Studies/CMU/benchmark/build/src-bobby/hw-block/soft_uart2.c **** 					TriggerHandler(SYSTEM_SOFT_UART_UPDATE);		
  37:/Users/pthalamy/Studies/CMU/benchmark/build/src-bobby/hw-block/soft_uart2.c **** 				}
  38:/Users/pthalamy/Studies/CMU/benchmark/build/src-bobby/hw-block/soft_uart2.c **** 			}
  39:/Users/pthalamy/Studies/CMU/benchmark/build/src-bobby/hw-block/soft_uart2.c **** 		}
  40:/Users/pthalamy/Studies/CMU/benchmark/build/src-bobby/hw-block/soft_uart2.c **** // Receiver Section
  41:/Users/pthalamy/Studies/CMU/benchmark/build/src-bobby/hw-block/soft_uart2.c **** 	if ( uart->flag_rx_off==FALSE )
  42:/Users/pthalamy/Studies/CMU/benchmark/build/src-bobby/hw-block/soft_uart2.c **** 		{
  43:/Users/pthalamy/Studies/CMU/benchmark/build/src-bobby/hw-block/soft_uart2.c **** 		if ( uart->flag_rx_waiting_for_stop_bit )
  44:/Users/pthalamy/Studies/CMU/benchmark/build/src-bobby/hw-block/soft_uart2.c **** 			{
  45:/Users/pthalamy/Studies/CMU/benchmark/build/src-bobby/hw-block/soft_uart2.c **** 			if ( --(uart->timer_rx_ctr) <=0 )
  46:/Users/pthalamy/Studies/CMU/benchmark/build/src-bobby/hw-block/soft_uart2.c **** 				{
  47:/Users/pthalamy/Studies/CMU/benchmark/build/src-bobby/hw-block/soft_uart2.c **** 				uart->flag_rx_waiting_for_stop_bit = FALSE;
  48:/Users/pthalamy/Studies/CMU/benchmark/build/src-bobby/hw-block/soft_uart2.c **** 				uart->flag_rx_ready = FALSE;
  49:/Users/pthalamy/Studies/CMU/benchmark/build/src-bobby/hw-block/soft_uart2.c **** 				uart->internal_rx_buffer &= 0xFF;
  50:/Users/pthalamy/Studies/CMU/benchmark/build/src-bobby/hw-block/soft_uart2.c **** 				if ( uart->internal_rx_buffer!=0xC2 )
  51:/Users/pthalamy/Studies/CMU/benchmark/build/src-bobby/hw-block/soft_uart2.c **** 					{
  52:/Users/pthalamy/Studies/CMU/benchmark/build/src-bobby/hw-block/soft_uart2.c **** 					(uart->inbuf)[uart->qin] = uart->internal_rx_buffer;
  53:/Users/pthalamy/Studies/CMU/benchmark/build/src-bobby/hw-block/soft_uart2.c **** 					TriggerHandler(SYSTEM_SOFT_UART_UPDATE);
  54:/Users/pthalamy/Studies/CMU/benchmark/build/src-bobby/hw-block/soft_uart2.c **** 					if ( ++(uart->qin)>=SOFT_IN_BUF_SIZE )
  55:/Users/pthalamy/Studies/CMU/benchmark/build/src-bobby/hw-block/soft_uart2.c **** 						{
  56:/Users/pthalamy/Studies/CMU/benchmark/build/src-bobby/hw-block/soft_uart2.c **** 						uart->qin = 0;
  57:/Users/pthalamy/Studies/CMU/benchmark/build/src-bobby/hw-block/soft_uart2.c **** 						}
  58:/Users/pthalamy/Studies/CMU/benchmark/build/src-bobby/hw-block/soft_uart2.c **** 					}
  59:/Users/pthalamy/Studies/CMU/benchmark/build/src-bobby/hw-block/soft_uart2.c **** 				}
  60:/Users/pthalamy/Studies/CMU/benchmark/build/src-bobby/hw-block/soft_uart2.c **** 			}
  61:/Users/pthalamy/Studies/CMU/benchmark/build/src-bobby/hw-block/soft_uart2.c **** 		else		// rx_test_busy
  62:/Users/pthalamy/Studies/CMU/benchmark/build/src-bobby/hw-block/soft_uart2.c **** 			{
  63:/Users/pthalamy/Studies/CMU/benchmark/build/src-bobby/hw-block/soft_uart2.c **** 			if ( uart->flag_rx_ready==FALSE )
  64:/Users/pthalamy/Studies/CMU/benchmark/build/src-bobby/hw-block/soft_uart2.c **** 				{
  65:/Users/pthalamy/Studies/CMU/benchmark/build/src-bobby/hw-block/soft_uart2.c **** 					start_bit = GET_RX_PIN_STATUS(uart);
  66:/Users/pthalamy/Studies/CMU/benchmark/build/src-bobby/hw-block/soft_uart2.c **** // Test for Start Bit
  67:/Users/pthalamy/Studies/CMU/benchmark/build/src-bobby/hw-block/soft_uart2.c **** 				if ( start_bit==0 )
  68:/Users/pthalamy/Studies/CMU/benchmark/build/src-bobby/hw-block/soft_uart2.c **** 					{
  69:/Users/pthalamy/Studies/CMU/benchmark/build/src-bobby/hw-block/soft_uart2.c **** 					uart->flag_rx_ready = TRUE;
  70:/Users/pthalamy/Studies/CMU/benchmark/build/src-bobby/hw-block/soft_uart2.c **** 					uart->internal_rx_buffer = 0;
  71:/Users/pthalamy/Studies/CMU/benchmark/build/src-bobby/hw-block/soft_uart2.c **** 					uart->timer_rx_ctr = 4;
  72:/Users/pthalamy/Studies/CMU/benchmark/build/src-bobby/hw-block/soft_uart2.c **** 					uart->bits_left_in_rx = uart->rx_num_of_bits;
  73:/Users/pthalamy/Studies/CMU/benchmark/build/src-bobby/hw-block/soft_uart2.c **** 					uart->rx_mask = 1;
  74:/Users/pthalamy/Studies/CMU/benchmark/build/src-bobby/hw-block/soft_uart2.c **** 					}
  75:/Users/pthalamy/Studies/CMU/benchmark/build/src-bobby/hw-block/soft_uart2.c **** 				}
  76:/Users/pthalamy/Studies/CMU/benchmark/build/src-bobby/hw-block/soft_uart2.c **** 			else	// rx_busy
  77:/Users/pthalamy/Studies/CMU/benchmark/build/src-bobby/hw-block/soft_uart2.c **** 				{
  78:/Users/pthalamy/Studies/CMU/benchmark/build/src-bobby/hw-block/soft_uart2.c **** 				if ( --(uart->timer_rx_ctr)<=0 )
  79:/Users/pthalamy/Studies/CMU/benchmark/build/src-bobby/hw-block/soft_uart2.c **** 					{				// rcv
  80:/Users/pthalamy/Studies/CMU/benchmark/build/src-bobby/hw-block/soft_uart2.c **** 					uart->timer_rx_ctr = 3;
  81:/Users/pthalamy/Studies/CMU/benchmark/build/src-bobby/hw-block/soft_uart2.c **** 					flag_in = GET_RX_PIN_STATUS(uart);
  82:/Users/pthalamy/Studies/CMU/benchmark/build/src-bobby/hw-block/soft_uart2.c **** 					if ( flag_in )
  83:/Users/pthalamy/Studies/CMU/benchmark/build/src-bobby/hw-block/soft_uart2.c **** 						{
  84:/Users/pthalamy/Studies/CMU/benchmark/build/src-bobby/hw-block/soft_uart2.c **** 						(uart->internal_rx_buffer) |= uart->rx_mask;
  85:/Users/pthalamy/Studies/CMU/benchmark/build/src-bobby/hw-block/soft_uart2.c **** 						}
  86:/Users/pthalamy/Studies/CMU/benchmark/build/src-bobby/hw-block/soft_uart2.c **** 					uart->rx_mask <<= 1;
  87:/Users/pthalamy/Studies/CMU/benchmark/build/src-bobby/hw-block/soft_uart2.c **** 					if ( --(uart->bits_left_in_rx)<=0 )
  88:/Users/pthalamy/Studies/CMU/benchmark/build/src-bobby/hw-block/soft_uart2.c **** 						{
  89:/Users/pthalamy/Studies/CMU/benchmark/build/src-bobby/hw-block/soft_uart2.c **** 						uart->flag_rx_waiting_for_stop_bit = TRUE;
  90:/Users/pthalamy/Studies/CMU/benchmark/build/src-bobby/hw-block/soft_uart2.c **** 						}
  91:/Users/pthalamy/Studies/CMU/benchmark/build/src-bobby/hw-block/soft_uart2.c **** 					}
  92:/Users/pthalamy/Studies/CMU/benchmark/build/src-bobby/hw-block/soft_uart2.c **** 				}
  93:/Users/pthalamy/Studies/CMU/benchmark/build/src-bobby/hw-block/soft_uart2.c **** 			}
  94:/Users/pthalamy/Studies/CMU/benchmark/build/src-bobby/hw-block/soft_uart2.c **** 		}
  95:/Users/pthalamy/Studies/CMU/benchmark/build/src-bobby/hw-block/soft_uart2.c **** 	}
  96:/Users/pthalamy/Studies/CMU/benchmark/build/src-bobby/hw-block/soft_uart2.c **** */
  97:/Users/pthalamy/Studies/CMU/benchmark/build/src-bobby/hw-block/soft_uart2.c **** 
  98:/Users/pthalamy/Studies/CMU/benchmark/build/src-bobby/hw-block/soft_uart2.c **** void timer_set( uint32_t bps, TC0_t * tx_timer, TC1_t * rx_timer)
  99:/Users/pthalamy/Studies/CMU/benchmark/build/src-bobby/hw-block/soft_uart2.c **** {
  17               		.loc 1 99 0
  18               		.cfi_startproc
  19               	.LVL0:
  20 0000 6F92      		push r6
  21               	.LCFI0:
  22               		.cfi_def_cfa_offset 4
  23               		.cfi_offset 6, -3
  24 0002 7F92      		push r7
  25               	.LCFI1:
  26               		.cfi_def_cfa_offset 5
  27               		.cfi_offset 7, -4
  28 0004 8F92      		push r8
  29               	.LCFI2:
  30               		.cfi_def_cfa_offset 6
  31               		.cfi_offset 8, -5
  32 0006 9F92      		push r9
  33               	.LCFI3:
  34               		.cfi_def_cfa_offset 7
  35               		.cfi_offset 9, -6
  36 0008 AF92      		push r10
  37               	.LCFI4:
  38               		.cfi_def_cfa_offset 8
  39               		.cfi_offset 10, -7
  40 000a BF92      		push r11
  41               	.LCFI5:
  42               		.cfi_def_cfa_offset 9
  43               		.cfi_offset 11, -8
  44 000c CF92      		push r12
  45               	.LCFI6:
  46               		.cfi_def_cfa_offset 10
  47               		.cfi_offset 12, -9
  48 000e DF92      		push r13
  49               	.LCFI7:
  50               		.cfi_def_cfa_offset 11
  51               		.cfi_offset 13, -10
  52 0010 EF92      		push r14
  53               	.LCFI8:
  54               		.cfi_def_cfa_offset 12
  55               		.cfi_offset 14, -11
  56 0012 FF92      		push r15
  57               	.LCFI9:
  58               		.cfi_def_cfa_offset 13
  59               		.cfi_offset 15, -12
  60 0014 0F93      		push r16
  61               	.LCFI10:
  62               		.cfi_def_cfa_offset 14
  63               		.cfi_offset 16, -13
  64 0016 1F93      		push r17
  65               	.LCFI11:
  66               		.cfi_def_cfa_offset 15
  67               		.cfi_offset 17, -14
  68 0018 CF93      		push r28
  69               	.LCFI12:
  70               		.cfi_def_cfa_offset 16
  71               		.cfi_offset 28, -15
  72 001a DF93      		push r29
  73               	.LCFI13:
  74               		.cfi_def_cfa_offset 17
  75               		.cfi_offset 29, -16
  76               	/* prologue: function */
  77               	/* frame size = 0 */
  78               	/* stack size = 14 */
  79               	.L__stack_usage = 14
  80 001c 6B01      		movw r12,r22
  81 001e 7C01      		movw r14,r24
  82 0020 8A01      		movw r16,r20
  83 0022 E901      		movw r28,r18
 100:/Users/pthalamy/Studies/CMU/benchmark/build/src-bobby/hw-block/soft_uart2.c **** 	uint16_t per;
 101:/Users/pthalamy/Studies/CMU/benchmark/build/src-bobby/hw-block/soft_uart2.c **** 	
 102:/Users/pthalamy/Studies/CMU/benchmark/build/src-bobby/hw-block/soft_uart2.c **** 	per = ((uint32_t)F_CPU / (bps));
  84               		.loc 1 102 0
  85 0024 812C      		mov r8,__zero_reg__
  86 0026 88E4      		ldi r24,lo8(72)
  87 0028 982E      		mov r9,r24
  88 002a 88EE      		ldi r24,lo8(-24)
  89 002c A82E      		mov r10,r24
  90 002e BB24      		clr r11
  91 0030 B394      		inc r11
  92 0032 C501      		movw r24,r10
  93 0034 B401      		movw r22,r8
  94               	.LVL1:
  95 0036 A701      		movw r20,r14
  96 0038 9601      		movw r18,r12
  97               	.LVL2:
  98 003a 0E94 0000 		call __udivmodsi4
 103:/Users/pthalamy/Studies/CMU/benchmark/build/src-bobby/hw-block/soft_uart2.c **** 
 104:/Users/pthalamy/Studies/CMU/benchmark/build/src-bobby/hw-block/soft_uart2.c **** 	tx_timer->INTCTRLA = TC_OVFINTLVL_HI_gc;
  99               		.loc 1 104 0
 100 003e 93E0      		ldi r25,lo8(3)
 101 0040 692E      		mov r6,r25
 102 0042 F801      		movw r30,r16
 103 0044 6682      		std Z+6,r6
 105:/Users/pthalamy/Studies/CMU/benchmark/build/src-bobby/hw-block/soft_uart2.c **** 	tx_timer->PER = per;
 104               		.loc 1 105 0
 105 0046 26A3      		std Z+38,r18
 106 0048 37A3      		std Z+39,r19
 106:/Users/pthalamy/Studies/CMU/benchmark/build/src-bobby/hw-block/soft_uart2.c **** 	tx_timer->CTRLA = TC_CLKSEL_DIV1_gc;
 107               		.loc 1 106 0
 108 004a 7724      		clr r7
 109 004c 7394      		inc r7
 110 004e 7082      		st Z,r7
 107:/Users/pthalamy/Studies/CMU/benchmark/build/src-bobby/hw-block/soft_uart2.c **** 	
 108:/Users/pthalamy/Studies/CMU/benchmark/build/src-bobby/hw-block/soft_uart2.c **** //	printf("TCE0 set to %x %x %x\r\n",tx_timer->INTCTRLA, tx_timer->PER, tx_timer->CTRLA);
 109:/Users/pthalamy/Studies/CMU/benchmark/build/src-bobby/hw-block/soft_uart2.c **** 	
 110:/Users/pthalamy/Studies/CMU/benchmark/build/src-bobby/hw-block/soft_uart2.c **** 	per = ((uint32_t)F_CPU / (bps*3));	
 111               		.loc 1 110 0
 112 0050 A701      		movw r20,r14
 113 0052 9601      		movw r18,r12
 114 0054 220F      		lsl r18
 115 0056 331F      		rol r19
 116 0058 441F      		rol r20
 117 005a 551F      		rol r21
 118 005c 2C0D      		add r18,r12
 119 005e 3D1D      		adc r19,r13
 120 0060 4E1D      		adc r20,r14
 121 0062 5F1D      		adc r21,r15
 122 0064 C501      		movw r24,r10
 123 0066 B401      		movw r22,r8
 124 0068 0E94 0000 		call __udivmodsi4
 111:/Users/pthalamy/Studies/CMU/benchmark/build/src-bobby/hw-block/soft_uart2.c **** 	//per = 31; // bps*9
 112:/Users/pthalamy/Studies/CMU/benchmark/build/src-bobby/hw-block/soft_uart2.c **** 	
 113:/Users/pthalamy/Studies/CMU/benchmark/build/src-bobby/hw-block/soft_uart2.c **** 	rx_timer->INTCTRLA = TC_OVFINTLVL_HI_gc;
 125               		.loc 1 113 0
 126 006c 6E82      		std Y+6,r6
 114:/Users/pthalamy/Studies/CMU/benchmark/build/src-bobby/hw-block/soft_uart2.c **** 	rx_timer->PER = per;
 127               		.loc 1 114 0
 128 006e 2EA3      		std Y+38,r18
 129 0070 3FA3      		std Y+39,r19
 115:/Users/pthalamy/Studies/CMU/benchmark/build/src-bobby/hw-block/soft_uart2.c **** 	rx_timer->CTRLA = TC_CLKSEL_DIV1_gc;	
 130               		.loc 1 115 0
 131 0072 7882      		st Y,r7
 132               	/* epilogue start */
 116:/Users/pthalamy/Studies/CMU/benchmark/build/src-bobby/hw-block/soft_uart2.c **** }
 133               		.loc 1 116 0
 134 0074 DF91      		pop r29
 135 0076 CF91      		pop r28
 136               	.LVL3:
 137 0078 1F91      		pop r17
 138 007a 0F91      		pop r16
 139 007c FF90      		pop r15
 140 007e EF90      		pop r14
 141 0080 DF90      		pop r13
 142 0082 CF90      		pop r12
 143               	.LVL4:
 144 0084 BF90      		pop r11
 145 0086 AF90      		pop r10
 146 0088 9F90      		pop r9
 147 008a 8F90      		pop r8
 148 008c 7F90      		pop r7
 149 008e 6F90      		pop r6
 150 0090 0895      		ret
 151               		.cfi_endproc
 152               	.LFE12:
 154               	.global	configure_soft_uart
 156               	configure_soft_uart:
 157               	.LFB13:
 117:/Users/pthalamy/Studies/CMU/benchmark/build/src-bobby/hw-block/soft_uart2.c **** 
 118:/Users/pthalamy/Studies/CMU/benchmark/build/src-bobby/hw-block/soft_uart2.c **** void configure_soft_uart(soft_uart_t * uart, CircBuf * ctx, CircBuf * crx)
 119:/Users/pthalamy/Studies/CMU/benchmark/build/src-bobby/hw-block/soft_uart2.c **** {
 158               		.loc 1 119 0
 159               		.cfi_startproc
 160               	.LVL5:
 161               	/* prologue: function */
 162               	/* frame size = 0 */
 163               	/* stack size = 0 */
 164               	.L__stack_usage = 0
 165 0092 FC01      		movw r30,r24
 120:/Users/pthalamy/Studies/CMU/benchmark/build/src-bobby/hw-block/soft_uart2.c **** 	uart->rx = crx;
 166               		.loc 1 120 0
 167 0094 4087      		std Z+8,r20
 168 0096 5187      		std Z+9,r21
 121:/Users/pthalamy/Studies/CMU/benchmark/build/src-bobby/hw-block/soft_uart2.c **** 	uart->tx = ctx;
 169               		.loc 1 121 0
 170 0098 6683      		std Z+6,r22
 171 009a 7783      		std Z+7,r23
 122:/Users/pthalamy/Studies/CMU/benchmark/build/src-bobby/hw-block/soft_uart2.c **** 	uart->internal_rx_buffer =  0;
 172               		.loc 1 122 0
 173 009c 1082      		st Z,__zero_reg__
 123:/Users/pthalamy/Studies/CMU/benchmark/build/src-bobby/hw-block/soft_uart2.c **** 	uart->internal_tx_buffer  = 0;
 174               		.loc 1 123 0
 175 009e 1182      		std Z+1,__zero_reg__
 176 00a0 1282      		std Z+2,__zero_reg__
 177 00a2 0895      		ret
 178               		.cfi_endproc
 179               	.LFE13:
 181               	.global	init_soft_uart
 183               	init_soft_uart:
 184               	.LFB14:
 124:/Users/pthalamy/Studies/CMU/benchmark/build/src-bobby/hw-block/soft_uart2.c **** }
 125:/Users/pthalamy/Studies/CMU/benchmark/build/src-bobby/hw-block/soft_uart2.c **** 
 126:/Users/pthalamy/Studies/CMU/benchmark/build/src-bobby/hw-block/soft_uart2.c **** void init_soft_uart()
 127:/Users/pthalamy/Studies/CMU/benchmark/build/src-bobby/hw-block/soft_uart2.c **** {
 185               		.loc 1 127 0
 186               		.cfi_startproc
 187               	/* prologue: function */
 188               	/* frame size = 0 */
 189               	/* stack size = 0 */
 190               	.L__stack_usage = 0
 128:/Users/pthalamy/Studies/CMU/benchmark/build/src-bobby/hw-block/soft_uart2.c **** 	PORTD.OUTSET = PIN5_bm | PIN6_bm; // set tx output high (idle)
 191               		.loc 1 128 0
 192 00a4 E0E6      		ldi r30,lo8(96)
 193 00a6 F6E0      		ldi r31,lo8(6)
 194 00a8 80E6      		ldi r24,lo8(96)
 195 00aa 8583      		std Z+5,r24
 129:/Users/pthalamy/Studies/CMU/benchmark/build/src-bobby/hw-block/soft_uart2.c **** 	PORTD.DIRSET = PIN5_bm | PIN6_bm; // tx pins as output
 196               		.loc 1 129 0
 197 00ac 8183      		std Z+1,r24
 130:/Users/pthalamy/Studies/CMU/benchmark/build/src-bobby/hw-block/soft_uart2.c **** 	PORTD.DIRCLR = PIN4_bm | PIN7_bm; // rx pins as input
 198               		.loc 1 130 0
 199 00ae 80E9      		ldi r24,lo8(-112)
 200 00b0 8283      		std Z+2,r24
 131:/Users/pthalamy/Studies/CMU/benchmark/build/src-bobby/hw-block/soft_uart2.c **** 	
 132:/Users/pthalamy/Studies/CMU/benchmark/build/src-bobby/hw-block/soft_uart2.c **** 	PORTD.PIN4CTRL |= PORT_OPC_PULLUP_gc;	// set pullups on rx lines to prevent floating noise
 201               		.loc 1 132 0
 202 00b2 8489      		ldd r24,Z+20
 203 00b4 8861      		ori r24,lo8(24)
 204 00b6 848B      		std Z+20,r24
 133:/Users/pthalamy/Studies/CMU/benchmark/build/src-bobby/hw-block/soft_uart2.c **** 	PORTD.PIN7CTRL |= PORT_OPC_PULLUP_gc;	
 205               		.loc 1 133 0
 206 00b8 8789      		ldd r24,Z+23
 207 00ba 8861      		ori r24,lo8(24)
 208 00bc 878B      		std Z+23,r24
 134:/Users/pthalamy/Studies/CMU/benchmark/build/src-bobby/hw-block/soft_uart2.c **** 
 135:/Users/pthalamy/Studies/CMU/benchmark/build/src-bobby/hw-block/soft_uart2.c **** 	soft_uart[1].rx_state = SU_RX_IDLE;
 209               		.loc 1 135 0
 210 00be 1092 0000 		sts soft_uart+14,__zero_reg__
 211               	.LVL6:
 212               	.LBB6:
 213               	.LBB7:
 104:/Users/pthalamy/Studies/CMU/benchmark/build/src-bobby/hw-block/soft_uart2.c **** 	tx_timer->INTCTRLA = TC_OVFINTLVL_HI_gc;
 214               		.loc 1 104 0
 215 00c2 E0E0      		ldi r30,0
 216 00c4 FAE0      		ldi r31,lo8(10)
 217 00c6 33E0      		ldi r19,lo8(3)
 218 00c8 3683      		std Z+6,r19
 105:/Users/pthalamy/Studies/CMU/benchmark/build/src-bobby/hw-block/soft_uart2.c **** 	tx_timer->PER = per;
 219               		.loc 1 105 0
 220 00ca 81E4      		ldi r24,lo8(65)
 221 00cc 93E0      		ldi r25,lo8(3)
 222 00ce 86A3      		std Z+38,r24
 223 00d0 97A3      		std Z+39,r25
 106:/Users/pthalamy/Studies/CMU/benchmark/build/src-bobby/hw-block/soft_uart2.c **** 	tx_timer->CTRLA = TC_CLKSEL_DIV1_gc;
 224               		.loc 1 106 0
 225 00d2 21E0      		ldi r18,lo8(1)
 226 00d4 2083      		st Z,r18
 227               	.LVL7:
 113:/Users/pthalamy/Studies/CMU/benchmark/build/src-bobby/hw-block/soft_uart2.c **** 	rx_timer->INTCTRLA = TC_OVFINTLVL_HI_gc;
 228               		.loc 1 113 0
 229 00d6 E0E4      		ldi r30,lo8(64)
 230 00d8 F9E0      		ldi r31,lo8(9)
 231 00da 3683      		std Z+6,r19
 114:/Users/pthalamy/Studies/CMU/benchmark/build/src-bobby/hw-block/soft_uart2.c **** 	rx_timer->PER = per;
 232               		.loc 1 114 0
 233 00dc 85E1      		ldi r24,lo8(21)
 234 00de 91E0      		ldi r25,lo8(1)
 235 00e0 86A3      		std Z+38,r24
 236 00e2 97A3      		std Z+39,r25
 115:/Users/pthalamy/Studies/CMU/benchmark/build/src-bobby/hw-block/soft_uart2.c **** 	rx_timer->CTRLA = TC_CLKSEL_DIV1_gc;	
 237               		.loc 1 115 0
 238 00e4 2083      		st Z,r18
 239 00e6 0895      		ret
 240               	.LBE7:
 241               	.LBE6:
 242               		.cfi_endproc
 243               	.LFE14:
 245               	.global	su_getchar
 247               	su_getchar:
 248               	.LFB15:
 136:/Users/pthalamy/Studies/CMU/benchmark/build/src-bobby/hw-block/soft_uart2.c **** 
 137:/Users/pthalamy/Studies/CMU/benchmark/build/src-bobby/hw-block/soft_uart2.c **** 	timer_set( BAUD_RATE, &TCE0, &TCD1);	
 138:/Users/pthalamy/Studies/CMU/benchmark/build/src-bobby/hw-block/soft_uart2.c **** }
 139:/Users/pthalamy/Studies/CMU/benchmark/build/src-bobby/hw-block/soft_uart2.c **** 
 140:/Users/pthalamy/Studies/CMU/benchmark/build/src-bobby/hw-block/soft_uart2.c **** int su_getchar(soft_uart_t * uart)
 141:/Users/pthalamy/Studies/CMU/benchmark/build/src-bobby/hw-block/soft_uart2.c **** {
 249               		.loc 1 141 0
 250               		.cfi_startproc
 251               	.LVL8:
 252 00e8 CF93      		push r28
 253               	.LCFI14:
 254               		.cfi_def_cfa_offset 4
 255               		.cfi_offset 28, -3
 256 00ea DF93      		push r29
 257               	.LCFI15:
 258               		.cfi_def_cfa_offset 5
 259               		.cfi_offset 29, -4
 260               	/* prologue: function */
 261               	/* frame size = 0 */
 262               	/* stack size = 2 */
 263               	.L__stack_usage = 2
 264 00ec EC01      		movw r28,r24
 142:/Users/pthalamy/Studies/CMU/benchmark/build/src-bobby/hw-block/soft_uart2.c **** 	char		ch;
 143:/Users/pthalamy/Studies/CMU/benchmark/build/src-bobby/hw-block/soft_uart2.c **** 
 144:/Users/pthalamy/Studies/CMU/benchmark/build/src-bobby/hw-block/soft_uart2.c **** 	if(isEmpty((uart->rx)))
 265               		.loc 1 144 0
 266 00ee 8885      		ldd r24,Y+8
 267 00f0 9985      		ldd r25,Y+9
 268               	.LVL9:
 269 00f2 0E94 0000 		call isEmpty
 270               	.LVL10:
 271 00f6 8111      		cpse r24,__zero_reg__
 272 00f8 00C0      		rjmp .L6
 145:/Users/pthalamy/Studies/CMU/benchmark/build/src-bobby/hw-block/soft_uart2.c **** 	{
 146:/Users/pthalamy/Studies/CMU/benchmark/build/src-bobby/hw-block/soft_uart2.c **** 		return -1;
 147:/Users/pthalamy/Studies/CMU/benchmark/build/src-bobby/hw-block/soft_uart2.c **** 	}
 148:/Users/pthalamy/Studies/CMU/benchmark/build/src-bobby/hw-block/soft_uart2.c **** 	else
 149:/Users/pthalamy/Studies/CMU/benchmark/build/src-bobby/hw-block/soft_uart2.c **** 	{	
 150:/Users/pthalamy/Studies/CMU/benchmark/build/src-bobby/hw-block/soft_uart2.c **** 		ch = pop((uart->rx));
 273               		.loc 1 150 0
 274 00fa 8885      		ldd r24,Y+8
 275 00fc 9985      		ldd r25,Y+9
 276 00fe 0E94 0000 		call pop
 277               	.LVL11:
 278 0102 9C01      		movw r18,r24
 279               	.LVL12:
 151:/Users/pthalamy/Studies/CMU/benchmark/build/src-bobby/hw-block/soft_uart2.c **** 		return( ch );
 280               		.loc 1 151 0
 281 0104 3327      		clr r19
 282               	.LVL13:
 283               	.L5:
 152:/Users/pthalamy/Studies/CMU/benchmark/build/src-bobby/hw-block/soft_uart2.c **** 	}
 153:/Users/pthalamy/Studies/CMU/benchmark/build/src-bobby/hw-block/soft_uart2.c **** }
 284               		.loc 1 153 0
 285 0106 C901      		movw r24,r18
 286               	/* epilogue start */
 287 0108 DF91      		pop r29
 288 010a CF91      		pop r28
 289               	.LVL14:
 290 010c 0895      		ret
 291               	.LVL15:
 292               	.L6:
 146:/Users/pthalamy/Studies/CMU/benchmark/build/src-bobby/hw-block/soft_uart2.c **** 		return -1;
 293               		.loc 1 146 0
 294 010e 2FEF      		ldi r18,lo8(-1)
 295 0110 3FEF      		ldi r19,lo8(-1)
 296 0112 00C0      		rjmp .L5
 297               		.cfi_endproc
 298               	.LFE15:
 300               	.global	set_tx_char
 302               	set_tx_char:
 303               	.LFB16:
 154:/Users/pthalamy/Studies/CMU/benchmark/build/src-bobby/hw-block/soft_uart2.c **** 
 155:/Users/pthalamy/Studies/CMU/benchmark/build/src-bobby/hw-block/soft_uart2.c **** void set_tx_char(int ch, soft_uart_t * uart)
 156:/Users/pthalamy/Studies/CMU/benchmark/build/src-bobby/hw-block/soft_uart2.c **** {
 304               		.loc 1 156 0
 305               		.cfi_startproc
 306               	.LVL16:
 307               	/* prologue: function */
 308               	/* frame size = 0 */
 309               	/* stack size = 0 */
 310               	.L__stack_usage = 0
 157:/Users/pthalamy/Studies/CMU/benchmark/build/src-bobby/hw-block/soft_uart2.c **** 	if(ch != -1)
 311               		.loc 1 157 0
 312 0114 8F3F      		cpi r24,-1
 313 0116 2FEF      		ldi r18,-1
 314 0118 9207      		cpc r25,r18
 315 011a 01F0      		breq .L8
 158:/Users/pthalamy/Studies/CMU/benchmark/build/src-bobby/hw-block/soft_uart2.c **** 	{
 159:/Users/pthalamy/Studies/CMU/benchmark/build/src-bobby/hw-block/soft_uart2.c **** 		uart->internal_tx_buffer = (ch << 1) | 0x200;
 316               		.loc 1 159 0
 317 011c 880F      		lsl r24
 318 011e 991F      		rol r25
 319               	.LVL17:
 320 0120 9260      		ori r25,2
 321 0122 FB01      		movw r30,r22
 322 0124 8183      		std Z+1,r24
 323 0126 9283      		std Z+2,r25
 324               	.L8:
 325 0128 0895      		ret
 326               		.cfi_endproc
 327               	.LFE16:
 329               	.global	su_putchar
 331               	su_putchar:
 332               	.LFB17:
 160:/Users/pthalamy/Studies/CMU/benchmark/build/src-bobby/hw-block/soft_uart2.c **** 	}
 161:/Users/pthalamy/Studies/CMU/benchmark/build/src-bobby/hw-block/soft_uart2.c **** }
 162:/Users/pthalamy/Studies/CMU/benchmark/build/src-bobby/hw-block/soft_uart2.c **** 
 163:/Users/pthalamy/Studies/CMU/benchmark/build/src-bobby/hw-block/soft_uart2.c **** void su_putchar( char ch, soft_uart_t * uart)
 164:/Users/pthalamy/Studies/CMU/benchmark/build/src-bobby/hw-block/soft_uart2.c **** {	
 333               		.loc 1 164 0
 334               		.cfi_startproc
 335               	.LVL18:
 336               	/* prologue: function */
 337               	/* frame size = 0 */
 338               	/* stack size = 0 */
 339               	.L__stack_usage = 0
 340 012a FB01      		movw r30,r22
 341               	.L14:
 165:/Users/pthalamy/Studies/CMU/benchmark/build/src-bobby/hw-block/soft_uart2.c **** 	while ( uart->internal_tx_buffer != 0 );
 342               		.loc 1 165 0 discriminator 1
 343 012c 2181      		ldd r18,Z+1
 344 012e 3281      		ldd r19,Z+2
 345 0130 232B      		or r18,r19
 346 0132 01F4      		brne .L14
 347               	.LVL19:
 166:/Users/pthalamy/Studies/CMU/benchmark/build/src-bobby/hw-block/soft_uart2.c **** 	
 167:/Users/pthalamy/Studies/CMU/benchmark/build/src-bobby/hw-block/soft_uart2.c **** 	set_tx_char(ch, uart);
 348               		.loc 1 167 0
 349 0134 90E0      		ldi r25,0
 350               	.LBB8:
 351               	.LBB9:
 159:/Users/pthalamy/Studies/CMU/benchmark/build/src-bobby/hw-block/soft_uart2.c **** 		uart->internal_tx_buffer = (ch << 1) | 0x200;
 352               		.loc 1 159 0
 353 0136 880F      		lsl r24
 354 0138 991F      		rol r25
 355               	.LVL20:
 356 013a 9260      		ori r25,2
 357 013c 8183      		std Z+1,r24
 358 013e 9283      		std Z+2,r25
 359 0140 0895      		ret
 360               	.LBE9:
 361               	.LBE8:
 362               		.cfi_endproc
 363               	.LFE17:
 365               	.global	kbhit
 367               	kbhit:
 368               	.LFB18:
 168:/Users/pthalamy/Studies/CMU/benchmark/build/src-bobby/hw-block/soft_uart2.c **** //	uart->user_tx_buffer = ch;
 169:/Users/pthalamy/Studies/CMU/benchmark/build/src-bobby/hw-block/soft_uart2.c **** 
 170:/Users/pthalamy/Studies/CMU/benchmark/build/src-bobby/hw-block/soft_uart2.c **** // invoke_UART_transmit
 171:/Users/pthalamy/Studies/CMU/benchmark/build/src-bobby/hw-block/soft_uart2.c **** //	uart->timer_tx_ctr = 3;
 172:/Users/pthalamy/Studies/CMU/benchmark/build/src-bobby/hw-block/soft_uart2.c **** //	uart->bits_left_in_tx = uart->tx_num_of_bits;
 173:/Users/pthalamy/Studies/CMU/benchmark/build/src-bobby/hw-block/soft_uart2.c **** 
 174:/Users/pthalamy/Studies/CMU/benchmark/build/src-bobby/hw-block/soft_uart2.c **** 	// insert start/stop bits around character
 175:/Users/pthalamy/Studies/CMU/benchmark/build/src-bobby/hw-block/soft_uart2.c **** 
 176:/Users/pthalamy/Studies/CMU/benchmark/build/src-bobby/hw-block/soft_uart2.c **** }
 177:/Users/pthalamy/Studies/CMU/benchmark/build/src-bobby/hw-block/soft_uart2.c **** 
 178:/Users/pthalamy/Studies/CMU/benchmark/build/src-bobby/hw-block/soft_uart2.c **** int kbhit( soft_uart_t * uart )
 179:/Users/pthalamy/Studies/CMU/benchmark/build/src-bobby/hw-block/soft_uart2.c **** {
 369               		.loc 1 179 0
 370               		.cfi_startproc
 371               	.LVL21:
 372               	/* prologue: function */
 373               	/* frame size = 0 */
 374               	/* stack size = 0 */
 375               	.L__stack_usage = 0
 180:/Users/pthalamy/Studies/CMU/benchmark/build/src-bobby/hw-block/soft_uart2.c **** 	return( !isEmpty(uart->rx));
 376               		.loc 1 180 0
 377 0142 FC01      		movw r30,r24
 378 0144 8085      		ldd r24,Z+8
 379 0146 9185      		ldd r25,Z+9
 380               	.LVL22:
 381 0148 0E94 0000 		call isEmpty
 382               	.LVL23:
 383 014c 21E0      		ldi r18,lo8(1)
 384 014e 30E0      		ldi r19,0
 385 0150 8823      		tst r24
 386 0152 01F0      		breq .L17
 387 0154 20E0      		ldi r18,0
 388 0156 30E0      		ldi r19,0
 389               	.L17:
 181:/Users/pthalamy/Studies/CMU/benchmark/build/src-bobby/hw-block/soft_uart2.c **** }
 390               		.loc 1 181 0
 391 0158 C901      		movw r24,r18
 392 015a 0895      		ret
 393               		.cfi_endproc
 394               	.LFE18:
 396               	.global	__vector_83
 398               	__vector_83:
 399               	.LFB19:
 182:/Users/pthalamy/Studies/CMU/benchmark/build/src-bobby/hw-block/soft_uart2.c **** 
 183:/Users/pthalamy/Studies/CMU/benchmark/build/src-bobby/hw-block/soft_uart2.c **** // rx ISR
 184:/Users/pthalamy/Studies/CMU/benchmark/build/src-bobby/hw-block/soft_uart2.c **** ISR(TCD1_OVF_vect)
 185:/Users/pthalamy/Studies/CMU/benchmark/build/src-bobby/hw-block/soft_uart2.c **** {
 400               		.loc 1 185 0
 401               		.cfi_startproc
 402 015c 1F92      		push r1
 403               	.LCFI16:
 404               		.cfi_def_cfa_offset 4
 405               		.cfi_offset 1, -3
 406 015e 0F92      		push r0
 407               	.LCFI17:
 408               		.cfi_def_cfa_offset 5
 409               		.cfi_offset 0, -4
 410 0160 0FB6      		in r0,__SREG__
 411 0162 0F92      		push r0
 412 0164 1124      		clr __zero_reg__
 413 0166 0BB6      		in r0,__RAMPZ__
 414 0168 0F92      		push r0
 415 016a 2F93      		push r18
 416               	.LCFI18:
 417               		.cfi_def_cfa_offset 6
 418               		.cfi_offset 18, -5
 419 016c 3F93      		push r19
 420               	.LCFI19:
 421               		.cfi_def_cfa_offset 7
 422               		.cfi_offset 19, -6
 423 016e 4F93      		push r20
 424               	.LCFI20:
 425               		.cfi_def_cfa_offset 8
 426               		.cfi_offset 20, -7
 427 0170 5F93      		push r21
 428               	.LCFI21:
 429               		.cfi_def_cfa_offset 9
 430               		.cfi_offset 21, -8
 431 0172 6F93      		push r22
 432               	.LCFI22:
 433               		.cfi_def_cfa_offset 10
 434               		.cfi_offset 22, -9
 435 0174 7F93      		push r23
 436               	.LCFI23:
 437               		.cfi_def_cfa_offset 11
 438               		.cfi_offset 23, -10
 439 0176 8F93      		push r24
 440               	.LCFI24:
 441               		.cfi_def_cfa_offset 12
 442               		.cfi_offset 24, -11
 443 0178 9F93      		push r25
 444               	.LCFI25:
 445               		.cfi_def_cfa_offset 13
 446               		.cfi_offset 25, -12
 447 017a AF93      		push r26
 448               	.LCFI26:
 449               		.cfi_def_cfa_offset 14
 450               		.cfi_offset 26, -13
 451 017c BF93      		push r27
 452               	.LCFI27:
 453               		.cfi_def_cfa_offset 15
 454               		.cfi_offset 27, -14
 455 017e EF93      		push r30
 456               	.LCFI28:
 457               		.cfi_def_cfa_offset 16
 458               		.cfi_offset 30, -15
 459 0180 FF93      		push r31
 460               	.LCFI29:
 461               		.cfi_def_cfa_offset 17
 462               		.cfi_offset 31, -16
 463               	/* prologue: Signal */
 464               	/* frame size = 0 */
 465               	/* stack size = 16 */
 466               	.L__stack_usage = 16
 186:/Users/pthalamy/Studies/CMU/benchmark/build/src-bobby/hw-block/soft_uart2.c **** 	if(!soft_uart[0].sample_time)
 467               		.loc 1 186 0
 468 0182 8091 0000 		lds r24,soft_uart+5
 469 0186 8111      		cpse r24,__zero_reg__
 470 0188 00C0      		rjmp .L22
 187:/Users/pthalamy/Studies/CMU/benchmark/build/src-bobby/hw-block/soft_uart2.c **** 	{
 188:/Users/pthalamy/Studies/CMU/benchmark/build/src-bobby/hw-block/soft_uart2.c **** 		if(soft_uart[0].rx_state == SU_RX_IDLE)
 471               		.loc 1 188 0
 472 018a 8091 0000 		lds r24,soft_uart+4
 473 018e 8111      		cpse r24,__zero_reg__
 474 0190 00C0      		rjmp .L23
 189:/Users/pthalamy/Studies/CMU/benchmark/build/src-bobby/hw-block/soft_uart2.c **** 		{
 190:/Users/pthalamy/Studies/CMU/benchmark/build/src-bobby/hw-block/soft_uart2.c **** 			if(!(PORTD.IN & PIN4_bm))
 475               		.loc 1 190 0
 476 0192 8091 6806 		lds r24,1640
 477 0196 84FD      		sbrc r24,4
 478 0198 00C0      		rjmp .L24
 191:/Users/pthalamy/Studies/CMU/benchmark/build/src-bobby/hw-block/soft_uart2.c **** 			{
 192:/Users/pthalamy/Studies/CMU/benchmark/build/src-bobby/hw-block/soft_uart2.c **** 				soft_uart[0].rx_state = SU_RX_BYTE;
 479               		.loc 1 192 0
 480 019a 81E0      		ldi r24,lo8(1)
 481 019c 8093 0000 		sts soft_uart+4,r24
 193:/Users/pthalamy/Studies/CMU/benchmark/build/src-bobby/hw-block/soft_uart2.c **** 				soft_uart[0].rx_mask = 0x01;
 482               		.loc 1 193 0
 483 01a0 8093 0000 		sts soft_uart+3,r24
 194:/Users/pthalamy/Studies/CMU/benchmark/build/src-bobby/hw-block/soft_uart2.c **** 				soft_uart[0].sample_time = 3;	// begin sampling every third time
 484               		.loc 1 194 0
 485 01a4 83E0      		ldi r24,lo8(3)
 486 01a6 8093 0000 		sts soft_uart+5,r24
 195:/Users/pthalamy/Studies/CMU/benchmark/build/src-bobby/hw-block/soft_uart2.c **** 			}
 196:/Users/pthalamy/Studies/CMU/benchmark/build/src-bobby/hw-block/soft_uart2.c **** 		}
 197:/Users/pthalamy/Studies/CMU/benchmark/build/src-bobby/hw-block/soft_uart2.c **** 		else if (soft_uart[0].rx_state == SU_RX_BYTE)
 198:/Users/pthalamy/Studies/CMU/benchmark/build/src-bobby/hw-block/soft_uart2.c **** 		{
 199:/Users/pthalamy/Studies/CMU/benchmark/build/src-bobby/hw-block/soft_uart2.c **** 			if(PORTD.IN & PIN4_bm)
 200:/Users/pthalamy/Studies/CMU/benchmark/build/src-bobby/hw-block/soft_uart2.c **** 			{
 201:/Users/pthalamy/Studies/CMU/benchmark/build/src-bobby/hw-block/soft_uart2.c **** 				soft_uart[0].internal_rx_buffer |= soft_uart[0].rx_mask;
 202:/Users/pthalamy/Studies/CMU/benchmark/build/src-bobby/hw-block/soft_uart2.c **** 			}
 203:/Users/pthalamy/Studies/CMU/benchmark/build/src-bobby/hw-block/soft_uart2.c **** 			
 204:/Users/pthalamy/Studies/CMU/benchmark/build/src-bobby/hw-block/soft_uart2.c **** 			soft_uart[0].rx_mask <<= 1;
 205:/Users/pthalamy/Studies/CMU/benchmark/build/src-bobby/hw-block/soft_uart2.c **** 
 206:/Users/pthalamy/Studies/CMU/benchmark/build/src-bobby/hw-block/soft_uart2.c **** 			if(!soft_uart[0].rx_mask)
 207:/Users/pthalamy/Studies/CMU/benchmark/build/src-bobby/hw-block/soft_uart2.c **** 			{
 208:/Users/pthalamy/Studies/CMU/benchmark/build/src-bobby/hw-block/soft_uart2.c **** 				soft_uart[0].rx_state = SU_RX_STOP;
 209:/Users/pthalamy/Studies/CMU/benchmark/build/src-bobby/hw-block/soft_uart2.c **** 			}
 210:/Users/pthalamy/Studies/CMU/benchmark/build/src-bobby/hw-block/soft_uart2.c **** 			
 211:/Users/pthalamy/Studies/CMU/benchmark/build/src-bobby/hw-block/soft_uart2.c **** 			soft_uart[0].sample_time = 2;	
 212:/Users/pthalamy/Studies/CMU/benchmark/build/src-bobby/hw-block/soft_uart2.c **** 		}
 213:/Users/pthalamy/Studies/CMU/benchmark/build/src-bobby/hw-block/soft_uart2.c **** 		else if (soft_uart[0].rx_state == SU_RX_STOP)
 214:/Users/pthalamy/Studies/CMU/benchmark/build/src-bobby/hw-block/soft_uart2.c **** 		{
 215:/Users/pthalamy/Studies/CMU/benchmark/build/src-bobby/hw-block/soft_uart2.c **** 			if(PORTD.IN & PIN4_bm)
 216:/Users/pthalamy/Studies/CMU/benchmark/build/src-bobby/hw-block/soft_uart2.c **** 			{
 217:/Users/pthalamy/Studies/CMU/benchmark/build/src-bobby/hw-block/soft_uart2.c **** 				push(soft_uart[0].internal_rx_buffer, soft_uart[0].rx);
 218:/Users/pthalamy/Studies/CMU/benchmark/build/src-bobby/hw-block/soft_uart2.c **** 				soft_uart[0].internal_rx_buffer = 0;
 219:/Users/pthalamy/Studies/CMU/benchmark/build/src-bobby/hw-block/soft_uart2.c **** 			}
 220:/Users/pthalamy/Studies/CMU/benchmark/build/src-bobby/hw-block/soft_uart2.c **** 			
 221:/Users/pthalamy/Studies/CMU/benchmark/build/src-bobby/hw-block/soft_uart2.c **** 			soft_uart[0].rx_state = SU_RX_IDLE;		
 222:/Users/pthalamy/Studies/CMU/benchmark/build/src-bobby/hw-block/soft_uart2.c **** 		}
 223:/Users/pthalamy/Studies/CMU/benchmark/build/src-bobby/hw-block/soft_uart2.c **** 	}
 224:/Users/pthalamy/Studies/CMU/benchmark/build/src-bobby/hw-block/soft_uart2.c **** 	else
 225:/Users/pthalamy/Studies/CMU/benchmark/build/src-bobby/hw-block/soft_uart2.c **** 	{
 226:/Users/pthalamy/Studies/CMU/benchmark/build/src-bobby/hw-block/soft_uart2.c **** 		soft_uart[0].sample_time--;
 227:/Users/pthalamy/Studies/CMU/benchmark/build/src-bobby/hw-block/soft_uart2.c **** 	}
 228:/Users/pthalamy/Studies/CMU/benchmark/build/src-bobby/hw-block/soft_uart2.c **** 
 229:/Users/pthalamy/Studies/CMU/benchmark/build/src-bobby/hw-block/soft_uart2.c **** 	if(!soft_uart[1].sample_time)
 487               		.loc 1 229 0
 488 01aa 8091 0000 		lds r24,soft_uart+15
 489 01ae 8823      		tst r24
 490 01b0 01F0      		breq .L44
 491               	.L29:
 230:/Users/pthalamy/Studies/CMU/benchmark/build/src-bobby/hw-block/soft_uart2.c **** 	{
 231:/Users/pthalamy/Studies/CMU/benchmark/build/src-bobby/hw-block/soft_uart2.c **** 		if(soft_uart[1].rx_state == SU_RX_IDLE)
 232:/Users/pthalamy/Studies/CMU/benchmark/build/src-bobby/hw-block/soft_uart2.c **** 		{
 233:/Users/pthalamy/Studies/CMU/benchmark/build/src-bobby/hw-block/soft_uart2.c **** 			if(!(PORTD.IN & PIN7_bm))
 234:/Users/pthalamy/Studies/CMU/benchmark/build/src-bobby/hw-block/soft_uart2.c **** 			{
 235:/Users/pthalamy/Studies/CMU/benchmark/build/src-bobby/hw-block/soft_uart2.c **** 				soft_uart[1].rx_state = SU_RX_BYTE;
 236:/Users/pthalamy/Studies/CMU/benchmark/build/src-bobby/hw-block/soft_uart2.c **** 				soft_uart[1].rx_mask = 0x01;
 237:/Users/pthalamy/Studies/CMU/benchmark/build/src-bobby/hw-block/soft_uart2.c **** 				soft_uart[1].sample_time = 3;	// begin sampling every third time
 238:/Users/pthalamy/Studies/CMU/benchmark/build/src-bobby/hw-block/soft_uart2.c **** 			}
 239:/Users/pthalamy/Studies/CMU/benchmark/build/src-bobby/hw-block/soft_uart2.c **** 		}
 240:/Users/pthalamy/Studies/CMU/benchmark/build/src-bobby/hw-block/soft_uart2.c **** 		else if (soft_uart[1].rx_state == SU_RX_BYTE)
 241:/Users/pthalamy/Studies/CMU/benchmark/build/src-bobby/hw-block/soft_uart2.c **** 		{
 242:/Users/pthalamy/Studies/CMU/benchmark/build/src-bobby/hw-block/soft_uart2.c **** 			if(PORTD.IN & PIN7_bm)
 243:/Users/pthalamy/Studies/CMU/benchmark/build/src-bobby/hw-block/soft_uart2.c **** 			{
 244:/Users/pthalamy/Studies/CMU/benchmark/build/src-bobby/hw-block/soft_uart2.c **** 				soft_uart[1].internal_rx_buffer |= soft_uart[1].rx_mask;
 245:/Users/pthalamy/Studies/CMU/benchmark/build/src-bobby/hw-block/soft_uart2.c **** 			}
 246:/Users/pthalamy/Studies/CMU/benchmark/build/src-bobby/hw-block/soft_uart2.c **** 			
 247:/Users/pthalamy/Studies/CMU/benchmark/build/src-bobby/hw-block/soft_uart2.c **** 			soft_uart[1].rx_mask <<= 1;
 248:/Users/pthalamy/Studies/CMU/benchmark/build/src-bobby/hw-block/soft_uart2.c **** 
 249:/Users/pthalamy/Studies/CMU/benchmark/build/src-bobby/hw-block/soft_uart2.c **** 			if(!soft_uart[1].rx_mask)
 250:/Users/pthalamy/Studies/CMU/benchmark/build/src-bobby/hw-block/soft_uart2.c **** 			{
 251:/Users/pthalamy/Studies/CMU/benchmark/build/src-bobby/hw-block/soft_uart2.c **** 				soft_uart[1].rx_state = SU_RX_STOP;
 252:/Users/pthalamy/Studies/CMU/benchmark/build/src-bobby/hw-block/soft_uart2.c **** 			}
 253:/Users/pthalamy/Studies/CMU/benchmark/build/src-bobby/hw-block/soft_uart2.c **** 			
 254:/Users/pthalamy/Studies/CMU/benchmark/build/src-bobby/hw-block/soft_uart2.c **** 			soft_uart[1].sample_time = 2;	
 255:/Users/pthalamy/Studies/CMU/benchmark/build/src-bobby/hw-block/soft_uart2.c **** 		}
 256:/Users/pthalamy/Studies/CMU/benchmark/build/src-bobby/hw-block/soft_uart2.c **** 		else if (soft_uart[1].rx_state == SU_RX_STOP)
 257:/Users/pthalamy/Studies/CMU/benchmark/build/src-bobby/hw-block/soft_uart2.c **** 		{
 258:/Users/pthalamy/Studies/CMU/benchmark/build/src-bobby/hw-block/soft_uart2.c **** 			if(PORTD.IN & PIN7_bm)
 259:/Users/pthalamy/Studies/CMU/benchmark/build/src-bobby/hw-block/soft_uart2.c **** 			{
 260:/Users/pthalamy/Studies/CMU/benchmark/build/src-bobby/hw-block/soft_uart2.c **** 				push(soft_uart[1].internal_rx_buffer, soft_uart[1].rx);
 261:/Users/pthalamy/Studies/CMU/benchmark/build/src-bobby/hw-block/soft_uart2.c **** 				soft_uart[1].internal_rx_buffer = 0;
 262:/Users/pthalamy/Studies/CMU/benchmark/build/src-bobby/hw-block/soft_uart2.c **** 			}
 263:/Users/pthalamy/Studies/CMU/benchmark/build/src-bobby/hw-block/soft_uart2.c **** 			
 264:/Users/pthalamy/Studies/CMU/benchmark/build/src-bobby/hw-block/soft_uart2.c **** 			soft_uart[1].rx_state = SU_RX_IDLE;		
 265:/Users/pthalamy/Studies/CMU/benchmark/build/src-bobby/hw-block/soft_uart2.c **** 		}
 266:/Users/pthalamy/Studies/CMU/benchmark/build/src-bobby/hw-block/soft_uart2.c **** 	}
 267:/Users/pthalamy/Studies/CMU/benchmark/build/src-bobby/hw-block/soft_uart2.c **** 	else
 268:/Users/pthalamy/Studies/CMU/benchmark/build/src-bobby/hw-block/soft_uart2.c **** 	{
 269:/Users/pthalamy/Studies/CMU/benchmark/build/src-bobby/hw-block/soft_uart2.c **** 		soft_uart[1].sample_time--;
 492               		.loc 1 269 0
 493 01b2 8150      		subi r24,lo8(-(-1))
 494 01b4 8093 0000 		sts soft_uart+15,r24
 495               	.L21:
 496               	/* epilogue start */
 270:/Users/pthalamy/Studies/CMU/benchmark/build/src-bobby/hw-block/soft_uart2.c **** 	}	
 271:/Users/pthalamy/Studies/CMU/benchmark/build/src-bobby/hw-block/soft_uart2.c **** }
 497               		.loc 1 271 0
 498 01b8 FF91      		pop r31
 499 01ba EF91      		pop r30
 500 01bc BF91      		pop r27
 501 01be AF91      		pop r26
 502 01c0 9F91      		pop r25
 503 01c2 8F91      		pop r24
 504 01c4 7F91      		pop r23
 505 01c6 6F91      		pop r22
 506 01c8 5F91      		pop r21
 507 01ca 4F91      		pop r20
 508 01cc 3F91      		pop r19
 509 01ce 2F91      		pop r18
 510 01d0 0F90      		pop r0
 511 01d2 0BBE      		out __RAMPZ__,r0
 512 01d4 0F90      		pop r0
 513 01d6 0FBE      		out __SREG__,r0
 514 01d8 0F90      		pop r0
 515 01da 1F90      		pop r1
 516 01dc 1895      		reti
 517               	.L22:
 226:/Users/pthalamy/Studies/CMU/benchmark/build/src-bobby/hw-block/soft_uart2.c **** 		soft_uart[0].sample_time--;
 518               		.loc 1 226 0
 519 01de 8150      		subi r24,lo8(-(-1))
 520 01e0 8093 0000 		sts soft_uart+5,r24
 521               	.L24:
 229:/Users/pthalamy/Studies/CMU/benchmark/build/src-bobby/hw-block/soft_uart2.c **** 	if(!soft_uart[1].sample_time)
 522               		.loc 1 229 0
 523 01e4 8091 0000 		lds r24,soft_uart+15
 524 01e8 8111      		cpse r24,__zero_reg__
 525 01ea 00C0      		rjmp .L29
 526               	.L44:
 231:/Users/pthalamy/Studies/CMU/benchmark/build/src-bobby/hw-block/soft_uart2.c **** 		if(soft_uart[1].rx_state == SU_RX_IDLE)
 527               		.loc 1 231 0
 528 01ec 8091 0000 		lds r24,soft_uart+14
 529 01f0 8111      		cpse r24,__zero_reg__
 530 01f2 00C0      		rjmp .L30
 233:/Users/pthalamy/Studies/CMU/benchmark/build/src-bobby/hw-block/soft_uart2.c **** 			if(!(PORTD.IN & PIN7_bm))
 531               		.loc 1 233 0
 532 01f4 8091 6806 		lds r24,1640
 533 01f8 87FD      		sbrc r24,7
 534 01fa 00C0      		rjmp .L21
 235:/Users/pthalamy/Studies/CMU/benchmark/build/src-bobby/hw-block/soft_uart2.c **** 				soft_uart[1].rx_state = SU_RX_BYTE;
 535               		.loc 1 235 0
 536 01fc 81E0      		ldi r24,lo8(1)
 537 01fe 8093 0000 		sts soft_uart+14,r24
 236:/Users/pthalamy/Studies/CMU/benchmark/build/src-bobby/hw-block/soft_uart2.c **** 				soft_uart[1].rx_mask = 0x01;
 538               		.loc 1 236 0
 539 0202 8093 0000 		sts soft_uart+13,r24
 237:/Users/pthalamy/Studies/CMU/benchmark/build/src-bobby/hw-block/soft_uart2.c **** 				soft_uart[1].sample_time = 3;	// begin sampling every third time
 540               		.loc 1 237 0
 541 0206 83E0      		ldi r24,lo8(3)
 542 0208 8093 0000 		sts soft_uart+15,r24
 543 020c 00C0      		rjmp .L21
 544               	.L30:
 240:/Users/pthalamy/Studies/CMU/benchmark/build/src-bobby/hw-block/soft_uart2.c **** 		else if (soft_uart[1].rx_state == SU_RX_BYTE)
 545               		.loc 1 240 0
 546 020e 8130      		cpi r24,lo8(1)
 547 0210 01F0      		breq .L45
 256:/Users/pthalamy/Studies/CMU/benchmark/build/src-bobby/hw-block/soft_uart2.c **** 		else if (soft_uart[1].rx_state == SU_RX_STOP)
 548               		.loc 1 256 0
 549 0212 8230      		cpi r24,lo8(2)
 550 0214 01F4      		brne .L21
 258:/Users/pthalamy/Studies/CMU/benchmark/build/src-bobby/hw-block/soft_uart2.c **** 			if(PORTD.IN & PIN7_bm)
 551               		.loc 1 258 0
 552 0216 8091 6806 		lds r24,1640
 553 021a 87FD      		sbrc r24,7
 554 021c 00C0      		rjmp .L46
 555               	.L35:
 264:/Users/pthalamy/Studies/CMU/benchmark/build/src-bobby/hw-block/soft_uart2.c **** 			soft_uart[1].rx_state = SU_RX_IDLE;		
 556               		.loc 1 264 0
 557 021e 1092 0000 		sts soft_uart+14,__zero_reg__
 558 0222 00C0      		rjmp .L21
 559               	.L23:
 197:/Users/pthalamy/Studies/CMU/benchmark/build/src-bobby/hw-block/soft_uart2.c **** 		else if (soft_uart[0].rx_state == SU_RX_BYTE)
 560               		.loc 1 197 0
 561 0224 8130      		cpi r24,lo8(1)
 562 0226 01F0      		breq .L47
 213:/Users/pthalamy/Studies/CMU/benchmark/build/src-bobby/hw-block/soft_uart2.c **** 		else if (soft_uart[0].rx_state == SU_RX_STOP)
 563               		.loc 1 213 0
 564 0228 8230      		cpi r24,lo8(2)
 565 022a 01F4      		brne .L24
 215:/Users/pthalamy/Studies/CMU/benchmark/build/src-bobby/hw-block/soft_uart2.c **** 			if(PORTD.IN & PIN4_bm)
 566               		.loc 1 215 0
 567 022c 8091 6806 		lds r24,1640
 568 0230 84FD      		sbrc r24,4
 569 0232 00C0      		rjmp .L48
 570               	.L28:
 221:/Users/pthalamy/Studies/CMU/benchmark/build/src-bobby/hw-block/soft_uart2.c **** 			soft_uart[0].rx_state = SU_RX_IDLE;		
 571               		.loc 1 221 0
 572 0234 1092 0000 		sts soft_uart+4,__zero_reg__
 573 0238 00C0      		rjmp .L24
 574               	.L47:
 199:/Users/pthalamy/Studies/CMU/benchmark/build/src-bobby/hw-block/soft_uart2.c **** 			if(PORTD.IN & PIN4_bm)
 575               		.loc 1 199 0
 576 023a 8091 6806 		lds r24,1640
 577 023e 84FD      		sbrc r24,4
 578 0240 00C0      		rjmp .L42
 579 0242 8091 0000 		lds r24,soft_uart+3
 580               	.L26:
 204:/Users/pthalamy/Studies/CMU/benchmark/build/src-bobby/hw-block/soft_uart2.c **** 			soft_uart[0].rx_mask <<= 1;
 581               		.loc 1 204 0
 582 0246 880F      		lsl r24
 583 0248 8093 0000 		sts soft_uart+3,r24
 206:/Users/pthalamy/Studies/CMU/benchmark/build/src-bobby/hw-block/soft_uart2.c **** 			if(!soft_uart[0].rx_mask)
 584               		.loc 1 206 0
 585 024c 8111      		cpse r24,__zero_reg__
 586 024e 00C0      		rjmp .L27
 208:/Users/pthalamy/Studies/CMU/benchmark/build/src-bobby/hw-block/soft_uart2.c **** 				soft_uart[0].rx_state = SU_RX_STOP;
 587               		.loc 1 208 0
 588 0250 82E0      		ldi r24,lo8(2)
 589 0252 8093 0000 		sts soft_uart+4,r24
 590               	.L27:
 211:/Users/pthalamy/Studies/CMU/benchmark/build/src-bobby/hw-block/soft_uart2.c **** 			soft_uart[0].sample_time = 2;	
 591               		.loc 1 211 0
 592 0256 82E0      		ldi r24,lo8(2)
 593 0258 8093 0000 		sts soft_uart+5,r24
 594 025c 00C0      		rjmp .L24
 595               	.L45:
 242:/Users/pthalamy/Studies/CMU/benchmark/build/src-bobby/hw-block/soft_uart2.c **** 			if(PORTD.IN & PIN7_bm)
 596               		.loc 1 242 0
 597 025e 8091 6806 		lds r24,1640
 598 0262 87FD      		sbrc r24,7
 599 0264 00C0      		rjmp .L43
 600 0266 8091 0000 		lds r24,soft_uart+13
 601               	.L33:
 247:/Users/pthalamy/Studies/CMU/benchmark/build/src-bobby/hw-block/soft_uart2.c **** 			soft_uart[1].rx_mask <<= 1;
 602               		.loc 1 247 0
 603 026a 880F      		lsl r24
 604 026c 8093 0000 		sts soft_uart+13,r24
 249:/Users/pthalamy/Studies/CMU/benchmark/build/src-bobby/hw-block/soft_uart2.c **** 			if(!soft_uart[1].rx_mask)
 605               		.loc 1 249 0
 606 0270 8111      		cpse r24,__zero_reg__
 607 0272 00C0      		rjmp .L34
 251:/Users/pthalamy/Studies/CMU/benchmark/build/src-bobby/hw-block/soft_uart2.c **** 				soft_uart[1].rx_state = SU_RX_STOP;
 608               		.loc 1 251 0
 609 0274 82E0      		ldi r24,lo8(2)
 610 0276 8093 0000 		sts soft_uart+14,r24
 611               	.L34:
 254:/Users/pthalamy/Studies/CMU/benchmark/build/src-bobby/hw-block/soft_uart2.c **** 			soft_uart[1].sample_time = 2;	
 612               		.loc 1 254 0
 613 027a 82E0      		ldi r24,lo8(2)
 614 027c 8093 0000 		sts soft_uart+15,r24
 615 0280 00C0      		rjmp .L21
 616               	.L42:
 201:/Users/pthalamy/Studies/CMU/benchmark/build/src-bobby/hw-block/soft_uart2.c **** 				soft_uart[0].internal_rx_buffer |= soft_uart[0].rx_mask;
 617               		.loc 1 201 0
 618 0282 9091 0000 		lds r25,soft_uart
 619 0286 8091 0000 		lds r24,soft_uart+3
 620 028a 982B      		or r25,r24
 621 028c 9093 0000 		sts soft_uart,r25
 622 0290 00C0      		rjmp .L26
 623               	.L48:
 217:/Users/pthalamy/Studies/CMU/benchmark/build/src-bobby/hw-block/soft_uart2.c **** 				push(soft_uart[0].internal_rx_buffer, soft_uart[0].rx);
 624               		.loc 1 217 0
 625 0292 8091 0000 		lds r24,soft_uart
 626 0296 6091 0000 		lds r22,soft_uart+8
 627 029a 7091 0000 		lds r23,soft_uart+8+1
 628 029e 0E94 0000 		call push
 629               	.LVL24:
 218:/Users/pthalamy/Studies/CMU/benchmark/build/src-bobby/hw-block/soft_uart2.c **** 				soft_uart[0].internal_rx_buffer = 0;
 630               		.loc 1 218 0
 631 02a2 1092 0000 		sts soft_uart,__zero_reg__
 632 02a6 00C0      		rjmp .L28
 633               	.L43:
 244:/Users/pthalamy/Studies/CMU/benchmark/build/src-bobby/hw-block/soft_uart2.c **** 				soft_uart[1].internal_rx_buffer |= soft_uart[1].rx_mask;
 634               		.loc 1 244 0
 635 02a8 9091 0000 		lds r25,soft_uart+10
 636 02ac 8091 0000 		lds r24,soft_uart+13
 637 02b0 982B      		or r25,r24
 638 02b2 9093 0000 		sts soft_uart+10,r25
 639 02b6 00C0      		rjmp .L33
 640               	.L46:
 260:/Users/pthalamy/Studies/CMU/benchmark/build/src-bobby/hw-block/soft_uart2.c **** 				push(soft_uart[1].internal_rx_buffer, soft_uart[1].rx);
 641               		.loc 1 260 0
 642 02b8 8091 0000 		lds r24,soft_uart+10
 643 02bc 6091 0000 		lds r22,soft_uart+18
 644 02c0 7091 0000 		lds r23,soft_uart+18+1
 645 02c4 0E94 0000 		call push
 646               	.LVL25:
 261:/Users/pthalamy/Studies/CMU/benchmark/build/src-bobby/hw-block/soft_uart2.c **** 				soft_uart[1].internal_rx_buffer = 0;
 647               		.loc 1 261 0
 648 02c8 1092 0000 		sts soft_uart+10,__zero_reg__
 649 02cc 00C0      		rjmp .L35
 650               		.cfi_endproc
 651               	.LFE19:
 653               		.comm	soft_uart,20,1
 654               	.Letext0:
 655               		.file 2 "/usr/local/Cellar/avr-gcc/4.7.2/lib/gcc/avr/4.7.2/../../../../avr/include/stdint.h"
 656               		.file 3 "/usr/local/Cellar/avr-gcc/4.7.2/lib/gcc/avr/4.7.2/../../../../avr/include/avr/iox256a3.h"
 657               		.file 4 "/Users/pthalamy/Studies/CMU/benchmark/build/src-bobby/system/defs.bbh"
 658               		.file 5 "/Users/pthalamy/Studies/CMU/benchmark/build/src-bobby/system/circ_buffer.bbh"
 659               		.file 6 "/Users/pthalamy/Studies/CMU/benchmark/build/src-bobby/hw-block/soft_uart2.h"