   1               		.file	"twi_master_driver.c"
   2               	__SP_H__ = 0x3e
   3               	__SP_L__ = 0x3d
   4               	__SREG__ = 0x3f
   5               	__RAMPZ__ = 0x3b
   6               	__CCP__ = 0x34
   7               	__tmp_reg__ = 0
   8               	__zero_reg__ = 1
   9               		.text
  10               	.Ltext0:
  11               		.cfi_sections	.debug_frame
  12               	.global	TWI_MasterInit
  14               	TWI_MasterInit:
  15               	.LFB7:
  16               		.file 1 "/Users/pthalamy/Studies/CMU/benchmark/build/src-bobby/hw-block/twi_master_driver.c"
   1:/Users/pthalamy/Studies/CMU/benchmark/build/src-bobby/hw-block/twi_master_driver.c **** /* This file has been prepared for Doxygen automatic documentation generation.*/
   2:/Users/pthalamy/Studies/CMU/benchmark/build/src-bobby/hw-block/twi_master_driver.c **** /*! \file *********************************************************************
   3:/Users/pthalamy/Studies/CMU/benchmark/build/src-bobby/hw-block/twi_master_driver.c ****  *
   4:/Users/pthalamy/Studies/CMU/benchmark/build/src-bobby/hw-block/twi_master_driver.c ****  * \brief
   5:/Users/pthalamy/Studies/CMU/benchmark/build/src-bobby/hw-block/twi_master_driver.c ****  *      XMEGA TWI master driver source file.
   6:/Users/pthalamy/Studies/CMU/benchmark/build/src-bobby/hw-block/twi_master_driver.c ****  *
   7:/Users/pthalamy/Studies/CMU/benchmark/build/src-bobby/hw-block/twi_master_driver.c ****  *      This file contains the function implementations the XMEGA master TWI
   8:/Users/pthalamy/Studies/CMU/benchmark/build/src-bobby/hw-block/twi_master_driver.c ****  *      driver.
   9:/Users/pthalamy/Studies/CMU/benchmark/build/src-bobby/hw-block/twi_master_driver.c ****  *
  10:/Users/pthalamy/Studies/CMU/benchmark/build/src-bobby/hw-block/twi_master_driver.c ****  *      The driver is not intended for size and/or speed critical code, since
  11:/Users/pthalamy/Studies/CMU/benchmark/build/src-bobby/hw-block/twi_master_driver.c ****  *      most functions are just a few lines of code, and the function call
  12:/Users/pthalamy/Studies/CMU/benchmark/build/src-bobby/hw-block/twi_master_driver.c ****  *      overhead would decrease code performance. The driver is intended for
  13:/Users/pthalamy/Studies/CMU/benchmark/build/src-bobby/hw-block/twi_master_driver.c ****  *      rapid prototyping and documentation purposes for getting started with
  14:/Users/pthalamy/Studies/CMU/benchmark/build/src-bobby/hw-block/twi_master_driver.c ****  *      the XMEGA TWI master module.
  15:/Users/pthalamy/Studies/CMU/benchmark/build/src-bobby/hw-block/twi_master_driver.c ****  *
  16:/Users/pthalamy/Studies/CMU/benchmark/build/src-bobby/hw-block/twi_master_driver.c ****  *      For size and/or speed critical code, it is recommended to copy the
  17:/Users/pthalamy/Studies/CMU/benchmark/build/src-bobby/hw-block/twi_master_driver.c ****  *      function contents directly into your application instead of making
  18:/Users/pthalamy/Studies/CMU/benchmark/build/src-bobby/hw-block/twi_master_driver.c ****  *      a function call.
  19:/Users/pthalamy/Studies/CMU/benchmark/build/src-bobby/hw-block/twi_master_driver.c ****  *
  20:/Users/pthalamy/Studies/CMU/benchmark/build/src-bobby/hw-block/twi_master_driver.c ****  *      Several functions use the following construct:
  21:/Users/pthalamy/Studies/CMU/benchmark/build/src-bobby/hw-block/twi_master_driver.c ****  *          "some_register = ... | (some_parameter ? SOME_BIT_bm : 0) | ..."
  22:/Users/pthalamy/Studies/CMU/benchmark/build/src-bobby/hw-block/twi_master_driver.c ****  *      Although the use of the ternary operator ( if ? then : else ) is
  23:/Users/pthalamy/Studies/CMU/benchmark/build/src-bobby/hw-block/twi_master_driver.c ****  *      discouraged, in some occasions the operator makes it possible to write
  24:/Users/pthalamy/Studies/CMU/benchmark/build/src-bobby/hw-block/twi_master_driver.c ****  *      pretty clean and neat code. In this driver, the construct is used to
  25:/Users/pthalamy/Studies/CMU/benchmark/build/src-bobby/hw-block/twi_master_driver.c ****  *      set or not set a configuration bit based on a boolean input parameter,
  26:/Users/pthalamy/Studies/CMU/benchmark/build/src-bobby/hw-block/twi_master_driver.c ****  *      such as the "some_parameter" in the example above.
  27:/Users/pthalamy/Studies/CMU/benchmark/build/src-bobby/hw-block/twi_master_driver.c ****  *
  28:/Users/pthalamy/Studies/CMU/benchmark/build/src-bobby/hw-block/twi_master_driver.c ****  * \par Application note:
  29:/Users/pthalamy/Studies/CMU/benchmark/build/src-bobby/hw-block/twi_master_driver.c ****  *      AVR1308: Using the XMEGA TWI
  30:/Users/pthalamy/Studies/CMU/benchmark/build/src-bobby/hw-block/twi_master_driver.c ****  *
  31:/Users/pthalamy/Studies/CMU/benchmark/build/src-bobby/hw-block/twi_master_driver.c ****  * \par Documentation
  32:/Users/pthalamy/Studies/CMU/benchmark/build/src-bobby/hw-block/twi_master_driver.c ****  *      For comprehensive code documentation, supported compilers, compiler
  33:/Users/pthalamy/Studies/CMU/benchmark/build/src-bobby/hw-block/twi_master_driver.c ****  *      settings and supported devices see readme.html
  34:/Users/pthalamy/Studies/CMU/benchmark/build/src-bobby/hw-block/twi_master_driver.c ****  *
  35:/Users/pthalamy/Studies/CMU/benchmark/build/src-bobby/hw-block/twi_master_driver.c ****  * \author
  36:/Users/pthalamy/Studies/CMU/benchmark/build/src-bobby/hw-block/twi_master_driver.c ****  *      Atmel Corporation: http://www.atmel.com \n
  37:/Users/pthalamy/Studies/CMU/benchmark/build/src-bobby/hw-block/twi_master_driver.c ****  *      Support email: avr@atmel.com
  38:/Users/pthalamy/Studies/CMU/benchmark/build/src-bobby/hw-block/twi_master_driver.c ****  *
  39:/Users/pthalamy/Studies/CMU/benchmark/build/src-bobby/hw-block/twi_master_driver.c ****  * $Revision: 1569 $
  40:/Users/pthalamy/Studies/CMU/benchmark/build/src-bobby/hw-block/twi_master_driver.c ****  * $Date: 2008-04-22 13:03:43 +0200 (ti, 22 apr 2008) $  \n
  41:/Users/pthalamy/Studies/CMU/benchmark/build/src-bobby/hw-block/twi_master_driver.c ****  *
  42:/Users/pthalamy/Studies/CMU/benchmark/build/src-bobby/hw-block/twi_master_driver.c ****  * Copyright (c) 2008, Atmel Corporation All rights reserved.
  43:/Users/pthalamy/Studies/CMU/benchmark/build/src-bobby/hw-block/twi_master_driver.c ****  *
  44:/Users/pthalamy/Studies/CMU/benchmark/build/src-bobby/hw-block/twi_master_driver.c ****  * Redistribution and use in source and binary forms, with or without
  45:/Users/pthalamy/Studies/CMU/benchmark/build/src-bobby/hw-block/twi_master_driver.c ****  * modification, are permitted provided that the following conditions are met:
  46:/Users/pthalamy/Studies/CMU/benchmark/build/src-bobby/hw-block/twi_master_driver.c ****  *
  47:/Users/pthalamy/Studies/CMU/benchmark/build/src-bobby/hw-block/twi_master_driver.c ****  * 1. Redistributions of source code must retain the above copyright notice,
  48:/Users/pthalamy/Studies/CMU/benchmark/build/src-bobby/hw-block/twi_master_driver.c ****  * this list of conditions and the following disclaimer.
  49:/Users/pthalamy/Studies/CMU/benchmark/build/src-bobby/hw-block/twi_master_driver.c ****  *
  50:/Users/pthalamy/Studies/CMU/benchmark/build/src-bobby/hw-block/twi_master_driver.c ****  * 2. Redistributions in binary form must reproduce the above copyright notice,
  51:/Users/pthalamy/Studies/CMU/benchmark/build/src-bobby/hw-block/twi_master_driver.c ****  * this list of conditions and the following disclaimer in the documentation
  52:/Users/pthalamy/Studies/CMU/benchmark/build/src-bobby/hw-block/twi_master_driver.c ****  * and/or other materials provided with the distribution.
  53:/Users/pthalamy/Studies/CMU/benchmark/build/src-bobby/hw-block/twi_master_driver.c ****  *
  54:/Users/pthalamy/Studies/CMU/benchmark/build/src-bobby/hw-block/twi_master_driver.c ****  * 3. The name of ATMEL may not be used to endorse or promote products derived
  55:/Users/pthalamy/Studies/CMU/benchmark/build/src-bobby/hw-block/twi_master_driver.c ****  * from this software without specific prior written permission.
  56:/Users/pthalamy/Studies/CMU/benchmark/build/src-bobby/hw-block/twi_master_driver.c ****  *
  57:/Users/pthalamy/Studies/CMU/benchmark/build/src-bobby/hw-block/twi_master_driver.c ****  * THIS SOFTWARE IS PROVIDED BY ATMEL "AS IS" AND ANY EXPRESS OR IMPLIED
  58:/Users/pthalamy/Studies/CMU/benchmark/build/src-bobby/hw-block/twi_master_driver.c ****  * WARRANTIES, INCLUDING, BUT NOT LIMITED TO, THE IMPLIED WARRANTIES OF
  59:/Users/pthalamy/Studies/CMU/benchmark/build/src-bobby/hw-block/twi_master_driver.c ****  * MERCHANTABILITY AND FITNESS FOR A PARTICULAR PURPOSE ARE EXPRESSLY AND
  60:/Users/pthalamy/Studies/CMU/benchmark/build/src-bobby/hw-block/twi_master_driver.c ****  * SPECIFICALLY DISCLAIMED. IN NO EVENT SHALL ATMEL BE LIABLE FOR ANY DIRECT,
  61:/Users/pthalamy/Studies/CMU/benchmark/build/src-bobby/hw-block/twi_master_driver.c ****  * INDIRECT, INCIDENTAL, SPECIAL, EXEMPLARY, OR CONSEQUENTIAL DAMAGES
  62:/Users/pthalamy/Studies/CMU/benchmark/build/src-bobby/hw-block/twi_master_driver.c ****  * (INCLUDING, BUT NOT LIMITED TO, PROCUREMENT OF SUBSTITUTE GOODS OR SERVICES;
  63:/Users/pthalamy/Studies/CMU/benchmark/build/src-bobby/hw-block/twi_master_driver.c ****  * LOSS OF USE, DATA, OR PROFITS; OR BUSINESS INTERRUPTION) HOWEVER CAUSED AND
  64:/Users/pthalamy/Studies/CMU/benchmark/build/src-bobby/hw-block/twi_master_driver.c ****  * ON ANY THEORY OF LIABILITY, WHETHER IN CONTRACT, STRICT LIABILITY, OR TORT
  65:/Users/pthalamy/Studies/CMU/benchmark/build/src-bobby/hw-block/twi_master_driver.c ****  * (INCLUDING NEGLIGENCE OR OTHERWISE) ARISING IN ANY WAY OUT OF THE USE OF
  66:/Users/pthalamy/Studies/CMU/benchmark/build/src-bobby/hw-block/twi_master_driver.c ****  * THIS SOFTWARE, EVEN IF ADVISED OF THE POSSIBILITY OF SUCH DAMAGE.
  67:/Users/pthalamy/Studies/CMU/benchmark/build/src-bobby/hw-block/twi_master_driver.c ****  *****************************************************************************/
  68:/Users/pthalamy/Studies/CMU/benchmark/build/src-bobby/hw-block/twi_master_driver.c **** 
  69:/Users/pthalamy/Studies/CMU/benchmark/build/src-bobby/hw-block/twi_master_driver.c **** #include "twi_master_driver.h"
  70:/Users/pthalamy/Studies/CMU/benchmark/build/src-bobby/hw-block/twi_master_driver.c **** 
  71:/Users/pthalamy/Studies/CMU/benchmark/build/src-bobby/hw-block/twi_master_driver.c **** 
  72:/Users/pthalamy/Studies/CMU/benchmark/build/src-bobby/hw-block/twi_master_driver.c **** /*! \brief Initialize the TWI module.
  73:/Users/pthalamy/Studies/CMU/benchmark/build/src-bobby/hw-block/twi_master_driver.c ****  *
  74:/Users/pthalamy/Studies/CMU/benchmark/build/src-bobby/hw-block/twi_master_driver.c ****  *  TWI module initialization function.
  75:/Users/pthalamy/Studies/CMU/benchmark/build/src-bobby/hw-block/twi_master_driver.c ****  *  Enables master read and write interrupts.
  76:/Users/pthalamy/Studies/CMU/benchmark/build/src-bobby/hw-block/twi_master_driver.c ****  *  Remember to enable interrupts globally from the main application.
  77:/Users/pthalamy/Studies/CMU/benchmark/build/src-bobby/hw-block/twi_master_driver.c ****  *
  78:/Users/pthalamy/Studies/CMU/benchmark/build/src-bobby/hw-block/twi_master_driver.c ****  *  \param twi                      The TWI_Master_t struct instance.
  79:/Users/pthalamy/Studies/CMU/benchmark/build/src-bobby/hw-block/twi_master_driver.c ****  *  \param module                   The TWI module to use.
  80:/Users/pthalamy/Studies/CMU/benchmark/build/src-bobby/hw-block/twi_master_driver.c ****  *  \param intLevel                 Master interrupt level.
  81:/Users/pthalamy/Studies/CMU/benchmark/build/src-bobby/hw-block/twi_master_driver.c ****  *  \param baudRateRegisterSetting  The baud rate register value.
  82:/Users/pthalamy/Studies/CMU/benchmark/build/src-bobby/hw-block/twi_master_driver.c ****  */
  83:/Users/pthalamy/Studies/CMU/benchmark/build/src-bobby/hw-block/twi_master_driver.c **** void TWI_MasterInit(TWI_Master_t *twi,
  84:/Users/pthalamy/Studies/CMU/benchmark/build/src-bobby/hw-block/twi_master_driver.c ****                     TWI_t *module,
  85:/Users/pthalamy/Studies/CMU/benchmark/build/src-bobby/hw-block/twi_master_driver.c ****                     TWI_MASTER_INTLVL_t intLevel,
  86:/Users/pthalamy/Studies/CMU/benchmark/build/src-bobby/hw-block/twi_master_driver.c ****                     uint8_t baudRateRegisterSetting)
  87:/Users/pthalamy/Studies/CMU/benchmark/build/src-bobby/hw-block/twi_master_driver.c **** {
  17               		.loc 1 87 0
  18               		.cfi_startproc
  19               	.LVL0:
  20               	/* prologue: function */
  21               	/* frame size = 0 */
  22               	/* stack size = 0 */
  23               	.L__stack_usage = 0
  24 0000 FC01      		movw r30,r24
  88:/Users/pthalamy/Studies/CMU/benchmark/build/src-bobby/hw-block/twi_master_driver.c **** 	twi->interface = module;
  25               		.loc 1 88 0
  26 0002 6083      		st Z,r22
  27 0004 7183      		std Z+1,r23
  89:/Users/pthalamy/Studies/CMU/benchmark/build/src-bobby/hw-block/twi_master_driver.c **** 	twi->interface->MASTER.CTRLA = intLevel |
  28               		.loc 1 89 0
  29 0006 4863      		ori r20,lo8(56)
  30               	.LVL1:
  31 0008 DB01      		movw r26,r22
  32 000a 1196      		adiw r26,1
  33 000c 4C93      		st X,r20
  90:/Users/pthalamy/Studies/CMU/benchmark/build/src-bobby/hw-block/twi_master_driver.c **** 	                               TWI_MASTER_RIEN_bm |
  91:/Users/pthalamy/Studies/CMU/benchmark/build/src-bobby/hw-block/twi_master_driver.c **** 	                               TWI_MASTER_WIEN_bm |
  92:/Users/pthalamy/Studies/CMU/benchmark/build/src-bobby/hw-block/twi_master_driver.c **** 	                               TWI_MASTER_ENABLE_bm;
  93:/Users/pthalamy/Studies/CMU/benchmark/build/src-bobby/hw-block/twi_master_driver.c **** 	twi->interface->MASTER.BAUD = baudRateRegisterSetting;
  34               		.loc 1 93 0
  35 000e A081      		ld r26,Z
  36 0010 B181      		ldd r27,Z+1
  37 0012 1596      		adiw r26,5
  38 0014 2C93      		st X,r18
  94:/Users/pthalamy/Studies/CMU/benchmark/build/src-bobby/hw-block/twi_master_driver.c **** 	twi->interface->MASTER.STATUS = TWI_MASTER_BUSSTATE_IDLE_gc;
  39               		.loc 1 94 0
  40 0016 0190      		ld __tmp_reg__,Z+
  41 0018 F081      		ld r31,Z
  42 001a E02D      		mov r30,__tmp_reg__
  43 001c 81E0      		ldi r24,lo8(1)
  44               	.LVL2:
  45 001e 8483      		std Z+4,r24
  46 0020 0895      		ret
  47               		.cfi_endproc
  48               	.LFE7:
  50               	.global	TWI_MasterState
  52               	TWI_MasterState:
  53               	.LFB8:
  95:/Users/pthalamy/Studies/CMU/benchmark/build/src-bobby/hw-block/twi_master_driver.c **** }
  96:/Users/pthalamy/Studies/CMU/benchmark/build/src-bobby/hw-block/twi_master_driver.c **** 
  97:/Users/pthalamy/Studies/CMU/benchmark/build/src-bobby/hw-block/twi_master_driver.c **** 
  98:/Users/pthalamy/Studies/CMU/benchmark/build/src-bobby/hw-block/twi_master_driver.c **** /*! \brief Returns the TWI bus state.
  99:/Users/pthalamy/Studies/CMU/benchmark/build/src-bobby/hw-block/twi_master_driver.c ****  *
 100:/Users/pthalamy/Studies/CMU/benchmark/build/src-bobby/hw-block/twi_master_driver.c ****  *  Returns the TWI bus state (type defined in device headerfile),
 101:/Users/pthalamy/Studies/CMU/benchmark/build/src-bobby/hw-block/twi_master_driver.c ****  *  unknown, idle, owner or busy.
 102:/Users/pthalamy/Studies/CMU/benchmark/build/src-bobby/hw-block/twi_master_driver.c ****  *
 103:/Users/pthalamy/Studies/CMU/benchmark/build/src-bobby/hw-block/twi_master_driver.c ****  *  \param twi The TWI_Master_t struct instance.
 104:/Users/pthalamy/Studies/CMU/benchmark/build/src-bobby/hw-block/twi_master_driver.c ****  *
 105:/Users/pthalamy/Studies/CMU/benchmark/build/src-bobby/hw-block/twi_master_driver.c ****  *  \retval TWI_MASTER_BUSSTATE_UNKNOWN_gc Bus state is unknown.
 106:/Users/pthalamy/Studies/CMU/benchmark/build/src-bobby/hw-block/twi_master_driver.c ****  *  \retval TWI_MASTER_BUSSTATE_IDLE_gc    Bus state is idle.
 107:/Users/pthalamy/Studies/CMU/benchmark/build/src-bobby/hw-block/twi_master_driver.c ****  *  \retval TWI_MASTER_BUSSTATE_OWNER_gc   Bus state is owned by the master.
 108:/Users/pthalamy/Studies/CMU/benchmark/build/src-bobby/hw-block/twi_master_driver.c ****  *  \retval TWI_MASTER_BUSSTATE_BUSY_gc    Bus state is busy.
 109:/Users/pthalamy/Studies/CMU/benchmark/build/src-bobby/hw-block/twi_master_driver.c ****  */
 110:/Users/pthalamy/Studies/CMU/benchmark/build/src-bobby/hw-block/twi_master_driver.c **** TWI_MASTER_BUSSTATE_t TWI_MasterState(TWI_Master_t *twi)
 111:/Users/pthalamy/Studies/CMU/benchmark/build/src-bobby/hw-block/twi_master_driver.c **** {
  54               		.loc 1 111 0
  55               		.cfi_startproc
  56               	.LVL3:
  57               	/* prologue: function */
  58               	/* frame size = 0 */
  59               	/* stack size = 0 */
  60               	.L__stack_usage = 0
 112:/Users/pthalamy/Studies/CMU/benchmark/build/src-bobby/hw-block/twi_master_driver.c **** 	TWI_MASTER_BUSSTATE_t twi_status;
 113:/Users/pthalamy/Studies/CMU/benchmark/build/src-bobby/hw-block/twi_master_driver.c **** 	twi_status = (TWI_MASTER_BUSSTATE_t) (twi->interface->MASTER.STATUS &
  61               		.loc 1 113 0
  62 0022 DC01      		movw r26,r24
  63 0024 ED91      		ld r30,X+
  64 0026 FC91      		ld r31,X
  65 0028 8481      		ldd r24,Z+4
  66               	.LVL4:
 114:/Users/pthalamy/Studies/CMU/benchmark/build/src-bobby/hw-block/twi_master_driver.c **** 	                                      TWI_MASTER_BUSSTATE_gm);
 115:/Users/pthalamy/Studies/CMU/benchmark/build/src-bobby/hw-block/twi_master_driver.c **** 	return twi_status;
 116:/Users/pthalamy/Studies/CMU/benchmark/build/src-bobby/hw-block/twi_master_driver.c **** }
  67               		.loc 1 116 0
  68 002a 8370      		andi r24,lo8(3)
  69               	.LVL5:
  70 002c 0895      		ret
  71               		.cfi_endproc
  72               	.LFE8:
  74               	.global	TWI_MasterReady
  76               	TWI_MasterReady:
  77               	.LFB9:
 117:/Users/pthalamy/Studies/CMU/benchmark/build/src-bobby/hw-block/twi_master_driver.c **** 
 118:/Users/pthalamy/Studies/CMU/benchmark/build/src-bobby/hw-block/twi_master_driver.c **** 
 119:/Users/pthalamy/Studies/CMU/benchmark/build/src-bobby/hw-block/twi_master_driver.c **** /*! \brief Returns true if transaction is ready.
 120:/Users/pthalamy/Studies/CMU/benchmark/build/src-bobby/hw-block/twi_master_driver.c ****  *
 121:/Users/pthalamy/Studies/CMU/benchmark/build/src-bobby/hw-block/twi_master_driver.c ****  *  This function returns a boolean whether the TWI Master is ready
 122:/Users/pthalamy/Studies/CMU/benchmark/build/src-bobby/hw-block/twi_master_driver.c ****  *  for a new transaction.
 123:/Users/pthalamy/Studies/CMU/benchmark/build/src-bobby/hw-block/twi_master_driver.c ****  *
 124:/Users/pthalamy/Studies/CMU/benchmark/build/src-bobby/hw-block/twi_master_driver.c ****  *  \param twi The TWI_Master_t struct instance.
 125:/Users/pthalamy/Studies/CMU/benchmark/build/src-bobby/hw-block/twi_master_driver.c ****  *
 126:/Users/pthalamy/Studies/CMU/benchmark/build/src-bobby/hw-block/twi_master_driver.c ****  *  \retval true  If transaction could be started.
 127:/Users/pthalamy/Studies/CMU/benchmark/build/src-bobby/hw-block/twi_master_driver.c ****  *  \retval false If transaction could not be started.
 128:/Users/pthalamy/Studies/CMU/benchmark/build/src-bobby/hw-block/twi_master_driver.c ****  */
 129:/Users/pthalamy/Studies/CMU/benchmark/build/src-bobby/hw-block/twi_master_driver.c **** bool TWI_MasterReady(TWI_Master_t *twi)
 130:/Users/pthalamy/Studies/CMU/benchmark/build/src-bobby/hw-block/twi_master_driver.c **** {
  78               		.loc 1 130 0
  79               		.cfi_startproc
  80               	.LVL6:
  81               	/* prologue: function */
  82               	/* frame size = 0 */
  83               	/* stack size = 0 */
  84               	.L__stack_usage = 0
 131:/Users/pthalamy/Studies/CMU/benchmark/build/src-bobby/hw-block/twi_master_driver.c **** 	bool twi_status = (twi->status & TWIM_STATUS_READY);
  85               		.loc 1 131 0
  86 002e FC01      		movw r30,r24
  87 0030 8785      		ldd r24,Z+15
  88               	.LVL7:
 132:/Users/pthalamy/Studies/CMU/benchmark/build/src-bobby/hw-block/twi_master_driver.c **** 	return twi_status;
 133:/Users/pthalamy/Studies/CMU/benchmark/build/src-bobby/hw-block/twi_master_driver.c **** }
  89               		.loc 1 133 0
  90 0032 8170      		andi r24,lo8(1)
  91               	.LVL8:
  92 0034 0895      		ret
  93               		.cfi_endproc
  94               	.LFE9:
  96               	.global	TWI_MasterWrite
  98               	TWI_MasterWrite:
  99               	.LFB10:
 134:/Users/pthalamy/Studies/CMU/benchmark/build/src-bobby/hw-block/twi_master_driver.c **** 
 135:/Users/pthalamy/Studies/CMU/benchmark/build/src-bobby/hw-block/twi_master_driver.c **** 
 136:/Users/pthalamy/Studies/CMU/benchmark/build/src-bobby/hw-block/twi_master_driver.c **** /*! \brief TWI write transaction.
 137:/Users/pthalamy/Studies/CMU/benchmark/build/src-bobby/hw-block/twi_master_driver.c ****  *
 138:/Users/pthalamy/Studies/CMU/benchmark/build/src-bobby/hw-block/twi_master_driver.c ****  *  This function is TWI Master wrapper for a write-only transaction.
 139:/Users/pthalamy/Studies/CMU/benchmark/build/src-bobby/hw-block/twi_master_driver.c ****  *
 140:/Users/pthalamy/Studies/CMU/benchmark/build/src-bobby/hw-block/twi_master_driver.c ****  *  \param twi          The TWI_Master_t struct instance.
 141:/Users/pthalamy/Studies/CMU/benchmark/build/src-bobby/hw-block/twi_master_driver.c ****  *  \param address      Slave address.
 142:/Users/pthalamy/Studies/CMU/benchmark/build/src-bobby/hw-block/twi_master_driver.c ****  *  \param writeData    Pointer to data to write.
 143:/Users/pthalamy/Studies/CMU/benchmark/build/src-bobby/hw-block/twi_master_driver.c ****  *  \param bytesToWrite Number of data bytes to write.
 144:/Users/pthalamy/Studies/CMU/benchmark/build/src-bobby/hw-block/twi_master_driver.c ****  *
 145:/Users/pthalamy/Studies/CMU/benchmark/build/src-bobby/hw-block/twi_master_driver.c ****  *  \retval true  If transaction could be started.
 146:/Users/pthalamy/Studies/CMU/benchmark/build/src-bobby/hw-block/twi_master_driver.c ****  *  \retval false If transaction could not be started.
 147:/Users/pthalamy/Studies/CMU/benchmark/build/src-bobby/hw-block/twi_master_driver.c ****  */
 148:/Users/pthalamy/Studies/CMU/benchmark/build/src-bobby/hw-block/twi_master_driver.c **** bool TWI_MasterWrite(TWI_Master_t *twi,
 149:/Users/pthalamy/Studies/CMU/benchmark/build/src-bobby/hw-block/twi_master_driver.c ****                      uint8_t address,
 150:/Users/pthalamy/Studies/CMU/benchmark/build/src-bobby/hw-block/twi_master_driver.c ****                      uint8_t *writeData,
 151:/Users/pthalamy/Studies/CMU/benchmark/build/src-bobby/hw-block/twi_master_driver.c ****                      uint8_t bytesToWrite)
 152:/Users/pthalamy/Studies/CMU/benchmark/build/src-bobby/hw-block/twi_master_driver.c **** {
 100               		.loc 1 152 0
 101               		.cfi_startproc
 102               	.LVL9:
 103 0036 CF93      		push r28
 104               	.LCFI0:
 105               		.cfi_def_cfa_offset 4
 106               		.cfi_offset 28, -3
 107 0038 DF93      		push r29
 108               	.LCFI1:
 109               		.cfi_def_cfa_offset 5
 110               		.cfi_offset 29, -4
 111               	/* prologue: function */
 112               	/* frame size = 0 */
 113               	/* stack size = 2 */
 114               	.L__stack_usage = 2
 115 003a FC01      		movw r30,r24
 116               	.LVL10:
 117               	.LBB27:
 118               	.LBB28:
 153:/Users/pthalamy/Studies/CMU/benchmark/build/src-bobby/hw-block/twi_master_driver.c **** 	bool twi_status = TWI_MasterWriteRead(twi, address, writeData, bytesToWrite, 0);
 154:/Users/pthalamy/Studies/CMU/benchmark/build/src-bobby/hw-block/twi_master_driver.c **** 	return twi_status;
 155:/Users/pthalamy/Studies/CMU/benchmark/build/src-bobby/hw-block/twi_master_driver.c **** }
 156:/Users/pthalamy/Studies/CMU/benchmark/build/src-bobby/hw-block/twi_master_driver.c **** 
 157:/Users/pthalamy/Studies/CMU/benchmark/build/src-bobby/hw-block/twi_master_driver.c **** 
 158:/Users/pthalamy/Studies/CMU/benchmark/build/src-bobby/hw-block/twi_master_driver.c **** /*! \brief TWI read transaction.
 159:/Users/pthalamy/Studies/CMU/benchmark/build/src-bobby/hw-block/twi_master_driver.c ****  *
 160:/Users/pthalamy/Studies/CMU/benchmark/build/src-bobby/hw-block/twi_master_driver.c ****  *  This function is a TWI Maste wrapper for read-only transaction.
 161:/Users/pthalamy/Studies/CMU/benchmark/build/src-bobby/hw-block/twi_master_driver.c ****  *
 162:/Users/pthalamy/Studies/CMU/benchmark/build/src-bobby/hw-block/twi_master_driver.c ****  *  \param twi            The TWI_Master_t struct instance.
 163:/Users/pthalamy/Studies/CMU/benchmark/build/src-bobby/hw-block/twi_master_driver.c ****  *  \param address        The slave address.
 164:/Users/pthalamy/Studies/CMU/benchmark/build/src-bobby/hw-block/twi_master_driver.c ****  *  \param bytesToRead    The number of bytes to read.
 165:/Users/pthalamy/Studies/CMU/benchmark/build/src-bobby/hw-block/twi_master_driver.c ****  *
 166:/Users/pthalamy/Studies/CMU/benchmark/build/src-bobby/hw-block/twi_master_driver.c ****  *  \retval true  If transaction could be started.
 167:/Users/pthalamy/Studies/CMU/benchmark/build/src-bobby/hw-block/twi_master_driver.c ****  *  \retval false If transaction could not be started.
 168:/Users/pthalamy/Studies/CMU/benchmark/build/src-bobby/hw-block/twi_master_driver.c ****  */
 169:/Users/pthalamy/Studies/CMU/benchmark/build/src-bobby/hw-block/twi_master_driver.c **** bool TWI_MasterRead(TWI_Master_t *twi,
 170:/Users/pthalamy/Studies/CMU/benchmark/build/src-bobby/hw-block/twi_master_driver.c ****                     uint8_t address,
 171:/Users/pthalamy/Studies/CMU/benchmark/build/src-bobby/hw-block/twi_master_driver.c ****                     uint8_t bytesToRead)
 172:/Users/pthalamy/Studies/CMU/benchmark/build/src-bobby/hw-block/twi_master_driver.c **** {
 173:/Users/pthalamy/Studies/CMU/benchmark/build/src-bobby/hw-block/twi_master_driver.c **** 	bool twi_status = TWI_MasterWriteRead(twi, address, 0, 0, bytesToRead);
 174:/Users/pthalamy/Studies/CMU/benchmark/build/src-bobby/hw-block/twi_master_driver.c **** 	return twi_status;
 175:/Users/pthalamy/Studies/CMU/benchmark/build/src-bobby/hw-block/twi_master_driver.c **** }
 176:/Users/pthalamy/Studies/CMU/benchmark/build/src-bobby/hw-block/twi_master_driver.c **** 
 177:/Users/pthalamy/Studies/CMU/benchmark/build/src-bobby/hw-block/twi_master_driver.c **** 
 178:/Users/pthalamy/Studies/CMU/benchmark/build/src-bobby/hw-block/twi_master_driver.c **** /*! \brief TWI write and/or read transaction.
 179:/Users/pthalamy/Studies/CMU/benchmark/build/src-bobby/hw-block/twi_master_driver.c ****  *
 180:/Users/pthalamy/Studies/CMU/benchmark/build/src-bobby/hw-block/twi_master_driver.c ****  *  This function is a TWI Master write and/or read transaction. The function
 181:/Users/pthalamy/Studies/CMU/benchmark/build/src-bobby/hw-block/twi_master_driver.c ****  *  can be used to both write and/or read bytes to/from the TWI Slave in one
 182:/Users/pthalamy/Studies/CMU/benchmark/build/src-bobby/hw-block/twi_master_driver.c ****  *  transaction.
 183:/Users/pthalamy/Studies/CMU/benchmark/build/src-bobby/hw-block/twi_master_driver.c ****  *
 184:/Users/pthalamy/Studies/CMU/benchmark/build/src-bobby/hw-block/twi_master_driver.c ****  *  \param twi            The TWI_Master_t struct instance.
 185:/Users/pthalamy/Studies/CMU/benchmark/build/src-bobby/hw-block/twi_master_driver.c ****  *  \param address        The slave address.
 186:/Users/pthalamy/Studies/CMU/benchmark/build/src-bobby/hw-block/twi_master_driver.c ****  *  \param writeData      Pointer to data to write.
 187:/Users/pthalamy/Studies/CMU/benchmark/build/src-bobby/hw-block/twi_master_driver.c ****  *  \param bytesToWrite   Number of bytes to write.
 188:/Users/pthalamy/Studies/CMU/benchmark/build/src-bobby/hw-block/twi_master_driver.c ****  *  \param bytesToRead    Number of bytes to read.
 189:/Users/pthalamy/Studies/CMU/benchmark/build/src-bobby/hw-block/twi_master_driver.c ****  *
 190:/Users/pthalamy/Studies/CMU/benchmark/build/src-bobby/hw-block/twi_master_driver.c ****  *  \retval true  If transaction could be started.
 191:/Users/pthalamy/Studies/CMU/benchmark/build/src-bobby/hw-block/twi_master_driver.c ****  *  \retval false If transaction could not be started.
 192:/Users/pthalamy/Studies/CMU/benchmark/build/src-bobby/hw-block/twi_master_driver.c ****  */
 193:/Users/pthalamy/Studies/CMU/benchmark/build/src-bobby/hw-block/twi_master_driver.c **** bool TWI_MasterWriteRead(TWI_Master_t *twi,
 194:/Users/pthalamy/Studies/CMU/benchmark/build/src-bobby/hw-block/twi_master_driver.c ****                          uint8_t address,
 195:/Users/pthalamy/Studies/CMU/benchmark/build/src-bobby/hw-block/twi_master_driver.c ****                          uint8_t *writeData,
 196:/Users/pthalamy/Studies/CMU/benchmark/build/src-bobby/hw-block/twi_master_driver.c ****                          uint8_t bytesToWrite,
 197:/Users/pthalamy/Studies/CMU/benchmark/build/src-bobby/hw-block/twi_master_driver.c ****                          uint8_t bytesToRead)
 198:/Users/pthalamy/Studies/CMU/benchmark/build/src-bobby/hw-block/twi_master_driver.c **** {
 199:/Users/pthalamy/Studies/CMU/benchmark/build/src-bobby/hw-block/twi_master_driver.c **** 	/*Parameter sanity check. */
 200:/Users/pthalamy/Studies/CMU/benchmark/build/src-bobby/hw-block/twi_master_driver.c **** 	if (bytesToWrite > TWIM_WRITE_BUFFER_SIZE) {
 119               		.loc 1 200 0
 120 003c 2530      		cpi r18,lo8(5)
 121 003e 00F4      		brsh .L12
 201:/Users/pthalamy/Studies/CMU/benchmark/build/src-bobby/hw-block/twi_master_driver.c **** 		return false;
 202:/Users/pthalamy/Studies/CMU/benchmark/build/src-bobby/hw-block/twi_master_driver.c **** 	}
 203:/Users/pthalamy/Studies/CMU/benchmark/build/src-bobby/hw-block/twi_master_driver.c **** 	if (bytesToRead > TWIM_READ_BUFFER_SIZE) {
 204:/Users/pthalamy/Studies/CMU/benchmark/build/src-bobby/hw-block/twi_master_driver.c **** 		return false;
 205:/Users/pthalamy/Studies/CMU/benchmark/build/src-bobby/hw-block/twi_master_driver.c **** 	}
 206:/Users/pthalamy/Studies/CMU/benchmark/build/src-bobby/hw-block/twi_master_driver.c **** 
 207:/Users/pthalamy/Studies/CMU/benchmark/build/src-bobby/hw-block/twi_master_driver.c **** 	/*Initiate transaction if bus is ready. */
 208:/Users/pthalamy/Studies/CMU/benchmark/build/src-bobby/hw-block/twi_master_driver.c **** 	if (twi->status == TWIM_STATUS_READY) {
 122               		.loc 1 208 0
 123 0040 8785      		ldd r24,Z+15
 124               	.LVL11:
 125 0042 8130      		cpi r24,lo8(1)
 126 0044 01F0      		breq .L17
 127               	.L12:
 201:/Users/pthalamy/Studies/CMU/benchmark/build/src-bobby/hw-block/twi_master_driver.c **** 		return false;
 128               		.loc 1 201 0
 129 0046 80E0      		ldi r24,0
 130               	.LVL12:
 131               	.L5:
 132               	/* epilogue start */
 133               	.LBE28:
 134               	.LBE27:
 155:/Users/pthalamy/Studies/CMU/benchmark/build/src-bobby/hw-block/twi_master_driver.c **** }
 135               		.loc 1 155 0
 136 0048 DF91      		pop r29
 137 004a CF91      		pop r28
 138 004c 0895      		ret
 139               	.LVL13:
 140               	.L17:
 141               	.LBB35:
 142               	.LBB34:
 209:/Users/pthalamy/Studies/CMU/benchmark/build/src-bobby/hw-block/twi_master_driver.c **** 
 210:/Users/pthalamy/Studies/CMU/benchmark/build/src-bobby/hw-block/twi_master_driver.c **** 		twi->status = TWIM_STATUS_BUSY;
 143               		.loc 1 210 0
 144 004e 8787      		std Z+15,r24
 211:/Users/pthalamy/Studies/CMU/benchmark/build/src-bobby/hw-block/twi_master_driver.c **** 		twi->result = TWIM_RESULT_UNKNOWN;
 145               		.loc 1 211 0
 146 0050 108A      		std Z+16,__zero_reg__
 212:/Users/pthalamy/Studies/CMU/benchmark/build/src-bobby/hw-block/twi_master_driver.c **** 
 213:/Users/pthalamy/Studies/CMU/benchmark/build/src-bobby/hw-block/twi_master_driver.c **** 		twi->address = address<<1;
 147               		.loc 1 213 0
 148 0052 660F      		lsl r22
 149               	.LVL14:
 150 0054 6283      		std Z+2,r22
 151               	.LVL15:
 152               	.LBB29:
 214:/Users/pthalamy/Studies/CMU/benchmark/build/src-bobby/hw-block/twi_master_driver.c **** 
 215:/Users/pthalamy/Studies/CMU/benchmark/build/src-bobby/hw-block/twi_master_driver.c **** 		/* Fill write data buffer. */
 216:/Users/pthalamy/Studies/CMU/benchmark/build/src-bobby/hw-block/twi_master_driver.c **** 		for (uint8_t bufferIndex=0; bufferIndex < bytesToWrite; bufferIndex++) {
 153               		.loc 1 216 0
 154 0056 2223      		tst r18
 155 0058 01F0      		breq .L10
 156 005a DA01      		movw r26,r20
 157 005c 80E0      		ldi r24,0
 158 005e 90E0      		ldi r25,0
 159               	.LVL16:
 160               	.L9:
 217:/Users/pthalamy/Studies/CMU/benchmark/build/src-bobby/hw-block/twi_master_driver.c **** 			twi->writeData[bufferIndex] = writeData[bufferIndex];
 161               		.loc 1 217 0
 162 0060 3D91      		ld r19,X+
 163 0062 EF01      		movw r28,r30
 164 0064 C80F      		add r28,r24
 165 0066 D91F      		adc r29,r25
 166 0068 3B83      		std Y+3,r19
 167 006a 0196      		adiw r24,1
 216:/Users/pthalamy/Studies/CMU/benchmark/build/src-bobby/hw-block/twi_master_driver.c **** 		for (uint8_t bufferIndex=0; bufferIndex < bytesToWrite; bufferIndex++) {
 168               		.loc 1 216 0
 169 006c 8217      		cp r24,r18
 170 006e 00F0      		brlo .L9
 171               	.L10:
 172               	.LBE29:
 218:/Users/pthalamy/Studies/CMU/benchmark/build/src-bobby/hw-block/twi_master_driver.c **** 		}
 219:/Users/pthalamy/Studies/CMU/benchmark/build/src-bobby/hw-block/twi_master_driver.c **** 
 220:/Users/pthalamy/Studies/CMU/benchmark/build/src-bobby/hw-block/twi_master_driver.c **** 		twi->bytesToWrite = bytesToWrite;
 173               		.loc 1 220 0
 174 0070 2387      		std Z+11,r18
 221:/Users/pthalamy/Studies/CMU/benchmark/build/src-bobby/hw-block/twi_master_driver.c **** 		twi->bytesToRead = bytesToRead;
 175               		.loc 1 221 0
 176 0072 1486      		std Z+12,__zero_reg__
 222:/Users/pthalamy/Studies/CMU/benchmark/build/src-bobby/hw-block/twi_master_driver.c **** 		twi->bytesWritten = 0;
 177               		.loc 1 222 0
 178 0074 1586      		std Z+13,__zero_reg__
 223:/Users/pthalamy/Studies/CMU/benchmark/build/src-bobby/hw-block/twi_master_driver.c **** 		twi->bytesRead = 0;
 179               		.loc 1 223 0
 180 0076 1686      		std Z+14,__zero_reg__
 224:/Users/pthalamy/Studies/CMU/benchmark/build/src-bobby/hw-block/twi_master_driver.c **** 
 225:/Users/pthalamy/Studies/CMU/benchmark/build/src-bobby/hw-block/twi_master_driver.c **** 		/* If write command, send the START condition + Address +
 226:/Users/pthalamy/Studies/CMU/benchmark/build/src-bobby/hw-block/twi_master_driver.c **** 		 * 'R/_W = 0'
 227:/Users/pthalamy/Studies/CMU/benchmark/build/src-bobby/hw-block/twi_master_driver.c **** 		 */
 228:/Users/pthalamy/Studies/CMU/benchmark/build/src-bobby/hw-block/twi_master_driver.c **** 		if (twi->bytesToWrite > 0) {
 181               		.loc 1 228 0
 182 0078 8385      		ldd r24,Z+11
 183 007a 8111      		cpse r24,__zero_reg__
 184 007c 00C0      		rjmp .L18
 229:/Users/pthalamy/Studies/CMU/benchmark/build/src-bobby/hw-block/twi_master_driver.c **** 			uint8_t writeAddress = twi->address & ~0x01;
 230:/Users/pthalamy/Studies/CMU/benchmark/build/src-bobby/hw-block/twi_master_driver.c **** 			twi->interface->MASTER.ADDR = writeAddress;
 231:/Users/pthalamy/Studies/CMU/benchmark/build/src-bobby/hw-block/twi_master_driver.c **** 		}
 232:/Users/pthalamy/Studies/CMU/benchmark/build/src-bobby/hw-block/twi_master_driver.c **** 
 233:/Users/pthalamy/Studies/CMU/benchmark/build/src-bobby/hw-block/twi_master_driver.c **** 		/* If read command, send the START condition + Address +
 234:/Users/pthalamy/Studies/CMU/benchmark/build/src-bobby/hw-block/twi_master_driver.c **** 		 * 'R/_W = 1'
 235:/Users/pthalamy/Studies/CMU/benchmark/build/src-bobby/hw-block/twi_master_driver.c **** 		 */
 236:/Users/pthalamy/Studies/CMU/benchmark/build/src-bobby/hw-block/twi_master_driver.c **** 		else if (twi->bytesToRead > 0) {
 185               		.loc 1 236 0
 186 007e 8485      		ldd r24,Z+12
 187 0080 8823      		tst r24
 188 0082 01F0      		breq .L13
 189               	.LVL17:
 190               	.LBB30:
 191               	.LBB31:
 192               	.LBB32:
 237:/Users/pthalamy/Studies/CMU/benchmark/build/src-bobby/hw-block/twi_master_driver.c **** 			uint8_t readAddress = twi->address | 0x01;
 193               		.loc 1 237 0
 194 0084 8281      		ldd r24,Z+2
 195 0086 8160      		ori r24,lo8(1)
 196               	.LVL18:
 238:/Users/pthalamy/Studies/CMU/benchmark/build/src-bobby/hw-block/twi_master_driver.c **** 			twi->interface->MASTER.ADDR = readAddress;
 197               		.loc 1 238 0
 198 0088 0190      		ld __tmp_reg__,Z+
 199 008a F081      		ld r31,Z
 200 008c E02D      		mov r30,__tmp_reg__
 201               	.LVL19:
 202 008e 8683      		std Z+6,r24
 203 0090 81E0      		ldi r24,lo8(1)
 204               	.LVL20:
 205 0092 00C0      		rjmp .L5
 206               	.LVL21:
 207               	.L18:
 208               	.LBE32:
 209               	.LBE31:
 210               	.LBE30:
 211               	.LBB33:
 229:/Users/pthalamy/Studies/CMU/benchmark/build/src-bobby/hw-block/twi_master_driver.c **** 			uint8_t writeAddress = twi->address & ~0x01;
 212               		.loc 1 229 0
 213 0094 8281      		ldd r24,Z+2
 214 0096 8E7F      		andi r24,lo8(-2)
 215               	.LVL22:
 230:/Users/pthalamy/Studies/CMU/benchmark/build/src-bobby/hw-block/twi_master_driver.c **** 			twi->interface->MASTER.ADDR = writeAddress;
 216               		.loc 1 230 0
 217 0098 0190      		ld __tmp_reg__,Z+
 218 009a F081      		ld r31,Z
 219 009c E02D      		mov r30,__tmp_reg__
 220               	.LVL23:
 221 009e 8683      		std Z+6,r24
 239:/Users/pthalamy/Studies/CMU/benchmark/build/src-bobby/hw-block/twi_master_driver.c **** 		}
 240:/Users/pthalamy/Studies/CMU/benchmark/build/src-bobby/hw-block/twi_master_driver.c **** 		return true;
 222               		.loc 1 240 0
 223 00a0 81E0      		ldi r24,lo8(1)
 224               	.LVL24:
 225 00a2 00C0      		rjmp .L5
 226               	.LVL25:
 227               	.L13:
 228               	.LBE33:
 229 00a4 81E0      		ldi r24,lo8(1)
 230 00a6 00C0      		rjmp .L5
 231               	.LBE34:
 232               	.LBE35:
 233               		.cfi_endproc
 234               	.LFE10:
 236               	.global	TWI_MasterRead
 238               	TWI_MasterRead:
 239               	.LFB11:
 172:/Users/pthalamy/Studies/CMU/benchmark/build/src-bobby/hw-block/twi_master_driver.c **** {
 240               		.loc 1 172 0
 241               		.cfi_startproc
 242               	.LVL26:
 243               	/* prologue: function */
 244               	/* frame size = 0 */
 245               	/* stack size = 0 */
 246               	.L__stack_usage = 0
 247 00a8 FC01      		movw r30,r24
 248               	.LVL27:
 249               	.LBB45:
 250               	.LBB46:
 203:/Users/pthalamy/Studies/CMU/benchmark/build/src-bobby/hw-block/twi_master_driver.c **** 	if (bytesToRead > TWIM_READ_BUFFER_SIZE) {
 251               		.loc 1 203 0
 252 00aa 4530      		cpi r20,lo8(5)
 253 00ac 00F4      		brsh .L23
 208:/Users/pthalamy/Studies/CMU/benchmark/build/src-bobby/hw-block/twi_master_driver.c **** 	if (twi->status == TWIM_STATUS_READY) {
 254               		.loc 1 208 0
 255 00ae 8785      		ldd r24,Z+15
 256               	.LVL28:
 257 00b0 8130      		cpi r24,lo8(1)
 258 00b2 01F0      		breq .L25
 259               	.L23:
 204:/Users/pthalamy/Studies/CMU/benchmark/build/src-bobby/hw-block/twi_master_driver.c **** 		return false;
 260               		.loc 1 204 0
 261 00b4 80E0      		ldi r24,0
 262 00b6 0895      		ret
 263               	.L25:
 210:/Users/pthalamy/Studies/CMU/benchmark/build/src-bobby/hw-block/twi_master_driver.c **** 		twi->status = TWIM_STATUS_BUSY;
 264               		.loc 1 210 0
 265 00b8 8787      		std Z+15,r24
 211:/Users/pthalamy/Studies/CMU/benchmark/build/src-bobby/hw-block/twi_master_driver.c **** 		twi->result = TWIM_RESULT_UNKNOWN;
 266               		.loc 1 211 0
 267 00ba 108A      		std Z+16,__zero_reg__
 213:/Users/pthalamy/Studies/CMU/benchmark/build/src-bobby/hw-block/twi_master_driver.c **** 		twi->address = address<<1;
 268               		.loc 1 213 0
 269 00bc 660F      		lsl r22
 270               	.LVL29:
 271 00be 6283      		std Z+2,r22
 272               	.LVL30:
 220:/Users/pthalamy/Studies/CMU/benchmark/build/src-bobby/hw-block/twi_master_driver.c **** 		twi->bytesToWrite = bytesToWrite;
 273               		.loc 1 220 0
 274 00c0 1386      		std Z+11,__zero_reg__
 221:/Users/pthalamy/Studies/CMU/benchmark/build/src-bobby/hw-block/twi_master_driver.c **** 		twi->bytesToRead = bytesToRead;
 275               		.loc 1 221 0
 276 00c2 4487      		std Z+12,r20
 222:/Users/pthalamy/Studies/CMU/benchmark/build/src-bobby/hw-block/twi_master_driver.c **** 		twi->bytesWritten = 0;
 277               		.loc 1 222 0
 278 00c4 1586      		std Z+13,__zero_reg__
 223:/Users/pthalamy/Studies/CMU/benchmark/build/src-bobby/hw-block/twi_master_driver.c **** 		twi->bytesRead = 0;
 279               		.loc 1 223 0
 280 00c6 1686      		std Z+14,__zero_reg__
 228:/Users/pthalamy/Studies/CMU/benchmark/build/src-bobby/hw-block/twi_master_driver.c **** 		if (twi->bytesToWrite > 0) {
 281               		.loc 1 228 0
 282 00c8 8385      		ldd r24,Z+11
 283 00ca 8111      		cpse r24,__zero_reg__
 284 00cc 00C0      		rjmp .L26
 236:/Users/pthalamy/Studies/CMU/benchmark/build/src-bobby/hw-block/twi_master_driver.c **** 		else if (twi->bytesToRead > 0) {
 285               		.loc 1 236 0
 286 00ce 8485      		ldd r24,Z+12
 287 00d0 8823      		tst r24
 288 00d2 01F0      		breq .L24
 289               	.LVL31:
 290               	.LBB47:
 291               	.LBB48:
 292               	.LBB49:
 237:/Users/pthalamy/Studies/CMU/benchmark/build/src-bobby/hw-block/twi_master_driver.c **** 			uint8_t readAddress = twi->address | 0x01;
 293               		.loc 1 237 0
 294 00d4 8281      		ldd r24,Z+2
 295 00d6 8160      		ori r24,lo8(1)
 296               	.LVL32:
 238:/Users/pthalamy/Studies/CMU/benchmark/build/src-bobby/hw-block/twi_master_driver.c **** 			twi->interface->MASTER.ADDR = readAddress;
 297               		.loc 1 238 0
 298 00d8 0190      		ld __tmp_reg__,Z+
 299 00da F081      		ld r31,Z
 300 00dc E02D      		mov r30,__tmp_reg__
 301               	.LVL33:
 302 00de 8683      		std Z+6,r24
 303 00e0 81E0      		ldi r24,lo8(1)
 304               	.LVL34:
 305 00e2 0895      		ret
 306               	.LVL35:
 307               	.L26:
 308               	.LBE49:
 309               	.LBE48:
 310               	.LBE47:
 311               	.LBB50:
 229:/Users/pthalamy/Studies/CMU/benchmark/build/src-bobby/hw-block/twi_master_driver.c **** 			uint8_t writeAddress = twi->address & ~0x01;
 312               		.loc 1 229 0
 313 00e4 8281      		ldd r24,Z+2
 314 00e6 8E7F      		andi r24,lo8(-2)
 315               	.LVL36:
 230:/Users/pthalamy/Studies/CMU/benchmark/build/src-bobby/hw-block/twi_master_driver.c **** 			twi->interface->MASTER.ADDR = writeAddress;
 316               		.loc 1 230 0
 317 00e8 0190      		ld __tmp_reg__,Z+
 318 00ea F081      		ld r31,Z
 319 00ec E02D      		mov r30,__tmp_reg__
 320               	.LVL37:
 321 00ee 8683      		std Z+6,r24
 322               		.loc 1 240 0
 323 00f0 81E0      		ldi r24,lo8(1)
 324               	.LVL38:
 325 00f2 0895      		ret
 326               	.LVL39:
 327               	.L24:
 328               	.LBE50:
 329 00f4 81E0      		ldi r24,lo8(1)
 330               	.LBE46:
 331               	.LBE45:
 175:/Users/pthalamy/Studies/CMU/benchmark/build/src-bobby/hw-block/twi_master_driver.c **** }
 332               		.loc 1 175 0
 333 00f6 0895      		ret
 334               		.cfi_endproc
 335               	.LFE11:
 337               	.global	TWI_MasterWriteRead
 339               	TWI_MasterWriteRead:
 340               	.LFB12:
 198:/Users/pthalamy/Studies/CMU/benchmark/build/src-bobby/hw-block/twi_master_driver.c **** {
 341               		.loc 1 198 0
 342               		.cfi_startproc
 343               	.LVL40:
 344 00f8 0F93      		push r16
 345               	.LCFI2:
 346               		.cfi_def_cfa_offset 4
 347               		.cfi_offset 16, -3
 348               	/* prologue: function */
 349               	/* frame size = 0 */
 350               	/* stack size = 1 */
 351               	.L__stack_usage = 1
 200:/Users/pthalamy/Studies/CMU/benchmark/build/src-bobby/hw-block/twi_master_driver.c **** 	if (bytesToWrite > TWIM_WRITE_BUFFER_SIZE) {
 352               		.loc 1 200 0
 353 00fa 2530      		cpi r18,lo8(5)
 354 00fc 00F4      		brsh .L36
 203:/Users/pthalamy/Studies/CMU/benchmark/build/src-bobby/hw-block/twi_master_driver.c **** 	if (bytesToRead > TWIM_READ_BUFFER_SIZE) {
 355               		.loc 1 203 0
 356 00fe 0530      		cpi r16,lo8(5)
 357 0100 00F4      		brsh .L36
 208:/Users/pthalamy/Studies/CMU/benchmark/build/src-bobby/hw-block/twi_master_driver.c **** 	if (twi->status == TWIM_STATUS_READY) {
 358               		.loc 1 208 0
 359 0102 DC01      		movw r26,r24
 360 0104 1F96      		adiw r26,15
 361 0106 3C91      		ld r19,X
 362 0108 1F97      		sbiw r26,15
 363 010a 3130      		cpi r19,lo8(1)
 364 010c 01F0      		breq .L40
 365               	.L36:
 201:/Users/pthalamy/Studies/CMU/benchmark/build/src-bobby/hw-block/twi_master_driver.c **** 		return false;
 366               		.loc 1 201 0
 367 010e 80E0      		ldi r24,0
 368               	.LVL41:
 369               	.L28:
 370               	/* epilogue start */
 241:/Users/pthalamy/Studies/CMU/benchmark/build/src-bobby/hw-block/twi_master_driver.c **** 	} else {
 242:/Users/pthalamy/Studies/CMU/benchmark/build/src-bobby/hw-block/twi_master_driver.c **** 		return false;
 243:/Users/pthalamy/Studies/CMU/benchmark/build/src-bobby/hw-block/twi_master_driver.c **** 	}
 244:/Users/pthalamy/Studies/CMU/benchmark/build/src-bobby/hw-block/twi_master_driver.c **** }
 371               		.loc 1 244 0
 372 0110 0F91      		pop r16
 373               	.LVL42:
 374 0112 0895      		ret
 375               	.LVL43:
 376               	.L40:
 210:/Users/pthalamy/Studies/CMU/benchmark/build/src-bobby/hw-block/twi_master_driver.c **** 		twi->status = TWIM_STATUS_BUSY;
 377               		.loc 1 210 0
 378 0114 1F96      		adiw r26,15
 379 0116 3C93      		st X,r19
 380 0118 1F97      		sbiw r26,15
 211:/Users/pthalamy/Studies/CMU/benchmark/build/src-bobby/hw-block/twi_master_driver.c **** 		twi->result = TWIM_RESULT_UNKNOWN;
 381               		.loc 1 211 0
 382 011a 5096      		adiw r26,16
 383 011c 1C92      		st X,__zero_reg__
 384 011e 5097      		sbiw r26,16
 213:/Users/pthalamy/Studies/CMU/benchmark/build/src-bobby/hw-block/twi_master_driver.c **** 		twi->address = address<<1;
 385               		.loc 1 213 0
 386 0120 660F      		lsl r22
 387               	.LVL44:
 388 0122 1296      		adiw r26,2
 389 0124 6C93      		st X,r22
 390               	.LVL45:
 391               	.LBB58:
 216:/Users/pthalamy/Studies/CMU/benchmark/build/src-bobby/hw-block/twi_master_driver.c **** 		for (uint8_t bufferIndex=0; bufferIndex < bytesToWrite; bufferIndex++) {
 392               		.loc 1 216 0
 393 0126 2223      		tst r18
 394 0128 01F0      		breq .L33
 395 012a FA01      		movw r30,r20
 396 012c 40E0      		ldi r20,0
 397 012e 50E0      		ldi r21,0
 398               	.LVL46:
 399               	.L32:
 217:/Users/pthalamy/Studies/CMU/benchmark/build/src-bobby/hw-block/twi_master_driver.c **** 			twi->writeData[bufferIndex] = writeData[bufferIndex];
 400               		.loc 1 217 0 discriminator 2
 401 0130 3191      		ld r19,Z+
 402 0132 DC01      		movw r26,r24
 403 0134 A40F      		add r26,r20
 404 0136 B51F      		adc r27,r21
 405 0138 1396      		adiw r26,3
 406 013a 3C93      		st X,r19
 407 013c 4F5F      		subi r20,-1
 408 013e 5F4F      		sbci r21,-1
 216:/Users/pthalamy/Studies/CMU/benchmark/build/src-bobby/hw-block/twi_master_driver.c **** 		for (uint8_t bufferIndex=0; bufferIndex < bytesToWrite; bufferIndex++) {
 409               		.loc 1 216 0 discriminator 2
 410 0140 4217      		cp r20,r18
 411 0142 00F0      		brlo .L32
 412               	.L33:
 413               	.LBE58:
 220:/Users/pthalamy/Studies/CMU/benchmark/build/src-bobby/hw-block/twi_master_driver.c **** 		twi->bytesToWrite = bytesToWrite;
 414               		.loc 1 220 0
 415 0144 FC01      		movw r30,r24
 416 0146 2387      		std Z+11,r18
 221:/Users/pthalamy/Studies/CMU/benchmark/build/src-bobby/hw-block/twi_master_driver.c **** 		twi->bytesToRead = bytesToRead;
 417               		.loc 1 221 0
 418 0148 0487      		std Z+12,r16
 222:/Users/pthalamy/Studies/CMU/benchmark/build/src-bobby/hw-block/twi_master_driver.c **** 		twi->bytesWritten = 0;
 419               		.loc 1 222 0
 420 014a 1586      		std Z+13,__zero_reg__
 223:/Users/pthalamy/Studies/CMU/benchmark/build/src-bobby/hw-block/twi_master_driver.c **** 		twi->bytesRead = 0;
 421               		.loc 1 223 0
 422 014c 1686      		std Z+14,__zero_reg__
 228:/Users/pthalamy/Studies/CMU/benchmark/build/src-bobby/hw-block/twi_master_driver.c **** 		if (twi->bytesToWrite > 0) {
 423               		.loc 1 228 0
 424 014e 2385      		ldd r18,Z+11
 425               	.LVL47:
 426 0150 2111      		cpse r18,__zero_reg__
 427 0152 00C0      		rjmp .L41
 428               	.LVL48:
 236:/Users/pthalamy/Studies/CMU/benchmark/build/src-bobby/hw-block/twi_master_driver.c **** 		else if (twi->bytesToRead > 0) {
 429               		.loc 1 236 0
 430 0154 FC01      		movw r30,r24
 431 0156 2485      		ldd r18,Z+12
 432 0158 2223      		tst r18
 433 015a 01F0      		breq .L37
 434               	.LBB59:
 435               	.LBB60:
 436               	.LBB61:
 237:/Users/pthalamy/Studies/CMU/benchmark/build/src-bobby/hw-block/twi_master_driver.c **** 			uint8_t readAddress = twi->address | 0x01;
 437               		.loc 1 237 0
 438 015c 2281      		ldd r18,Z+2
 439 015e 2160      		ori r18,lo8(1)
 440               	.LVL49:
 238:/Users/pthalamy/Studies/CMU/benchmark/build/src-bobby/hw-block/twi_master_driver.c **** 			twi->interface->MASTER.ADDR = readAddress;
 441               		.loc 1 238 0
 442 0160 0190      		ld __tmp_reg__,Z+
 443 0162 F081      		ld r31,Z
 444 0164 E02D      		mov r30,__tmp_reg__
 445 0166 2683      		std Z+6,r18
 446 0168 81E0      		ldi r24,lo8(1)
 447               	.LVL50:
 448 016a 00C0      		rjmp .L28
 449               	.LVL51:
 450               	.L41:
 451               	.LBE61:
 452               	.LBE60:
 453               	.LBE59:
 454               	.LBB62:
 229:/Users/pthalamy/Studies/CMU/benchmark/build/src-bobby/hw-block/twi_master_driver.c **** 			uint8_t writeAddress = twi->address & ~0x01;
 455               		.loc 1 229 0
 456 016c 2281      		ldd r18,Z+2
 457 016e 2E7F      		andi r18,lo8(-2)
 458               	.LVL52:
 230:/Users/pthalamy/Studies/CMU/benchmark/build/src-bobby/hw-block/twi_master_driver.c **** 			twi->interface->MASTER.ADDR = writeAddress;
 459               		.loc 1 230 0
 460 0170 0190      		ld __tmp_reg__,Z+
 461 0172 F081      		ld r31,Z
 462 0174 E02D      		mov r30,__tmp_reg__
 463 0176 2683      		std Z+6,r18
 240:/Users/pthalamy/Studies/CMU/benchmark/build/src-bobby/hw-block/twi_master_driver.c **** 		return true;
 464               		.loc 1 240 0
 465 0178 81E0      		ldi r24,lo8(1)
 466               	.LVL53:
 467 017a 00C0      		rjmp .L28
 468               	.LVL54:
 469               	.L37:
 470               	.LBE62:
 471 017c 81E0      		ldi r24,lo8(1)
 472               	.LVL55:
 473 017e 00C0      		rjmp .L28
 474               		.cfi_endproc
 475               	.LFE12:
 477               	.global	TWI_MasterInterruptHandler
 479               	TWI_MasterInterruptHandler:
 480               	.LFB13:
 245:/Users/pthalamy/Studies/CMU/benchmark/build/src-bobby/hw-block/twi_master_driver.c **** 
 246:/Users/pthalamy/Studies/CMU/benchmark/build/src-bobby/hw-block/twi_master_driver.c **** 
 247:/Users/pthalamy/Studies/CMU/benchmark/build/src-bobby/hw-block/twi_master_driver.c **** /*! \brief Common TWI master interrupt service routine.
 248:/Users/pthalamy/Studies/CMU/benchmark/build/src-bobby/hw-block/twi_master_driver.c ****  *
 249:/Users/pthalamy/Studies/CMU/benchmark/build/src-bobby/hw-block/twi_master_driver.c ****  *  Check current status and calls the appropriate handler.
 250:/Users/pthalamy/Studies/CMU/benchmark/build/src-bobby/hw-block/twi_master_driver.c ****  *
 251:/Users/pthalamy/Studies/CMU/benchmark/build/src-bobby/hw-block/twi_master_driver.c ****  *  \param twi  The TWI_Master_t struct instance.
 252:/Users/pthalamy/Studies/CMU/benchmark/build/src-bobby/hw-block/twi_master_driver.c ****  */
 253:/Users/pthalamy/Studies/CMU/benchmark/build/src-bobby/hw-block/twi_master_driver.c **** void TWI_MasterInterruptHandler(TWI_Master_t *twi)
 254:/Users/pthalamy/Studies/CMU/benchmark/build/src-bobby/hw-block/twi_master_driver.c **** {
 481               		.loc 1 254 0
 482               		.cfi_startproc
 483               	.LVL56:
 484 0180 CF93      		push r28
 485               	.LCFI3:
 486               		.cfi_def_cfa_offset 4
 487               		.cfi_offset 28, -3
 488 0182 DF93      		push r29
 489               	.LCFI4:
 490               		.cfi_def_cfa_offset 5
 491               		.cfi_offset 29, -4
 492               	/* prologue: function */
 493               	/* frame size = 0 */
 494               	/* stack size = 2 */
 495               	.L__stack_usage = 2
 496 0184 FC01      		movw r30,r24
 255:/Users/pthalamy/Studies/CMU/benchmark/build/src-bobby/hw-block/twi_master_driver.c **** 	uint8_t currentStatus = twi->interface->MASTER.STATUS;
 497               		.loc 1 255 0
 498 0186 A081      		ld r26,Z
 499 0188 B181      		ldd r27,Z+1
 500 018a 1496      		adiw r26,4
 501 018c 8C91      		ld r24,X
 502 018e 1497      		sbiw r26,4
 503               	.LVL57:
 253:/Users/pthalamy/Studies/CMU/benchmark/build/src-bobby/hw-block/twi_master_driver.c **** void TWI_MasterInterruptHandler(TWI_Master_t *twi)
 504               		.loc 1 253 0
 505 0190 982F      		mov r25,r24
 506 0192 9C70      		andi r25,lo8(12)
 256:/Users/pthalamy/Studies/CMU/benchmark/build/src-bobby/hw-block/twi_master_driver.c **** 
 257:/Users/pthalamy/Studies/CMU/benchmark/build/src-bobby/hw-block/twi_master_driver.c **** 	/* If arbitration lost or bus error. */
 258:/Users/pthalamy/Studies/CMU/benchmark/build/src-bobby/hw-block/twi_master_driver.c **** 	if ((currentStatus & TWI_MASTER_ARBLOST_bm) ||
 507               		.loc 1 258 0
 508 0194 01F4      		brne .L55
 259:/Users/pthalamy/Studies/CMU/benchmark/build/src-bobby/hw-block/twi_master_driver.c **** 	    (currentStatus & TWI_MASTER_BUSERR_bm)) {
 260:/Users/pthalamy/Studies/CMU/benchmark/build/src-bobby/hw-block/twi_master_driver.c **** 
 261:/Users/pthalamy/Studies/CMU/benchmark/build/src-bobby/hw-block/twi_master_driver.c **** 		TWI_MasterArbitrationLostBusErrorHandler(twi);
 262:/Users/pthalamy/Studies/CMU/benchmark/build/src-bobby/hw-block/twi_master_driver.c **** 	}
 263:/Users/pthalamy/Studies/CMU/benchmark/build/src-bobby/hw-block/twi_master_driver.c **** 
 264:/Users/pthalamy/Studies/CMU/benchmark/build/src-bobby/hw-block/twi_master_driver.c **** 	/* If master write interrupt. */
 265:/Users/pthalamy/Studies/CMU/benchmark/build/src-bobby/hw-block/twi_master_driver.c **** 	else if (currentStatus & TWI_MASTER_WIF_bm) {
 509               		.loc 1 265 0
 510 0196 86FD      		sbrc r24,6
 511 0198 00C0      		rjmp .L56
 266:/Users/pthalamy/Studies/CMU/benchmark/build/src-bobby/hw-block/twi_master_driver.c **** 		TWI_MasterWriteHandler(twi);
 267:/Users/pthalamy/Studies/CMU/benchmark/build/src-bobby/hw-block/twi_master_driver.c **** 	}
 268:/Users/pthalamy/Studies/CMU/benchmark/build/src-bobby/hw-block/twi_master_driver.c **** 
 269:/Users/pthalamy/Studies/CMU/benchmark/build/src-bobby/hw-block/twi_master_driver.c **** 	/* If master read interrupt. */
 270:/Users/pthalamy/Studies/CMU/benchmark/build/src-bobby/hw-block/twi_master_driver.c **** 	else if (currentStatus & TWI_MASTER_RIF_bm) {
 512               		.loc 1 270 0
 513 019a 87FD      		sbrc r24,7
 514 019c 00C0      		rjmp .L57
 515               	.LVL58:
 516               	.LBB80:
 517               	.LBB81:
 271:/Users/pthalamy/Studies/CMU/benchmark/build/src-bobby/hw-block/twi_master_driver.c **** 		TWI_MasterReadHandler(twi);
 272:/Users/pthalamy/Studies/CMU/benchmark/build/src-bobby/hw-block/twi_master_driver.c **** 	}
 273:/Users/pthalamy/Studies/CMU/benchmark/build/src-bobby/hw-block/twi_master_driver.c **** 
 274:/Users/pthalamy/Studies/CMU/benchmark/build/src-bobby/hw-block/twi_master_driver.c **** 	/* If unexpected state. */
 275:/Users/pthalamy/Studies/CMU/benchmark/build/src-bobby/hw-block/twi_master_driver.c **** 	else {
 276:/Users/pthalamy/Studies/CMU/benchmark/build/src-bobby/hw-block/twi_master_driver.c **** 		TWI_MasterTransactionFinished(twi, TWIM_RESULT_FAIL);
 277:/Users/pthalamy/Studies/CMU/benchmark/build/src-bobby/hw-block/twi_master_driver.c **** 	}
 278:/Users/pthalamy/Studies/CMU/benchmark/build/src-bobby/hw-block/twi_master_driver.c **** }
 279:/Users/pthalamy/Studies/CMU/benchmark/build/src-bobby/hw-block/twi_master_driver.c **** 
 280:/Users/pthalamy/Studies/CMU/benchmark/build/src-bobby/hw-block/twi_master_driver.c **** 
 281:/Users/pthalamy/Studies/CMU/benchmark/build/src-bobby/hw-block/twi_master_driver.c **** /*! \brief TWI master arbitration lost and bus error interrupt handler.
 282:/Users/pthalamy/Studies/CMU/benchmark/build/src-bobby/hw-block/twi_master_driver.c ****  *
 283:/Users/pthalamy/Studies/CMU/benchmark/build/src-bobby/hw-block/twi_master_driver.c ****  *  Handles TWI responses to lost arbitration and bus error.
 284:/Users/pthalamy/Studies/CMU/benchmark/build/src-bobby/hw-block/twi_master_driver.c ****  *
 285:/Users/pthalamy/Studies/CMU/benchmark/build/src-bobby/hw-block/twi_master_driver.c ****  *  \param twi  The TWI_Master_t struct instance.
 286:/Users/pthalamy/Studies/CMU/benchmark/build/src-bobby/hw-block/twi_master_driver.c ****  */
 287:/Users/pthalamy/Studies/CMU/benchmark/build/src-bobby/hw-block/twi_master_driver.c **** void TWI_MasterArbitrationLostBusErrorHandler(TWI_Master_t *twi)
 288:/Users/pthalamy/Studies/CMU/benchmark/build/src-bobby/hw-block/twi_master_driver.c **** {
 289:/Users/pthalamy/Studies/CMU/benchmark/build/src-bobby/hw-block/twi_master_driver.c **** 	uint8_t currentStatus = twi->interface->MASTER.STATUS;
 290:/Users/pthalamy/Studies/CMU/benchmark/build/src-bobby/hw-block/twi_master_driver.c **** 
 291:/Users/pthalamy/Studies/CMU/benchmark/build/src-bobby/hw-block/twi_master_driver.c **** 	/* If bus error. */
 292:/Users/pthalamy/Studies/CMU/benchmark/build/src-bobby/hw-block/twi_master_driver.c **** 	if (currentStatus & TWI_MASTER_BUSERR_bm) {
 293:/Users/pthalamy/Studies/CMU/benchmark/build/src-bobby/hw-block/twi_master_driver.c **** 		twi->result = TWIM_RESULT_BUS_ERROR;
 294:/Users/pthalamy/Studies/CMU/benchmark/build/src-bobby/hw-block/twi_master_driver.c **** 	}
 295:/Users/pthalamy/Studies/CMU/benchmark/build/src-bobby/hw-block/twi_master_driver.c **** 	/* If arbitration lost. */
 296:/Users/pthalamy/Studies/CMU/benchmark/build/src-bobby/hw-block/twi_master_driver.c **** 	else {
 297:/Users/pthalamy/Studies/CMU/benchmark/build/src-bobby/hw-block/twi_master_driver.c **** 		twi->result = TWIM_RESULT_ARBITRATION_LOST;
 298:/Users/pthalamy/Studies/CMU/benchmark/build/src-bobby/hw-block/twi_master_driver.c **** 	}
 299:/Users/pthalamy/Studies/CMU/benchmark/build/src-bobby/hw-block/twi_master_driver.c **** 
 300:/Users/pthalamy/Studies/CMU/benchmark/build/src-bobby/hw-block/twi_master_driver.c **** 	/* Clear interrupt flag. */
 301:/Users/pthalamy/Studies/CMU/benchmark/build/src-bobby/hw-block/twi_master_driver.c **** 	twi->interface->MASTER.STATUS = currentStatus | TWI_MASTER_ARBLOST_bm;
 302:/Users/pthalamy/Studies/CMU/benchmark/build/src-bobby/hw-block/twi_master_driver.c **** 
 303:/Users/pthalamy/Studies/CMU/benchmark/build/src-bobby/hw-block/twi_master_driver.c **** 	twi->status = TWIM_STATUS_READY;
 304:/Users/pthalamy/Studies/CMU/benchmark/build/src-bobby/hw-block/twi_master_driver.c **** }
 305:/Users/pthalamy/Studies/CMU/benchmark/build/src-bobby/hw-block/twi_master_driver.c **** 
 306:/Users/pthalamy/Studies/CMU/benchmark/build/src-bobby/hw-block/twi_master_driver.c **** 
 307:/Users/pthalamy/Studies/CMU/benchmark/build/src-bobby/hw-block/twi_master_driver.c **** /*! \brief TWI master write interrupt handler.
 308:/Users/pthalamy/Studies/CMU/benchmark/build/src-bobby/hw-block/twi_master_driver.c ****  *
 309:/Users/pthalamy/Studies/CMU/benchmark/build/src-bobby/hw-block/twi_master_driver.c ****  *  Handles TWI transactions (master write) and responses to (N)ACK.
 310:/Users/pthalamy/Studies/CMU/benchmark/build/src-bobby/hw-block/twi_master_driver.c ****  *
 311:/Users/pthalamy/Studies/CMU/benchmark/build/src-bobby/hw-block/twi_master_driver.c ****  *  \param twi The TWI_Master_t struct instance.
 312:/Users/pthalamy/Studies/CMU/benchmark/build/src-bobby/hw-block/twi_master_driver.c ****  */
 313:/Users/pthalamy/Studies/CMU/benchmark/build/src-bobby/hw-block/twi_master_driver.c **** void TWI_MasterWriteHandler(TWI_Master_t *twi)
 314:/Users/pthalamy/Studies/CMU/benchmark/build/src-bobby/hw-block/twi_master_driver.c **** {
 315:/Users/pthalamy/Studies/CMU/benchmark/build/src-bobby/hw-block/twi_master_driver.c **** 	/* Local variables used in if tests to avoid compiler warning. */
 316:/Users/pthalamy/Studies/CMU/benchmark/build/src-bobby/hw-block/twi_master_driver.c **** 	uint8_t bytesToWrite  = twi->bytesToWrite;
 317:/Users/pthalamy/Studies/CMU/benchmark/build/src-bobby/hw-block/twi_master_driver.c **** 	uint8_t bytesToRead   = twi->bytesToRead;
 318:/Users/pthalamy/Studies/CMU/benchmark/build/src-bobby/hw-block/twi_master_driver.c **** 
 319:/Users/pthalamy/Studies/CMU/benchmark/build/src-bobby/hw-block/twi_master_driver.c **** 	/* If NOT acknowledged (NACK) by slave cancel the transaction. */
 320:/Users/pthalamy/Studies/CMU/benchmark/build/src-bobby/hw-block/twi_master_driver.c **** 	if (twi->interface->MASTER.STATUS & TWI_MASTER_RXACK_bm) {
 321:/Users/pthalamy/Studies/CMU/benchmark/build/src-bobby/hw-block/twi_master_driver.c **** 		twi->interface->MASTER.CTRLC = TWI_MASTER_CMD_STOP_gc;
 322:/Users/pthalamy/Studies/CMU/benchmark/build/src-bobby/hw-block/twi_master_driver.c **** 		twi->result = TWIM_RESULT_NACK_RECEIVED;
 323:/Users/pthalamy/Studies/CMU/benchmark/build/src-bobby/hw-block/twi_master_driver.c **** 		twi->status = TWIM_STATUS_READY;
 324:/Users/pthalamy/Studies/CMU/benchmark/build/src-bobby/hw-block/twi_master_driver.c **** 	}
 325:/Users/pthalamy/Studies/CMU/benchmark/build/src-bobby/hw-block/twi_master_driver.c **** 
 326:/Users/pthalamy/Studies/CMU/benchmark/build/src-bobby/hw-block/twi_master_driver.c **** 	/* If more bytes to write, send data. */
 327:/Users/pthalamy/Studies/CMU/benchmark/build/src-bobby/hw-block/twi_master_driver.c **** 	else if (twi->bytesWritten < bytesToWrite) {
 328:/Users/pthalamy/Studies/CMU/benchmark/build/src-bobby/hw-block/twi_master_driver.c **** 		uint8_t data = twi->writeData[twi->bytesWritten];
 329:/Users/pthalamy/Studies/CMU/benchmark/build/src-bobby/hw-block/twi_master_driver.c **** 		twi->interface->MASTER.DATA = data;
 330:/Users/pthalamy/Studies/CMU/benchmark/build/src-bobby/hw-block/twi_master_driver.c **** 		++twi->bytesWritten;
 331:/Users/pthalamy/Studies/CMU/benchmark/build/src-bobby/hw-block/twi_master_driver.c **** 	}
 332:/Users/pthalamy/Studies/CMU/benchmark/build/src-bobby/hw-block/twi_master_driver.c **** 
 333:/Users/pthalamy/Studies/CMU/benchmark/build/src-bobby/hw-block/twi_master_driver.c **** 	/* If bytes to read, send repeated START condition + Address +
 334:/Users/pthalamy/Studies/CMU/benchmark/build/src-bobby/hw-block/twi_master_driver.c **** 	 * 'R/_W = 1'
 335:/Users/pthalamy/Studies/CMU/benchmark/build/src-bobby/hw-block/twi_master_driver.c **** 	 */
 336:/Users/pthalamy/Studies/CMU/benchmark/build/src-bobby/hw-block/twi_master_driver.c **** 	else if (twi->bytesRead < bytesToRead) {
 337:/Users/pthalamy/Studies/CMU/benchmark/build/src-bobby/hw-block/twi_master_driver.c **** 		uint8_t readAddress = twi->address | 0x01;
 338:/Users/pthalamy/Studies/CMU/benchmark/build/src-bobby/hw-block/twi_master_driver.c **** 		twi->interface->MASTER.ADDR = readAddress;
 339:/Users/pthalamy/Studies/CMU/benchmark/build/src-bobby/hw-block/twi_master_driver.c **** 	}
 340:/Users/pthalamy/Studies/CMU/benchmark/build/src-bobby/hw-block/twi_master_driver.c **** 
 341:/Users/pthalamy/Studies/CMU/benchmark/build/src-bobby/hw-block/twi_master_driver.c **** 	/* If transaction finished, send STOP condition and set RESULT OK. */
 342:/Users/pthalamy/Studies/CMU/benchmark/build/src-bobby/hw-block/twi_master_driver.c **** 	else {
 343:/Users/pthalamy/Studies/CMU/benchmark/build/src-bobby/hw-block/twi_master_driver.c **** 		twi->interface->MASTER.CTRLC = TWI_MASTER_CMD_STOP_gc;
 344:/Users/pthalamy/Studies/CMU/benchmark/build/src-bobby/hw-block/twi_master_driver.c **** 		TWI_MasterTransactionFinished(twi, TWIM_RESULT_OK);
 345:/Users/pthalamy/Studies/CMU/benchmark/build/src-bobby/hw-block/twi_master_driver.c **** 	}
 346:/Users/pthalamy/Studies/CMU/benchmark/build/src-bobby/hw-block/twi_master_driver.c **** }
 347:/Users/pthalamy/Studies/CMU/benchmark/build/src-bobby/hw-block/twi_master_driver.c **** 
 348:/Users/pthalamy/Studies/CMU/benchmark/build/src-bobby/hw-block/twi_master_driver.c **** 
 349:/Users/pthalamy/Studies/CMU/benchmark/build/src-bobby/hw-block/twi_master_driver.c **** /*! \brief TWI master read interrupt handler.
 350:/Users/pthalamy/Studies/CMU/benchmark/build/src-bobby/hw-block/twi_master_driver.c ****  *
 351:/Users/pthalamy/Studies/CMU/benchmark/build/src-bobby/hw-block/twi_master_driver.c ****  *  This is the master read interrupt handler that takes care of
 352:/Users/pthalamy/Studies/CMU/benchmark/build/src-bobby/hw-block/twi_master_driver.c ****  *  reading bytes from the TWI slave.
 353:/Users/pthalamy/Studies/CMU/benchmark/build/src-bobby/hw-block/twi_master_driver.c ****  *
 354:/Users/pthalamy/Studies/CMU/benchmark/build/src-bobby/hw-block/twi_master_driver.c ****  *  \param twi The TWI_Master_t struct instance.
 355:/Users/pthalamy/Studies/CMU/benchmark/build/src-bobby/hw-block/twi_master_driver.c ****  */
 356:/Users/pthalamy/Studies/CMU/benchmark/build/src-bobby/hw-block/twi_master_driver.c **** void TWI_MasterReadHandler(TWI_Master_t *twi)
 357:/Users/pthalamy/Studies/CMU/benchmark/build/src-bobby/hw-block/twi_master_driver.c **** {
 358:/Users/pthalamy/Studies/CMU/benchmark/build/src-bobby/hw-block/twi_master_driver.c **** 	/* Fetch data if bytes to be read. */
 359:/Users/pthalamy/Studies/CMU/benchmark/build/src-bobby/hw-block/twi_master_driver.c **** 	if (twi->bytesRead < TWIM_READ_BUFFER_SIZE) {
 360:/Users/pthalamy/Studies/CMU/benchmark/build/src-bobby/hw-block/twi_master_driver.c **** 		uint8_t data = twi->interface->MASTER.DATA;
 361:/Users/pthalamy/Studies/CMU/benchmark/build/src-bobby/hw-block/twi_master_driver.c **** 		twi->readData[twi->bytesRead] = data;
 362:/Users/pthalamy/Studies/CMU/benchmark/build/src-bobby/hw-block/twi_master_driver.c **** 		twi->bytesRead++;
 363:/Users/pthalamy/Studies/CMU/benchmark/build/src-bobby/hw-block/twi_master_driver.c **** 	}
 364:/Users/pthalamy/Studies/CMU/benchmark/build/src-bobby/hw-block/twi_master_driver.c **** 
 365:/Users/pthalamy/Studies/CMU/benchmark/build/src-bobby/hw-block/twi_master_driver.c **** 	/* If buffer overflow, issue STOP and BUFFER_OVERFLOW condition. */
 366:/Users/pthalamy/Studies/CMU/benchmark/build/src-bobby/hw-block/twi_master_driver.c **** 	else {
 367:/Users/pthalamy/Studies/CMU/benchmark/build/src-bobby/hw-block/twi_master_driver.c **** 		twi->interface->MASTER.CTRLC = TWI_MASTER_CMD_STOP_gc;
 368:/Users/pthalamy/Studies/CMU/benchmark/build/src-bobby/hw-block/twi_master_driver.c **** 		TWI_MasterTransactionFinished(twi, TWIM_RESULT_BUFFER_OVERFLOW);
 369:/Users/pthalamy/Studies/CMU/benchmark/build/src-bobby/hw-block/twi_master_driver.c **** 	}
 370:/Users/pthalamy/Studies/CMU/benchmark/build/src-bobby/hw-block/twi_master_driver.c **** 
 371:/Users/pthalamy/Studies/CMU/benchmark/build/src-bobby/hw-block/twi_master_driver.c **** 	/* Local variable used in if test to avoid compiler warning. */
 372:/Users/pthalamy/Studies/CMU/benchmark/build/src-bobby/hw-block/twi_master_driver.c **** 	uint8_t bytesToRead = twi->bytesToRead;
 373:/Users/pthalamy/Studies/CMU/benchmark/build/src-bobby/hw-block/twi_master_driver.c **** 
 374:/Users/pthalamy/Studies/CMU/benchmark/build/src-bobby/hw-block/twi_master_driver.c **** 	/* If more bytes to read, issue ACK and start a byte read. */
 375:/Users/pthalamy/Studies/CMU/benchmark/build/src-bobby/hw-block/twi_master_driver.c **** 	if (twi->bytesRead < bytesToRead) {
 376:/Users/pthalamy/Studies/CMU/benchmark/build/src-bobby/hw-block/twi_master_driver.c **** 		twi->interface->MASTER.CTRLC = TWI_MASTER_CMD_RECVTRANS_gc;
 377:/Users/pthalamy/Studies/CMU/benchmark/build/src-bobby/hw-block/twi_master_driver.c **** 	}
 378:/Users/pthalamy/Studies/CMU/benchmark/build/src-bobby/hw-block/twi_master_driver.c **** 
 379:/Users/pthalamy/Studies/CMU/benchmark/build/src-bobby/hw-block/twi_master_driver.c **** 	/* If transaction finished, issue NACK and STOP condition. */
 380:/Users/pthalamy/Studies/CMU/benchmark/build/src-bobby/hw-block/twi_master_driver.c **** 	else {
 381:/Users/pthalamy/Studies/CMU/benchmark/build/src-bobby/hw-block/twi_master_driver.c **** 		twi->interface->MASTER.CTRLC = TWI_MASTER_ACKACT_bm |
 382:/Users/pthalamy/Studies/CMU/benchmark/build/src-bobby/hw-block/twi_master_driver.c **** 		                               TWI_MASTER_CMD_STOP_gc;
 383:/Users/pthalamy/Studies/CMU/benchmark/build/src-bobby/hw-block/twi_master_driver.c **** 		TWI_MasterTransactionFinished(twi, TWIM_RESULT_OK);
 384:/Users/pthalamy/Studies/CMU/benchmark/build/src-bobby/hw-block/twi_master_driver.c **** 	}
 385:/Users/pthalamy/Studies/CMU/benchmark/build/src-bobby/hw-block/twi_master_driver.c **** }
 386:/Users/pthalamy/Studies/CMU/benchmark/build/src-bobby/hw-block/twi_master_driver.c **** 
 387:/Users/pthalamy/Studies/CMU/benchmark/build/src-bobby/hw-block/twi_master_driver.c **** 
 388:/Users/pthalamy/Studies/CMU/benchmark/build/src-bobby/hw-block/twi_master_driver.c **** /*! \brief TWI transaction finished handler.
 389:/Users/pthalamy/Studies/CMU/benchmark/build/src-bobby/hw-block/twi_master_driver.c ****  *
 390:/Users/pthalamy/Studies/CMU/benchmark/build/src-bobby/hw-block/twi_master_driver.c ****  *  Prepares module for new transaction.
 391:/Users/pthalamy/Studies/CMU/benchmark/build/src-bobby/hw-block/twi_master_driver.c ****  *
 392:/Users/pthalamy/Studies/CMU/benchmark/build/src-bobby/hw-block/twi_master_driver.c ****  *  \param twi     The TWI_Master_t struct instance.
 393:/Users/pthalamy/Studies/CMU/benchmark/build/src-bobby/hw-block/twi_master_driver.c ****  *  \param result  The result of the operation.
 394:/Users/pthalamy/Studies/CMU/benchmark/build/src-bobby/hw-block/twi_master_driver.c ****  */
 395:/Users/pthalamy/Studies/CMU/benchmark/build/src-bobby/hw-block/twi_master_driver.c **** void TWI_MasterTransactionFinished(TWI_Master_t *twi, uint8_t result)
 396:/Users/pthalamy/Studies/CMU/benchmark/build/src-bobby/hw-block/twi_master_driver.c **** {
 397:/Users/pthalamy/Studies/CMU/benchmark/build/src-bobby/hw-block/twi_master_driver.c **** 	twi->result = result;
 518               		.loc 1 397 0
 519 019e 86E0      		ldi r24,lo8(6)
 520               	.LVL59:
 521 01a0 808B      		std Z+16,r24
 398:/Users/pthalamy/Studies/CMU/benchmark/build/src-bobby/hw-block/twi_master_driver.c **** 	twi->status = TWIM_STATUS_READY;
 522               		.loc 1 398 0
 523 01a2 81E0      		ldi r24,lo8(1)
 524 01a4 8787      		std Z+15,r24
 525               	/* epilogue start */
 526               	.LBE81:
 527               	.LBE80:
 278:/Users/pthalamy/Studies/CMU/benchmark/build/src-bobby/hw-block/twi_master_driver.c **** }
 528               		.loc 1 278 0
 529 01a6 DF91      		pop r29
 530 01a8 CF91      		pop r28
 531 01aa 0895      		ret
 532               	.LVL60:
 533               	.L55:
 534               	.LBB82:
 535               	.LBB83:
 289:/Users/pthalamy/Studies/CMU/benchmark/build/src-bobby/hw-block/twi_master_driver.c **** 	uint8_t currentStatus = twi->interface->MASTER.STATUS;
 536               		.loc 1 289 0
 537 01ac 1496      		adiw r26,4
 538 01ae 8C91      		ld r24,X
 539 01b0 1497      		sbiw r26,4
 540               	.LVL61:
 292:/Users/pthalamy/Studies/CMU/benchmark/build/src-bobby/hw-block/twi_master_driver.c **** 	if (currentStatus & TWI_MASTER_BUSERR_bm) {
 541               		.loc 1 292 0
 542 01b2 82FD      		sbrc r24,2
 543 01b4 00C0      		rjmp .L58
 297:/Users/pthalamy/Studies/CMU/benchmark/build/src-bobby/hw-block/twi_master_driver.c **** 		twi->result = TWIM_RESULT_ARBITRATION_LOST;
 544               		.loc 1 297 0
 545 01b6 93E0      		ldi r25,lo8(3)
 546 01b8 908B      		std Z+16,r25
 547               	.L45:
 301:/Users/pthalamy/Studies/CMU/benchmark/build/src-bobby/hw-block/twi_master_driver.c **** 	twi->interface->MASTER.STATUS = currentStatus | TWI_MASTER_ARBLOST_bm;
 548               		.loc 1 301 0
 549 01ba 8860      		ori r24,lo8(8)
 550               	.LVL62:
 551 01bc 1496      		adiw r26,4
 552 01be 8C93      		st X,r24
 303:/Users/pthalamy/Studies/CMU/benchmark/build/src-bobby/hw-block/twi_master_driver.c **** 	twi->status = TWIM_STATUS_READY;
 553               		.loc 1 303 0
 554 01c0 81E0      		ldi r24,lo8(1)
 555 01c2 8787      		std Z+15,r24
 556               	.LVL63:
 557               	.L42:
 558               	/* epilogue start */
 559               	.LBE83:
 560               	.LBE82:
 278:/Users/pthalamy/Studies/CMU/benchmark/build/src-bobby/hw-block/twi_master_driver.c **** }
 561               		.loc 1 278 0
 562 01c4 DF91      		pop r29
 563 01c6 CF91      		pop r28
 564 01c8 0895      		ret
 565               	.LVL64:
 566               	.L58:
 567               	.LBB85:
 568               	.LBB84:
 293:/Users/pthalamy/Studies/CMU/benchmark/build/src-bobby/hw-block/twi_master_driver.c **** 		twi->result = TWIM_RESULT_BUS_ERROR;
 569               		.loc 1 293 0
 570 01ca 94E0      		ldi r25,lo8(4)
 571 01cc 908B      		std Z+16,r25
 572 01ce 00C0      		rjmp .L45
 573               	.LVL65:
 574               	.L56:
 575               	.LBE84:
 576               	.LBE85:
 577               	.LBB86:
 578               	.LBB87:
 316:/Users/pthalamy/Studies/CMU/benchmark/build/src-bobby/hw-block/twi_master_driver.c **** 	uint8_t bytesToWrite  = twi->bytesToWrite;
 579               		.loc 1 316 0
 580 01d0 9385      		ldd r25,Z+11
 581               	.LVL66:
 317:/Users/pthalamy/Studies/CMU/benchmark/build/src-bobby/hw-block/twi_master_driver.c **** 	uint8_t bytesToRead   = twi->bytesToRead;
 582               		.loc 1 317 0
 583 01d2 2485      		ldd r18,Z+12
 584               	.LVL67:
 320:/Users/pthalamy/Studies/CMU/benchmark/build/src-bobby/hw-block/twi_master_driver.c **** 	if (twi->interface->MASTER.STATUS & TWI_MASTER_RXACK_bm) {
 585               		.loc 1 320 0
 586 01d4 1496      		adiw r26,4
 587 01d6 8C91      		ld r24,X
 588 01d8 1497      		sbiw r26,4
 589               	.LVL68:
 590 01da 84FD      		sbrc r24,4
 591 01dc 00C0      		rjmp .L59
 327:/Users/pthalamy/Studies/CMU/benchmark/build/src-bobby/hw-block/twi_master_driver.c **** 	else if (twi->bytesWritten < bytesToWrite) {
 592               		.loc 1 327 0
 593 01de 8585      		ldd r24,Z+13
 594 01e0 8917      		cp r24,r25
 595 01e2 00F0      		brlo .L60
 336:/Users/pthalamy/Studies/CMU/benchmark/build/src-bobby/hw-block/twi_master_driver.c **** 	else if (twi->bytesRead < bytesToRead) {
 596               		.loc 1 336 0
 597 01e4 8685      		ldd r24,Z+14
 598 01e6 8217      		cp r24,r18
 599 01e8 00F0      		brlo .L61
 343:/Users/pthalamy/Studies/CMU/benchmark/build/src-bobby/hw-block/twi_master_driver.c **** 		twi->interface->MASTER.CTRLC = TWI_MASTER_CMD_STOP_gc;
 600               		.loc 1 343 0
 601 01ea 83E0      		ldi r24,lo8(3)
 602 01ec 1396      		adiw r26,3
 603 01ee 8C93      		st X,r24
 604               	.LVL69:
 605               	.LBB88:
 606               	.LBB89:
 397:/Users/pthalamy/Studies/CMU/benchmark/build/src-bobby/hw-block/twi_master_driver.c **** 	twi->result = result;
 607               		.loc 1 397 0
 608 01f0 81E0      		ldi r24,lo8(1)
 609 01f2 808B      		std Z+16,r24
 610               		.loc 1 398 0
 611 01f4 8787      		std Z+15,r24
 612 01f6 00C0      		rjmp .L42
 613               	.LVL70:
 614               	.L59:
 615               	.LBE89:
 616               	.LBE88:
 321:/Users/pthalamy/Studies/CMU/benchmark/build/src-bobby/hw-block/twi_master_driver.c **** 		twi->interface->MASTER.CTRLC = TWI_MASTER_CMD_STOP_gc;
 617               		.loc 1 321 0
 618 01f8 83E0      		ldi r24,lo8(3)
 619 01fa 1396      		adiw r26,3
 620 01fc 8C93      		st X,r24
 322:/Users/pthalamy/Studies/CMU/benchmark/build/src-bobby/hw-block/twi_master_driver.c **** 		twi->result = TWIM_RESULT_NACK_RECEIVED;
 621               		.loc 1 322 0
 622 01fe 85E0      		ldi r24,lo8(5)
 623 0200 808B      		std Z+16,r24
 323:/Users/pthalamy/Studies/CMU/benchmark/build/src-bobby/hw-block/twi_master_driver.c **** 		twi->status = TWIM_STATUS_READY;
 624               		.loc 1 323 0
 625 0202 81E0      		ldi r24,lo8(1)
 626 0204 8787      		std Z+15,r24
 627 0206 00C0      		rjmp .L42
 628               	.LVL71:
 629               	.L57:
 630               	.LBE87:
 631               	.LBE86:
 632               	.LBB94:
 633               	.LBB95:
 359:/Users/pthalamy/Studies/CMU/benchmark/build/src-bobby/hw-block/twi_master_driver.c **** 	if (twi->bytesRead < TWIM_READ_BUFFER_SIZE) {
 634               		.loc 1 359 0
 635 0208 8685      		ldd r24,Z+14
 636               	.LVL72:
 637 020a 8430      		cpi r24,lo8(4)
 638 020c 00F4      		brsh .L52
 639               	.LBB96:
 360:/Users/pthalamy/Studies/CMU/benchmark/build/src-bobby/hw-block/twi_master_driver.c **** 		uint8_t data = twi->interface->MASTER.DATA;
 640               		.loc 1 360 0
 641 020e 1796      		adiw r26,7
 642 0210 8C91      		ld r24,X
 643 0212 1797      		sbiw r26,7
 644               	.LVL73:
 361:/Users/pthalamy/Studies/CMU/benchmark/build/src-bobby/hw-block/twi_master_driver.c **** 		twi->readData[twi->bytesRead] = data;
 645               		.loc 1 361 0
 646 0214 9685      		ldd r25,Z+14
 647 0216 EF01      		movw r28,r30
 648 0218 C90F      		add r28,r25
 649 021a D11D      		adc r29,__zero_reg__
 650 021c 8F83      		std Y+7,r24
 362:/Users/pthalamy/Studies/CMU/benchmark/build/src-bobby/hw-block/twi_master_driver.c **** 		twi->bytesRead++;
 651               		.loc 1 362 0
 652 021e 8685      		ldd r24,Z+14
 653               	.LVL74:
 654 0220 8F5F      		subi r24,lo8(-(1))
 655 0222 8687      		std Z+14,r24
 656               	.LVL75:
 657               	.L53:
 658               	.LBE96:
 372:/Users/pthalamy/Studies/CMU/benchmark/build/src-bobby/hw-block/twi_master_driver.c **** 	uint8_t bytesToRead = twi->bytesToRead;
 659               		.loc 1 372 0
 660 0224 9485      		ldd r25,Z+12
 661               	.LVL76:
 375:/Users/pthalamy/Studies/CMU/benchmark/build/src-bobby/hw-block/twi_master_driver.c **** 	if (twi->bytesRead < bytesToRead) {
 662               		.loc 1 375 0
 663 0226 8685      		ldd r24,Z+14
 664 0228 8917      		cp r24,r25
 665 022a 00F0      		brlo .L62
 381:/Users/pthalamy/Studies/CMU/benchmark/build/src-bobby/hw-block/twi_master_driver.c **** 		twi->interface->MASTER.CTRLC = TWI_MASTER_ACKACT_bm |
 666               		.loc 1 381 0
 667 022c 87E0      		ldi r24,lo8(7)
 668 022e 1396      		adiw r26,3
 669 0230 8C93      		st X,r24
 670               	.LVL77:
 671               	.LBB97:
 672               	.LBB98:
 397:/Users/pthalamy/Studies/CMU/benchmark/build/src-bobby/hw-block/twi_master_driver.c **** 	twi->result = result;
 673               		.loc 1 397 0
 674 0232 81E0      		ldi r24,lo8(1)
 675 0234 808B      		std Z+16,r24
 676               		.loc 1 398 0
 677 0236 8787      		std Z+15,r24
 678 0238 00C0      		rjmp .L42
 679               	.LVL78:
 680               	.L60:
 681               	.LBE98:
 682               	.LBE97:
 683               	.LBE95:
 684               	.LBE94:
 685               	.LBB103:
 686               	.LBB92:
 687               	.LBB90:
 328:/Users/pthalamy/Studies/CMU/benchmark/build/src-bobby/hw-block/twi_master_driver.c **** 		uint8_t data = twi->writeData[twi->bytesWritten];
 688               		.loc 1 328 0
 689 023a 8585      		ldd r24,Z+13
 690 023c EF01      		movw r28,r30
 691 023e C80F      		add r28,r24
 692 0240 D11D      		adc r29,__zero_reg__
 693 0242 8B81      		ldd r24,Y+3
 694               	.LVL79:
 329:/Users/pthalamy/Studies/CMU/benchmark/build/src-bobby/hw-block/twi_master_driver.c **** 		twi->interface->MASTER.DATA = data;
 695               		.loc 1 329 0
 696 0244 1796      		adiw r26,7
 697 0246 8C93      		st X,r24
 330:/Users/pthalamy/Studies/CMU/benchmark/build/src-bobby/hw-block/twi_master_driver.c **** 		++twi->bytesWritten;
 698               		.loc 1 330 0
 699 0248 8585      		ldd r24,Z+13
 700               	.LVL80:
 701 024a 8F5F      		subi r24,lo8(-(1))
 702 024c 8587      		std Z+13,r24
 703 024e 00C0      		rjmp .L42
 704               	.LVL81:
 705               	.L52:
 706               	.LBE90:
 707               	.LBE92:
 708               	.LBE103:
 709               	.LBB104:
 710               	.LBB101:
 367:/Users/pthalamy/Studies/CMU/benchmark/build/src-bobby/hw-block/twi_master_driver.c **** 		twi->interface->MASTER.CTRLC = TWI_MASTER_CMD_STOP_gc;
 711               		.loc 1 367 0
 712 0250 83E0      		ldi r24,lo8(3)
 713 0252 1396      		adiw r26,3
 714 0254 8C93      		st X,r24
 715               	.LVL82:
 716               	.LBB99:
 717               	.LBB100:
 397:/Users/pthalamy/Studies/CMU/benchmark/build/src-bobby/hw-block/twi_master_driver.c **** 	twi->result = result;
 718               		.loc 1 397 0
 719 0256 82E0      		ldi r24,lo8(2)
 720 0258 808B      		std Z+16,r24
 721               		.loc 1 398 0
 722 025a 81E0      		ldi r24,lo8(1)
 723 025c 8787      		std Z+15,r24
 724 025e A081      		ld r26,Z
 725 0260 B181      		ldd r27,Z+1
 726 0262 00C0      		rjmp .L53
 727               	.LVL83:
 728               	.L61:
 729               	.LBE100:
 730               	.LBE99:
 731               	.LBE101:
 732               	.LBE104:
 733               	.LBB105:
 734               	.LBB93:
 735               	.LBB91:
 337:/Users/pthalamy/Studies/CMU/benchmark/build/src-bobby/hw-block/twi_master_driver.c **** 		uint8_t readAddress = twi->address | 0x01;
 736               		.loc 1 337 0
 737 0264 8281      		ldd r24,Z+2
 738 0266 8160      		ori r24,lo8(1)
 739               	.LVL84:
 338:/Users/pthalamy/Studies/CMU/benchmark/build/src-bobby/hw-block/twi_master_driver.c **** 		twi->interface->MASTER.ADDR = readAddress;
 740               		.loc 1 338 0
 741 0268 1696      		adiw r26,6
 742 026a 8C93      		st X,r24
 743 026c 00C0      		rjmp .L42
 744               	.LVL85:
 745               	.L62:
 746               	.LBE91:
 747               	.LBE93:
 748               	.LBE105:
 749               	.LBB106:
 750               	.LBB102:
 376:/Users/pthalamy/Studies/CMU/benchmark/build/src-bobby/hw-block/twi_master_driver.c **** 		twi->interface->MASTER.CTRLC = TWI_MASTER_CMD_RECVTRANS_gc;
 751               		.loc 1 376 0
 752 026e 82E0      		ldi r24,lo8(2)
 753 0270 1396      		adiw r26,3
 754 0272 8C93      		st X,r24
 755 0274 00C0      		rjmp .L42
 756               	.LBE102:
 757               	.LBE106:
 758               		.cfi_endproc
 759               	.LFE13:
 761               	.global	TWI_MasterArbitrationLostBusErrorHandler
 763               	TWI_MasterArbitrationLostBusErrorHandler:
 764               	.LFB14:
 288:/Users/pthalamy/Studies/CMU/benchmark/build/src-bobby/hw-block/twi_master_driver.c **** {
 765               		.loc 1 288 0
 766               		.cfi_startproc
 767               	.LVL86:
 768               	/* prologue: function */
 769               	/* frame size = 0 */
 770               	/* stack size = 0 */
 771               	.L__stack_usage = 0
 772 0276 FC01      		movw r30,r24
 289:/Users/pthalamy/Studies/CMU/benchmark/build/src-bobby/hw-block/twi_master_driver.c **** 	uint8_t currentStatus = twi->interface->MASTER.STATUS;
 773               		.loc 1 289 0
 774 0278 A081      		ld r26,Z
 775 027a B181      		ldd r27,Z+1
 776 027c 1496      		adiw r26,4
 777 027e 8C91      		ld r24,X
 778 0280 1497      		sbiw r26,4
 779               	.LVL87:
 292:/Users/pthalamy/Studies/CMU/benchmark/build/src-bobby/hw-block/twi_master_driver.c **** 	if (currentStatus & TWI_MASTER_BUSERR_bm) {
 780               		.loc 1 292 0
 781 0282 82FD      		sbrc r24,2
 782 0284 00C0      		rjmp .L66
 297:/Users/pthalamy/Studies/CMU/benchmark/build/src-bobby/hw-block/twi_master_driver.c **** 		twi->result = TWIM_RESULT_ARBITRATION_LOST;
 783               		.loc 1 297 0
 784 0286 93E0      		ldi r25,lo8(3)
 785 0288 908B      		std Z+16,r25
 301:/Users/pthalamy/Studies/CMU/benchmark/build/src-bobby/hw-block/twi_master_driver.c **** 	twi->interface->MASTER.STATUS = currentStatus | TWI_MASTER_ARBLOST_bm;
 786               		.loc 1 301 0
 787 028a 8860      		ori r24,lo8(8)
 788               	.LVL88:
 789 028c 1496      		adiw r26,4
 790 028e 8C93      		st X,r24
 303:/Users/pthalamy/Studies/CMU/benchmark/build/src-bobby/hw-block/twi_master_driver.c **** 	twi->status = TWIM_STATUS_READY;
 791               		.loc 1 303 0
 792 0290 81E0      		ldi r24,lo8(1)
 793 0292 8787      		std Z+15,r24
 794 0294 0895      		ret
 795               	.LVL89:
 796               	.L66:
 293:/Users/pthalamy/Studies/CMU/benchmark/build/src-bobby/hw-block/twi_master_driver.c **** 		twi->result = TWIM_RESULT_BUS_ERROR;
 797               		.loc 1 293 0
 798 0296 94E0      		ldi r25,lo8(4)
 799 0298 908B      		std Z+16,r25
 301:/Users/pthalamy/Studies/CMU/benchmark/build/src-bobby/hw-block/twi_master_driver.c **** 	twi->interface->MASTER.STATUS = currentStatus | TWI_MASTER_ARBLOST_bm;
 800               		.loc 1 301 0
 801 029a 8860      		ori r24,lo8(8)
 802               	.LVL90:
 803 029c 1496      		adiw r26,4
 804 029e 8C93      		st X,r24
 303:/Users/pthalamy/Studies/CMU/benchmark/build/src-bobby/hw-block/twi_master_driver.c **** 	twi->status = TWIM_STATUS_READY;
 805               		.loc 1 303 0
 806 02a0 81E0      		ldi r24,lo8(1)
 807 02a2 8787      		std Z+15,r24
 808 02a4 0895      		ret
 809               		.cfi_endproc
 810               	.LFE14:
 812               	.global	TWI_MasterWriteHandler
 814               	TWI_MasterWriteHandler:
 815               	.LFB15:
 314:/Users/pthalamy/Studies/CMU/benchmark/build/src-bobby/hw-block/twi_master_driver.c **** {
 816               		.loc 1 314 0
 817               		.cfi_startproc
 818               	.LVL91:
 819 02a6 CF93      		push r28
 820               	.LCFI5:
 821               		.cfi_def_cfa_offset 4
 822               		.cfi_offset 28, -3
 823 02a8 DF93      		push r29
 824               	.LCFI6:
 825               		.cfi_def_cfa_offset 5
 826               		.cfi_offset 29, -4
 827               	/* prologue: function */
 828               	/* frame size = 0 */
 829               	/* stack size = 2 */
 830               	.L__stack_usage = 2
 831 02aa FC01      		movw r30,r24
 316:/Users/pthalamy/Studies/CMU/benchmark/build/src-bobby/hw-block/twi_master_driver.c **** 	uint8_t bytesToWrite  = twi->bytesToWrite;
 832               		.loc 1 316 0
 833 02ac 9385      		ldd r25,Z+11
 834               	.LVL92:
 317:/Users/pthalamy/Studies/CMU/benchmark/build/src-bobby/hw-block/twi_master_driver.c **** 	uint8_t bytesToRead   = twi->bytesToRead;
 835               		.loc 1 317 0
 836 02ae 2485      		ldd r18,Z+12
 837               	.LVL93:
 320:/Users/pthalamy/Studies/CMU/benchmark/build/src-bobby/hw-block/twi_master_driver.c **** 	if (twi->interface->MASTER.STATUS & TWI_MASTER_RXACK_bm) {
 838               		.loc 1 320 0
 839 02b0 A081      		ld r26,Z
 840 02b2 B181      		ldd r27,Z+1
 841 02b4 1496      		adiw r26,4
 842 02b6 8C91      		ld r24,X
 843 02b8 1497      		sbiw r26,4
 844               	.LVL94:
 845 02ba 84FD      		sbrc r24,4
 846 02bc 00C0      		rjmp .L72
 327:/Users/pthalamy/Studies/CMU/benchmark/build/src-bobby/hw-block/twi_master_driver.c **** 	else if (twi->bytesWritten < bytesToWrite) {
 847               		.loc 1 327 0
 848 02be 8585      		ldd r24,Z+13
 849 02c0 8917      		cp r24,r25
 850 02c2 00F0      		brlo .L73
 336:/Users/pthalamy/Studies/CMU/benchmark/build/src-bobby/hw-block/twi_master_driver.c **** 	else if (twi->bytesRead < bytesToRead) {
 851               		.loc 1 336 0
 852 02c4 8685      		ldd r24,Z+14
 853 02c6 8217      		cp r24,r18
 854 02c8 00F0      		brlo .L74
 343:/Users/pthalamy/Studies/CMU/benchmark/build/src-bobby/hw-block/twi_master_driver.c **** 		twi->interface->MASTER.CTRLC = TWI_MASTER_CMD_STOP_gc;
 855               		.loc 1 343 0
 856 02ca 83E0      		ldi r24,lo8(3)
 857 02cc 1396      		adiw r26,3
 858 02ce 8C93      		st X,r24
 859               	.LVL95:
 860               	.LBB107:
 861               	.LBB108:
 397:/Users/pthalamy/Studies/CMU/benchmark/build/src-bobby/hw-block/twi_master_driver.c **** 	twi->result = result;
 862               		.loc 1 397 0
 863 02d0 81E0      		ldi r24,lo8(1)
 864 02d2 808B      		std Z+16,r24
 865               		.loc 1 398 0
 866 02d4 8787      		std Z+15,r24
 867               	/* epilogue start */
 868               	.LBE108:
 869               	.LBE107:
 346:/Users/pthalamy/Studies/CMU/benchmark/build/src-bobby/hw-block/twi_master_driver.c **** }
 870               		.loc 1 346 0
 871 02d6 DF91      		pop r29
 872 02d8 CF91      		pop r28
 873 02da 0895      		ret
 874               	.LVL96:
 875               	.L73:
 876               	.LBB109:
 328:/Users/pthalamy/Studies/CMU/benchmark/build/src-bobby/hw-block/twi_master_driver.c **** 		uint8_t data = twi->writeData[twi->bytesWritten];
 877               		.loc 1 328 0
 878 02dc 8585      		ldd r24,Z+13
 879 02de EF01      		movw r28,r30
 880 02e0 C80F      		add r28,r24
 881 02e2 D11D      		adc r29,__zero_reg__
 882 02e4 8B81      		ldd r24,Y+3
 883               	.LVL97:
 329:/Users/pthalamy/Studies/CMU/benchmark/build/src-bobby/hw-block/twi_master_driver.c **** 		twi->interface->MASTER.DATA = data;
 884               		.loc 1 329 0
 885 02e6 1796      		adiw r26,7
 886 02e8 8C93      		st X,r24
 330:/Users/pthalamy/Studies/CMU/benchmark/build/src-bobby/hw-block/twi_master_driver.c **** 		++twi->bytesWritten;
 887               		.loc 1 330 0
 888 02ea 8585      		ldd r24,Z+13
 889               	.LVL98:
 890 02ec 8F5F      		subi r24,lo8(-(1))
 891 02ee 8587      		std Z+13,r24
 892               	/* epilogue start */
 893               	.LBE109:
 346:/Users/pthalamy/Studies/CMU/benchmark/build/src-bobby/hw-block/twi_master_driver.c **** }
 894               		.loc 1 346 0
 895 02f0 DF91      		pop r29
 896 02f2 CF91      		pop r28
 897 02f4 0895      		ret
 898               	.LVL99:
 899               	.L72:
 321:/Users/pthalamy/Studies/CMU/benchmark/build/src-bobby/hw-block/twi_master_driver.c **** 		twi->interface->MASTER.CTRLC = TWI_MASTER_CMD_STOP_gc;
 900               		.loc 1 321 0
 901 02f6 83E0      		ldi r24,lo8(3)
 902 02f8 1396      		adiw r26,3
 903 02fa 8C93      		st X,r24
 322:/Users/pthalamy/Studies/CMU/benchmark/build/src-bobby/hw-block/twi_master_driver.c **** 		twi->result = TWIM_RESULT_NACK_RECEIVED;
 904               		.loc 1 322 0
 905 02fc 85E0      		ldi r24,lo8(5)
 906 02fe 808B      		std Z+16,r24
 323:/Users/pthalamy/Studies/CMU/benchmark/build/src-bobby/hw-block/twi_master_driver.c **** 		twi->status = TWIM_STATUS_READY;
 907               		.loc 1 323 0
 908 0300 81E0      		ldi r24,lo8(1)
 909 0302 8787      		std Z+15,r24
 910               	/* epilogue start */
 346:/Users/pthalamy/Studies/CMU/benchmark/build/src-bobby/hw-block/twi_master_driver.c **** }
 911               		.loc 1 346 0
 912 0304 DF91      		pop r29
 913 0306 CF91      		pop r28
 914 0308 0895      		ret
 915               	.L74:
 916               	.LBB110:
 337:/Users/pthalamy/Studies/CMU/benchmark/build/src-bobby/hw-block/twi_master_driver.c **** 		uint8_t readAddress = twi->address | 0x01;
 917               		.loc 1 337 0
 918 030a 8281      		ldd r24,Z+2
 919 030c 8160      		ori r24,lo8(1)
 920               	.LVL100:
 338:/Users/pthalamy/Studies/CMU/benchmark/build/src-bobby/hw-block/twi_master_driver.c **** 		twi->interface->MASTER.ADDR = readAddress;
 921               		.loc 1 338 0
 922 030e 1696      		adiw r26,6
 923 0310 8C93      		st X,r24
 924               	/* epilogue start */
 925               	.LBE110:
 346:/Users/pthalamy/Studies/CMU/benchmark/build/src-bobby/hw-block/twi_master_driver.c **** }
 926               		.loc 1 346 0
 927 0312 DF91      		pop r29
 928 0314 CF91      		pop r28
 929 0316 0895      		ret
 930               		.cfi_endproc
 931               	.LFE15:
 933               	.global	TWI_MasterReadHandler
 935               	TWI_MasterReadHandler:
 936               	.LFB16:
 357:/Users/pthalamy/Studies/CMU/benchmark/build/src-bobby/hw-block/twi_master_driver.c **** {
 937               		.loc 1 357 0
 938               		.cfi_startproc
 939               	.LVL101:
 940 0318 CF93      		push r28
 941               	.LCFI7:
 942               		.cfi_def_cfa_offset 4
 943               		.cfi_offset 28, -3
 944 031a DF93      		push r29
 945               	.LCFI8:
 946               		.cfi_def_cfa_offset 5
 947               		.cfi_offset 29, -4
 948               	/* prologue: function */
 949               	/* frame size = 0 */
 950               	/* stack size = 2 */
 951               	.L__stack_usage = 2
 952 031c FC01      		movw r30,r24
 359:/Users/pthalamy/Studies/CMU/benchmark/build/src-bobby/hw-block/twi_master_driver.c **** 	if (twi->bytesRead < TWIM_READ_BUFFER_SIZE) {
 953               		.loc 1 359 0
 954 031e 8685      		ldd r24,Z+14
 955               	.LVL102:
 956               	.LBB111:
 360:/Users/pthalamy/Studies/CMU/benchmark/build/src-bobby/hw-block/twi_master_driver.c **** 		uint8_t data = twi->interface->MASTER.DATA;
 957               		.loc 1 360 0
 958 0320 A081      		ld r26,Z
 959 0322 B181      		ldd r27,Z+1
 960               	.LBE111:
 359:/Users/pthalamy/Studies/CMU/benchmark/build/src-bobby/hw-block/twi_master_driver.c **** 	if (twi->bytesRead < TWIM_READ_BUFFER_SIZE) {
 961               		.loc 1 359 0
 962 0324 8430      		cpi r24,lo8(4)
 963 0326 00F4      		brsh .L76
 964               	.LBB112:
 360:/Users/pthalamy/Studies/CMU/benchmark/build/src-bobby/hw-block/twi_master_driver.c **** 		uint8_t data = twi->interface->MASTER.DATA;
 965               		.loc 1 360 0
 966 0328 1796      		adiw r26,7
 967 032a 8C91      		ld r24,X
 968 032c 1797      		sbiw r26,7
 969               	.LVL103:
 361:/Users/pthalamy/Studies/CMU/benchmark/build/src-bobby/hw-block/twi_master_driver.c **** 		twi->readData[twi->bytesRead] = data;
 970               		.loc 1 361 0
 971 032e 9685      		ldd r25,Z+14
 972 0330 EF01      		movw r28,r30
 973 0332 C90F      		add r28,r25
 974 0334 D11D      		adc r29,__zero_reg__
 975 0336 8F83      		std Y+7,r24
 362:/Users/pthalamy/Studies/CMU/benchmark/build/src-bobby/hw-block/twi_master_driver.c **** 		twi->bytesRead++;
 976               		.loc 1 362 0
 977 0338 8685      		ldd r24,Z+14
 978               	.LVL104:
 979 033a 8F5F      		subi r24,lo8(-(1))
 980 033c 8687      		std Z+14,r24
 981               	.LBE112:
 372:/Users/pthalamy/Studies/CMU/benchmark/build/src-bobby/hw-block/twi_master_driver.c **** 	uint8_t bytesToRead = twi->bytesToRead;
 982               		.loc 1 372 0
 983 033e 9485      		ldd r25,Z+12
 984               	.LVL105:
 375:/Users/pthalamy/Studies/CMU/benchmark/build/src-bobby/hw-block/twi_master_driver.c **** 	if (twi->bytesRead < bytesToRead) {
 985               		.loc 1 375 0
 986 0340 8685      		ldd r24,Z+14
 987 0342 8917      		cp r24,r25
 988 0344 00F0      		brlo .L80
 989               	.LVL106:
 990               	.L78:
 381:/Users/pthalamy/Studies/CMU/benchmark/build/src-bobby/hw-block/twi_master_driver.c **** 		twi->interface->MASTER.CTRLC = TWI_MASTER_ACKACT_bm |
 991               		.loc 1 381 0
 992 0346 87E0      		ldi r24,lo8(7)
 993 0348 1396      		adiw r26,3
 994 034a 8C93      		st X,r24
 995               	.LVL107:
 996               	.LBB113:
 997               	.LBB114:
 397:/Users/pthalamy/Studies/CMU/benchmark/build/src-bobby/hw-block/twi_master_driver.c **** 	twi->result = result;
 998               		.loc 1 397 0
 999 034c 81E0      		ldi r24,lo8(1)
 1000 034e 808B      		std Z+16,r24
 1001               		.loc 1 398 0
 1002 0350 8787      		std Z+15,r24
 1003               	/* epilogue start */
 1004               	.LBE114:
 1005               	.LBE113:
 385:/Users/pthalamy/Studies/CMU/benchmark/build/src-bobby/hw-block/twi_master_driver.c **** }
 1006               		.loc 1 385 0
 1007 0352 DF91      		pop r29
 1008 0354 CF91      		pop r28
 1009 0356 0895      		ret
 1010               	.LVL108:
 1011               	.L76:
 367:/Users/pthalamy/Studies/CMU/benchmark/build/src-bobby/hw-block/twi_master_driver.c **** 		twi->interface->MASTER.CTRLC = TWI_MASTER_CMD_STOP_gc;
 1012               		.loc 1 367 0
 1013 0358 83E0      		ldi r24,lo8(3)
 1014 035a 1396      		adiw r26,3
 1015 035c 8C93      		st X,r24
 1016               	.LVL109:
 1017               	.LBB115:
 1018               	.LBB116:
 397:/Users/pthalamy/Studies/CMU/benchmark/build/src-bobby/hw-block/twi_master_driver.c **** 	twi->result = result;
 1019               		.loc 1 397 0
 1020 035e 82E0      		ldi r24,lo8(2)
 1021 0360 808B      		std Z+16,r24
 1022               		.loc 1 398 0
 1023 0362 81E0      		ldi r24,lo8(1)
 1024 0364 8787      		std Z+15,r24
 1025 0366 A081      		ld r26,Z
 1026 0368 B181      		ldd r27,Z+1
 1027               	.LBE116:
 1028               	.LBE115:
 372:/Users/pthalamy/Studies/CMU/benchmark/build/src-bobby/hw-block/twi_master_driver.c **** 	uint8_t bytesToRead = twi->bytesToRead;
 1029               		.loc 1 372 0
 1030 036a 9485      		ldd r25,Z+12
 1031               	.LVL110:
 375:/Users/pthalamy/Studies/CMU/benchmark/build/src-bobby/hw-block/twi_master_driver.c **** 	if (twi->bytesRead < bytesToRead) {
 1032               		.loc 1 375 0
 1033 036c 8685      		ldd r24,Z+14
 1034 036e 8917      		cp r24,r25
 1035 0370 00F4      		brsh .L78
 1036               	.LVL111:
 1037               	.L80:
 376:/Users/pthalamy/Studies/CMU/benchmark/build/src-bobby/hw-block/twi_master_driver.c **** 		twi->interface->MASTER.CTRLC = TWI_MASTER_CMD_RECVTRANS_gc;
 1038               		.loc 1 376 0
 1039 0372 82E0      		ldi r24,lo8(2)
 1040 0374 1396      		adiw r26,3
 1041 0376 8C93      		st X,r24
 1042               	/* epilogue start */
 385:/Users/pthalamy/Studies/CMU/benchmark/build/src-bobby/hw-block/twi_master_driver.c **** }
 1043               		.loc 1 385 0
 1044 0378 DF91      		pop r29
 1045 037a CF91      		pop r28
 1046 037c 0895      		ret
 1047               		.cfi_endproc
 1048               	.LFE16:
 1050               	.global	TWI_MasterTransactionFinished
 1052               	TWI_MasterTransactionFinished:
 1053               	.LFB17:
 396:/Users/pthalamy/Studies/CMU/benchmark/build/src-bobby/hw-block/twi_master_driver.c **** {
 1054               		.loc 1 396 0
 1055               		.cfi_startproc
 1056               	.LVL112:
 1057               	/* prologue: function */
 1058               	/* frame size = 0 */
 1059               	/* stack size = 0 */
 1060               	.L__stack_usage = 0
 397:/Users/pthalamy/Studies/CMU/benchmark/build/src-bobby/hw-block/twi_master_driver.c **** 	twi->result = result;
 1061               		.loc 1 397 0
 1062 037e FC01      		movw r30,r24
 1063 0380 608B      		std Z+16,r22
 1064               		.loc 1 398 0
 1065 0382 21E0      		ldi r18,lo8(1)
 1066 0384 2787      		std Z+15,r18
 1067 0386 0895      		ret
 1068               		.cfi_endproc
 1069               	.LFE17:
 1071               	.Letext0:
 1072               		.file 2 "/usr/local/Cellar/avr-gcc/4.7.2/lib/gcc/avr/4.7.2/../../../../avr/include/stdint.h"
 1073               		.file 3 "/usr/local/Cellar/avr-gcc/4.7.2/lib/gcc/avr/4.7.2/../../../../avr/include/avr/iox256a3.h"
 1074               		.file 4 "/Users/pthalamy/Studies/CMU/benchmark/build/src-bobby/hw-block/twi_master_driver.h"
DEFINED SYMBOLS
                            *ABS*:0000000000000000 twi_master_driver.c
/var/folders/15/4vptxgpd5dld1xryx388y8700000gn/T//ccAqJ6PL.s:2      *ABS*:000000000000003e __SP_H__
/var/folders/15/4vptxgpd5dld1xryx388y8700000gn/T//ccAqJ6PL.s:3      *ABS*:000000000000003d __SP_L__
/var/folders/15/4vptxgpd5dld1xryx388y8700000gn/T//ccAqJ6PL.s:4      *ABS*:000000000000003f __SREG__
/var/folders/15/4vptxgpd5dld1xryx388y8700000gn/T//ccAqJ6PL.s:5      *ABS*:000000000000003b __RAMPZ__
/var/folders/15/4vptxgpd5dld1xryx388y8700000gn/T//ccAqJ6PL.s:6      *ABS*:0000000000000034 __CCP__
/var/folders/15/4vptxgpd5dld1xryx388y8700000gn/T//ccAqJ6PL.s:7      *ABS*:0000000000000000 __tmp_reg__
/var/folders/15/4vptxgpd5dld1xryx388y8700000gn/T//ccAqJ6PL.s:8      *ABS*:0000000000000001 __zero_reg__
/var/folders/15/4vptxgpd5dld1xryx388y8700000gn/T//ccAqJ6PL.s:14     .text:0000000000000000 TWI_MasterInit
/var/folders/15/4vptxgpd5dld1xryx388y8700000gn/T//ccAqJ6PL.s:52     .text:0000000000000022 TWI_MasterState
/var/folders/15/4vptxgpd5dld1xryx388y8700000gn/T//ccAqJ6PL.s:76     .text:000000000000002e TWI_MasterReady
/var/folders/15/4vptxgpd5dld1xryx388y8700000gn/T//ccAqJ6PL.s:98     .text:0000000000000036 TWI_MasterWrite
/var/folders/15/4vptxgpd5dld1xryx388y8700000gn/T//ccAqJ6PL.s:238    .text:00000000000000a8 TWI_MasterRead
/var/folders/15/4vptxgpd5dld1xryx388y8700000gn/T//ccAqJ6PL.s:339    .text:00000000000000f8 TWI_MasterWriteRead
/var/folders/15/4vptxgpd5dld1xryx388y8700000gn/T//ccAqJ6PL.s:479    .text:0000000000000180 TWI_MasterInterruptHandler
/var/folders/15/4vptxgpd5dld1xryx388y8700000gn/T//ccAqJ6PL.s:763    .text:0000000000000276 TWI_MasterArbitrationLostBusErrorHandler
/var/folders/15/4vptxgpd5dld1xryx388y8700000gn/T//ccAqJ6PL.s:814    .text:00000000000002a6 TWI_MasterWriteHandler
/var/folders/15/4vptxgpd5dld1xryx388y8700000gn/T//ccAqJ6PL.s:935    .text:0000000000000318 TWI_MasterReadHandler
/var/folders/15/4vptxgpd5dld1xryx388y8700000gn/T//ccAqJ6PL.s:1052   .text:000000000000037e TWI_MasterTransactionFinished

NO UNDEFINED SYMBOLS
